
Bastian_freeRTOS-TRACE.elf:     file format elf32-littlearm

Sections:
Idx Name          Size      VMA       LMA       File off  Algn
  0 .text         0000472c  00000000  00000000  00008000  2**3
                  CONTENTS, ALLOC, LOAD, READONLY, CODE
  1 .got          00000224  0000472c  0000472c  0000c72c  2**2
                  CONTENTS, ALLOC, LOAD, DATA
  2 .got.plt      0000000c  00004950  00004950  0000c950  2**2
                  CONTENTS, ALLOC, LOAD, DATA
  3 .relocate     00000438  20000000  0000495c  00010000  2**3
                  CONTENTS, ALLOC, LOAD, DATA
  4 .bss          00001c44  20000438  00004d94  00010438  2**2
                  ALLOC
  5 .stack        00002004  2000207c  000069d8  00010438  2**0
                  ALLOC
  6 .ARM.attributes 00000028  00000000  00000000  00010438  2**0
                  CONTENTS, READONLY
  7 .comment      0000005b  00000000  00000000  00010460  2**0
                  CONTENTS, READONLY
  8 .debug_info   000235eb  00000000  00000000  000104bb  2**0
                  CONTENTS, READONLY, DEBUGGING
  9 .debug_abbrev 000032f4  00000000  00000000  00033aa6  2**0
                  CONTENTS, READONLY, DEBUGGING
 10 .debug_loc    000077b6  00000000  00000000  00036d9a  2**0
                  CONTENTS, READONLY, DEBUGGING
 11 .debug_aranges 00000780  00000000  00000000  0003e550  2**0
                  CONTENTS, READONLY, DEBUGGING
 12 .debug_ranges 00000828  00000000  00000000  0003ecd0  2**0
                  CONTENTS, READONLY, DEBUGGING
 13 .debug_macro  00018567  00000000  00000000  0003f4f8  2**0
                  CONTENTS, READONLY, DEBUGGING
 14 .debug_line   0000e049  00000000  00000000  00057a5f  2**0
                  CONTENTS, READONLY, DEBUGGING
 15 .debug_str    00086f70  00000000  00000000  00065aa8  2**0
                  CONTENTS, READONLY, DEBUGGING
 16 .debug_frame  000015d8  00000000  00000000  000eca18  2**2
                  CONTENTS, READONLY, DEBUGGING

Disassembly of section .text:

00000000 <_sfixed>:
       0:	20004080 	.word	0x20004080
       4:	000038e1 	.word	0x000038e1
       8:	000038dd 	.word	0x000038dd
       c:	000038dd 	.word	0x000038dd
	...
      2c:	00001b5d 	.word	0x00001b5d
	...
      38:	00001bd1 	.word	0x00001bd1
      3c:	00001c15 	.word	0x00001c15
      40:	000038dd 	.word	0x000038dd
      44:	000038dd 	.word	0x000038dd
      48:	000038dd 	.word	0x000038dd
      4c:	000038dd 	.word	0x000038dd
      50:	000038dd 	.word	0x000038dd
      54:	000038dd 	.word	0x000038dd
      58:	000038dd 	.word	0x000038dd
      5c:	000038dd 	.word	0x000038dd
      60:	000038dd 	.word	0x000038dd
      64:	000013bd 	.word	0x000013bd
      68:	000013d1 	.word	0x000013d1
      6c:	000013e5 	.word	0x000013e5
      70:	000013f9 	.word	0x000013f9
	...
      7c:	000038dd 	.word	0x000038dd
      80:	000038dd 	.word	0x000038dd
      84:	000038dd 	.word	0x000038dd
      88:	000038dd 	.word	0x000038dd
      8c:	000038dd 	.word	0x000038dd
      90:	000038dd 	.word	0x000038dd
	...
      9c:	000038dd 	.word	0x000038dd
      a0:	000038dd 	.word	0x000038dd
      a4:	000038dd 	.word	0x000038dd
      a8:	000038dd 	.word	0x000038dd
      ac:	000038dd 	.word	0x000038dd

000000b0 <__do_global_dtors_aux>:
      b0:	b510      	push	{r4, lr}
      b2:	4c06      	ldr	r4, [pc, #24]	; (cc <__do_global_dtors_aux+0x1c>)
      b4:	7823      	ldrb	r3, [r4, #0]
      b6:	2b00      	cmp	r3, #0
      b8:	d107      	bne.n	ca <__do_global_dtors_aux+0x1a>
      ba:	4b05      	ldr	r3, [pc, #20]	; (d0 <__do_global_dtors_aux+0x20>)
      bc:	2b00      	cmp	r3, #0
      be:	d002      	beq.n	c6 <__do_global_dtors_aux+0x16>
      c0:	4804      	ldr	r0, [pc, #16]	; (d4 <__do_global_dtors_aux+0x24>)
      c2:	e000      	b.n	c6 <__do_global_dtors_aux+0x16>
      c4:	bf00      	nop
      c6:	2301      	movs	r3, #1
      c8:	7023      	strb	r3, [r4, #0]
      ca:	bd10      	pop	{r4, pc}
      cc:	20000438 	.word	0x20000438
      d0:	00000000 	.word	0x00000000
      d4:	0000472c 	.word	0x0000472c

000000d8 <frame_dummy>:
      d8:	b508      	push	{r3, lr}
      da:	4b08      	ldr	r3, [pc, #32]	; (fc <frame_dummy+0x24>)
      dc:	2b00      	cmp	r3, #0
      de:	d003      	beq.n	e8 <frame_dummy+0x10>
      e0:	4807      	ldr	r0, [pc, #28]	; (100 <frame_dummy+0x28>)
      e2:	4908      	ldr	r1, [pc, #32]	; (104 <frame_dummy+0x2c>)
      e4:	e000      	b.n	e8 <frame_dummy+0x10>
      e6:	bf00      	nop
      e8:	4807      	ldr	r0, [pc, #28]	; (108 <frame_dummy+0x30>)
      ea:	6803      	ldr	r3, [r0, #0]
      ec:	2b00      	cmp	r3, #0
      ee:	d003      	beq.n	f8 <frame_dummy+0x20>
      f0:	4b06      	ldr	r3, [pc, #24]	; (10c <frame_dummy+0x34>)
      f2:	2b00      	cmp	r3, #0
      f4:	d000      	beq.n	f8 <frame_dummy+0x20>
      f6:	4798      	blx	r3
      f8:	bd08      	pop	{r3, pc}
      fa:	46c0      	nop			; (mov r8, r8)
      fc:	00000000 	.word	0x00000000
     100:	0000472c 	.word	0x0000472c
     104:	2000043c 	.word	0x2000043c
     108:	0000472c 	.word	0x0000472c
     10c:	00000000 	.word	0x00000000

00000110 <timer_irda_sync_callback>:
		break;
	}
}

void timer_irda_sync_callback(TimerHandle_t pxTimer)
{
     110:	b082      	sub	sp, #8
     112:	4b09      	ldr	r3, [pc, #36]	; (138 <timer_irda_sync_callback+0x28>)
     114:	447b      	add	r3, pc
	configASSERT( pxTimer );
     116:	2800      	cmp	r0, #0
     118:	d101      	bne.n	11e <timer_irda_sync_callback+0xe>
     11a:	b672      	cpsid	i
     11c:	e7fe      	b.n	11c <timer_irda_sync_callback+0xc>
	// This is the timeout timer that should perform the following if reached
	
	switch ( irda_comm_state ) {
     11e:	4a07      	ldr	r2, [pc, #28]	; (13c <timer_irda_sync_callback+0x2c>)
     120:	589a      	ldr	r2, [r3, r2]
     122:	9201      	str	r2, [sp, #4]
     124:	7812      	ldrb	r2, [r2, #0]
     126:	2a02      	cmp	r2, #2
     128:	d103      	bne.n	132 <timer_irda_sync_callback+0x22>
		case IRDA_BEACON_BACK_PING:
			// There was no Back-Ping detected
			irda_comm_state = IRDA_BEACON_PING;
     12a:	4a04      	ldr	r2, [pc, #16]	; (13c <timer_irda_sync_callback+0x2c>)
     12c:	589a      	ldr	r2, [r3, r2]
     12e:	2301      	movs	r3, #1
     130:	7013      	strb	r3, [r2, #0]
		break;
	}
     132:	b002      	add	sp, #8
     134:	4770      	bx	lr
     136:	46c0      	nop			; (mov r8, r8)
     138:	00004614 	.word	0x00004614
     13c:	000000d8 	.word	0x000000d8

00000140 <timer_irda_ping_callback>:
		system_interrupt_disable_global();
	}
}

void timer_irda_ping_callback(TimerHandle_t pxTimer) 
{
     140:	b510      	push	{r4, lr}
     142:	b082      	sub	sp, #8
     144:	4c1a      	ldr	r4, [pc, #104]	; (1b0 <timer_irda_ping_callback+0x70>)
     146:	447c      	add	r4, pc
	configASSERT( pxTimer );
     148:	2800      	cmp	r0, #0
     14a:	d101      	bne.n	150 <timer_irda_ping_callback+0x10>
     14c:	b672      	cpsid	i
     14e:	e7fe      	b.n	14e <timer_irda_ping_callback+0xe>
	// This is the timeout timer that should perform the following if reached
	
	switch ( irda_comm_state ) {
     150:	4b18      	ldr	r3, [pc, #96]	; (1b4 <timer_irda_ping_callback+0x74>)
     152:	58e3      	ldr	r3, [r4, r3]
     154:	7818      	ldrb	r0, [r3, #0]
     156:	3801      	subs	r0, #1
     158:	2807      	cmp	r0, #7
     15a:	d827      	bhi.n	1ac <timer_irda_ping_callback+0x6c>
     15c:	f004 f938 	bl	43d0 <__gnu_thumb1_case_uqi>
     160:	0426040a 	.word	0x0426040a
     164:	04262626 	.word	0x04262626
		case IRDA_BEACON_STAGE_5_RX:	// Stage 5 message has just been sent
		case IRDA_BEACON_STAGE_9:
		case IRDA_BEACON_BACK_PING:
			// Change the state of the machine
			irda_comm_state = IRDA_BEACON_PING;	// We are starting to wait for the Back-Ping
     168:	4b12      	ldr	r3, [pc, #72]	; (1b4 <timer_irda_ping_callback+0x74>)
     16a:	58e3      	ldr	r3, [r4, r3]
     16c:	9301      	str	r3, [sp, #4]
     16e:	2301      	movs	r3, #1
     170:	9a01      	ldr	r2, [sp, #4]
     172:	7013      	strb	r3, [r2, #0]

	/* Set the pin to high or low atomically based on the requested level */
	if (level) {
		port_base->OUTSET.reg = pin_mask;
	} else {
		port_base->OUTCLR.reg = pin_mask;
     174:	2280      	movs	r2, #128	; 0x80
     176:	0492      	lsls	r2, r2, #18
     178:	4b0f      	ldr	r3, [pc, #60]	; (1b8 <timer_irda_ping_callback+0x78>)
     17a:	615a      	str	r2, [r3, #20]
	/* Sanity check arguments */
	Assert(module);
	Assert(module->hw);

	/* Get a pointer to the hardware module instance */
	SercomUsart *const usart_hw = &(module->hw->USART);
     17c:	4b0f      	ldr	r3, [pc, #60]	; (1bc <timer_irda_ping_callback+0x7c>)
     17e:	58e3      	ldr	r3, [r4, r3]
     180:	681a      	ldr	r2, [r3, #0]
	Assert(module->hw);

	SercomUsart *const usart_hw = &(module->hw->USART);

#ifdef FEATURE_USART_SYNC_SCHEME_V2
	return (usart_hw->SYNCBUSY.reg);
     182:	69d3      	ldr	r3, [r2, #28]
		const struct usart_module *const module)
{
	/* Sanity check */
	Assert(module);

	while (usart_is_syncing(module)) {
     184:	2b00      	cmp	r3, #0
     186:	d1fc      	bne.n	182 <timer_irda_ping_callback+0x42>
	_usart_wait_for_sync(module);

	switch (transceiver_type) {
		case USART_TRANSCEIVER_RX:
			/* Disable RX */
			usart_hw->CTRLB.reg &= ~SERCOM_USART_CTRLB_RXEN;
     188:	6851      	ldr	r1, [r2, #4]
     18a:	4b0d      	ldr	r3, [pc, #52]	; (1c0 <timer_irda_ping_callback+0x80>)
     18c:	400b      	ands	r3, r1
     18e:	6053      	str	r3, [r2, #4]
			module->receiver_enabled = false;
     190:	4b0a      	ldr	r3, [pc, #40]	; (1bc <timer_irda_ping_callback+0x7c>)
     192:	58e0      	ldr	r0, [r4, r3]
     194:	2300      	movs	r3, #0
     196:	7183      	strb	r3, [r0, #6]
		case IRDA_BEACON_PING:
			port_pin_set_output_level(LED_ERROR, pdFALSE);
				// There was no significant response to the ping, 
					// Reset accordingly
			usart_disable_transceiver(&irda_master, USART_TRANSCEIVER_RX);
			usart_abort_job( &irda_master, USART_TRANSCEIVER_RX );
     198:	2100      	movs	r1, #0
     19a:	4b0a      	ldr	r3, [pc, #40]	; (1c4 <timer_irda_ping_callback+0x84>)
     19c:	58e3      	ldr	r3, [r4, r3]
     19e:	4798      	blx	r3
			
				// The IrDA task is now to reset and ping again
			vTaskResume( irda_task_handler );
     1a0:	4b09      	ldr	r3, [pc, #36]	; (1c8 <timer_irda_ping_callback+0x88>)
     1a2:	58e3      	ldr	r3, [r4, r3]
     1a4:	6818      	ldr	r0, [r3, #0]
     1a6:	4b09      	ldr	r3, [pc, #36]	; (1cc <timer_irda_ping_callback+0x8c>)
     1a8:	58e3      	ldr	r3, [r4, r3]
     1aa:	4798      	blx	r3
		break;
	}
}
     1ac:	b002      	add	sp, #8
     1ae:	bd10      	pop	{r4, pc}
     1b0:	000045e2 	.word	0x000045e2
     1b4:	000000d8 	.word	0x000000d8
     1b8:	41004400 	.word	0x41004400
     1bc:	0000013c 	.word	0x0000013c
     1c0:	fffdffff 	.word	0xfffdffff
     1c4:	00000034 	.word	0x00000034
     1c8:	00000174 	.word	0x00000174
     1cc:	00000120 	.word	0x00000120

000001d0 <irda_communication_task>:

//#define IRDA_BEACON_PING	(( uint8_t ) 0x01 )		// This is the 
uint8_t irda_comm_state;
uint8_t irda_tx_array[6] = { 0 };
uint8_t irda_rx_array[6] = { 0 };
void irda_communication_task(void) {
     1d0:	b5f0      	push	{r4, r5, r6, r7, lr}
     1d2:	464f      	mov	r7, r9
     1d4:	4646      	mov	r6, r8
     1d6:	b4c0      	push	{r6, r7}
     1d8:	b085      	sub	sp, #20
     1da:	4c7a      	ldr	r4, [pc, #488]	; (3c4 <irda_communication_task+0x1f4>)
     1dc:	447c      	add	r4, pc
	uint8_t slat_address_holder;
	
	// Start this task by pinging out
	irda_comm_state = IRDA_BEACON_PING;
     1de:	4b7a      	ldr	r3, [pc, #488]	; (3c8 <irda_communication_task+0x1f8>)
     1e0:	58e3      	ldr	r3, [r4, r3]
     1e2:	9303      	str	r3, [sp, #12]
     1e4:	2301      	movs	r3, #1
     1e6:	9903      	ldr	r1, [sp, #12]
     1e8:	700b      	strb	r3, [r1, #0]
	
	while (1) {
		//port_pin_toggle_output_level(LED_BUSY);
		switch( irda_comm_state )
     1ea:	4b77      	ldr	r3, [pc, #476]	; (3c8 <irda_communication_task+0x1f8>)
     1ec:	58e7      	ldr	r7, [r4, r3]
				
				//irda_tx_array[4] = 0xCC;
				crc_generate(&irda_tx_array, 4);	// Generate the CRC byte for this packet
				
				// Reset the Sync Timer
				xTimerReset(timer_IrDA_Ping, 0);	// Reset the Ping timer immediately
     1ee:	2500      	movs	r5, #0
	_usart_wait_for_sync(module);

	switch (transceiver_type) {
		case USART_TRANSCEIVER_RX:
			/* Disable RX */
			usart_hw->CTRLB.reg &= ~SERCOM_USART_CTRLB_RXEN;
     1f0:	4a76      	ldr	r2, [pc, #472]	; (3cc <irda_communication_task+0x1fc>)
     1f2:	4690      	mov	r8, r2
	// Start this task by pinging out
	irda_comm_state = IRDA_BEACON_PING;
	
	while (1) {
		//port_pin_toggle_output_level(LED_BUSY);
		switch( irda_comm_state )
     1f4:	783b      	ldrb	r3, [r7, #0]
     1f6:	2b03      	cmp	r3, #3
     1f8:	d02f      	beq.n	25a <irda_communication_task+0x8a>
     1fa:	2b08      	cmp	r3, #8
     1fc:	d100      	bne.n	200 <irda_communication_task+0x30>
     1fe:	e080      	b.n	302 <irda_communication_task+0x132>
     200:	2b01      	cmp	r3, #1
     202:	d000      	beq.n	206 <irda_communication_task+0x36>
     204:	e0ce      	b.n	3a4 <irda_communication_task+0x1d4>
		{
			case IRDA_BEACON_PING:
				// Send out the ping and wait
				irda_tx_array[0] = 0xAA;
     206:	4b72      	ldr	r3, [pc, #456]	; (3d0 <irda_communication_task+0x200>)
     208:	58e3      	ldr	r3, [r4, r3]
     20a:	22aa      	movs	r2, #170	; 0xaa
     20c:	701a      	strb	r2, [r3, #0]
				irda_tx_array[1] = 0xAA;
     20e:	705a      	strb	r2, [r3, #1]
				irda_tx_array[2] = 0xAA;
     210:	709a      	strb	r2, [r3, #2]
				
				// Reset the Sync Timer
				xTimerReset(timer_IrDA_Ping, 0);	// Reset the Ping timer immediately
     212:	4b70      	ldr	r3, [pc, #448]	; (3d4 <irda_communication_task+0x204>)
     214:	58e3      	ldr	r3, [r4, r3]
     216:	681e      	ldr	r6, [r3, #0]
     218:	4b6f      	ldr	r3, [pc, #444]	; (3d8 <irda_communication_task+0x208>)
     21a:	58e3      	ldr	r3, [r4, r3]
     21c:	4798      	blx	r3
     21e:	1c02      	adds	r2, r0, #0
     220:	9500      	str	r5, [sp, #0]
     222:	1c30      	adds	r0, r6, #0
     224:	2102      	movs	r1, #2
     226:	1c2b      	adds	r3, r5, #0
     228:	4e6c      	ldr	r6, [pc, #432]	; (3dc <irda_communication_task+0x20c>)
     22a:	59a6      	ldr	r6, [r4, r6]
     22c:	47b0      	blx	r6
	/* Sanity check arguments */
	Assert(module);
	Assert(module->hw);

	/* Get a pointer to the hardware module instance */
	SercomUsart *const usart_hw = &(module->hw->USART);
     22e:	4b6c      	ldr	r3, [pc, #432]	; (3e0 <irda_communication_task+0x210>)
     230:	58e3      	ldr	r3, [r4, r3]
     232:	681a      	ldr	r2, [r3, #0]
	Assert(module->hw);

	SercomUsart *const usart_hw = &(module->hw->USART);

#ifdef FEATURE_USART_SYNC_SCHEME_V2
	return (usart_hw->SYNCBUSY.reg);
     234:	69d3      	ldr	r3, [r2, #28]
		const struct usart_module *const module)
{
	/* Sanity check */
	Assert(module);

	while (usart_is_syncing(module)) {
     236:	2b00      	cmp	r3, #0
     238:	d1fc      	bne.n	234 <irda_communication_task+0x64>
	_usart_wait_for_sync(module);

	switch (transceiver_type) {
		case USART_TRANSCEIVER_RX:
			/* Disable RX */
			usart_hw->CTRLB.reg &= ~SERCOM_USART_CTRLB_RXEN;
     23a:	6853      	ldr	r3, [r2, #4]
     23c:	4646      	mov	r6, r8
     23e:	4033      	ands	r3, r6
     240:	6053      	str	r3, [r2, #4]
			module->receiver_enabled = false;
     242:	4b67      	ldr	r3, [pc, #412]	; (3e0 <irda_communication_task+0x210>)
     244:	58e0      	ldr	r0, [r4, r3]
     246:	7185      	strb	r5, [r0, #6]
				usart_disable_transceiver(&irda_master, USART_TRANSCEIVER_RX);
				usart_write_buffer_job(&irda_master, irda_tx_array,3);	// Send three bytes over IR
     248:	4b61      	ldr	r3, [pc, #388]	; (3d0 <irda_communication_task+0x200>)
     24a:	58e3      	ldr	r3, [r4, r3]
     24c:	9303      	str	r3, [sp, #12]
     24e:	1c19      	adds	r1, r3, #0
     250:	2203      	movs	r2, #3
     252:	4b64      	ldr	r3, [pc, #400]	; (3e4 <irda_communication_task+0x214>)
     254:	58e3      	ldr	r3, [r4, r3]
     256:	4798      	blx	r3
			break;
     258:	e0a4      	b.n	3a4 <irda_communication_task+0x1d4>
			case IRDA_BEACON_STAGE_5:	// Stage 5 message has just been sent
				// Send out the ping and wait
				slat_address_holder = irda_rx_array[0];
     25a:	4b63      	ldr	r3, [pc, #396]	; (3e8 <irda_communication_task+0x218>)
     25c:	58e3      	ldr	r3, [r4, r3]
     25e:	7819      	ldrb	r1, [r3, #0]
     260:	4689      	mov	r9, r1
				if ( !table_access_busy && job_lookup_table[slat_address_holder][0] > 0 ) {
     262:	4b62      	ldr	r3, [pc, #392]	; (3ec <irda_communication_task+0x21c>)
     264:	58e3      	ldr	r3, [r4, r3]
     266:	9303      	str	r3, [sp, #12]
     268:	781b      	ldrb	r3, [r3, #0]
     26a:	2b00      	cmp	r3, #0
     26c:	d117      	bne.n	29e <irda_communication_task+0xce>
     26e:	4b60      	ldr	r3, [pc, #384]	; (3f0 <irda_communication_task+0x220>)
     270:	58e3      	ldr	r3, [r4, r3]
     272:	9303      	str	r3, [sp, #12]
     274:	00cb      	lsls	r3, r1, #3
     276:	9a03      	ldr	r2, [sp, #12]
     278:	5c9b      	ldrb	r3, [r3, r2]
     27a:	2b00      	cmp	r3, #0
     27c:	d00f      	beq.n	29e <irda_communication_task+0xce>
					irda_tx_array[0] = job_lookup_table[slat_address_holder][0];
     27e:	4b5c      	ldr	r3, [pc, #368]	; (3f0 <irda_communication_task+0x220>)
     280:	58e1      	ldr	r1, [r4, r3]
     282:	464b      	mov	r3, r9
     284:	00da      	lsls	r2, r3, #3
     286:	5c50      	ldrb	r0, [r2, r1]
     288:	4b51      	ldr	r3, [pc, #324]	; (3d0 <irda_communication_task+0x200>)
     28a:	58e3      	ldr	r3, [r4, r3]
     28c:	7018      	strb	r0, [r3, #0]
					irda_tx_array[1] = job_lookup_table[slat_address_holder][1];
     28e:	188a      	adds	r2, r1, r2
     290:	7851      	ldrb	r1, [r2, #1]
     292:	7059      	strb	r1, [r3, #1]
					irda_tx_array[2] = job_lookup_table[slat_address_holder][2];
     294:	7891      	ldrb	r1, [r2, #2]
     296:	7099      	strb	r1, [r3, #2]
					irda_tx_array[3] = job_lookup_table[slat_address_holder][3];
     298:	78d2      	ldrb	r2, [r2, #3]
     29a:	70da      	strb	r2, [r3, #3]
     29c:	e005      	b.n	2aa <irda_communication_task+0xda>
				} else {
					irda_tx_array[0] = 0x00;
     29e:	4b4c      	ldr	r3, [pc, #304]	; (3d0 <irda_communication_task+0x200>)
     2a0:	58e3      	ldr	r3, [r4, r3]
     2a2:	701d      	strb	r5, [r3, #0]
					irda_tx_array[1] = 0x00;
     2a4:	705d      	strb	r5, [r3, #1]
					irda_tx_array[2] = 0x00;
     2a6:	709d      	strb	r5, [r3, #2]
					irda_tx_array[3] = 0x00;	
     2a8:	70dd      	strb	r5, [r3, #3]
				}
				
				//irda_tx_array[4] = 0xCC;
				crc_generate(&irda_tx_array, 4);	// Generate the CRC byte for this packet
     2aa:	4b49      	ldr	r3, [pc, #292]	; (3d0 <irda_communication_task+0x200>)
     2ac:	58e3      	ldr	r3, [r4, r3]
     2ae:	9303      	str	r3, [sp, #12]
     2b0:	1c18      	adds	r0, r3, #0
     2b2:	2104      	movs	r1, #4
     2b4:	4b4f      	ldr	r3, [pc, #316]	; (3f4 <irda_communication_task+0x224>)
     2b6:	58e3      	ldr	r3, [r4, r3]
     2b8:	4798      	blx	r3
				
				// Reset the Sync Timer
				xTimerReset(timer_IrDA_Ping, 0);	// Reset the Ping timer immediately
     2ba:	4b46      	ldr	r3, [pc, #280]	; (3d4 <irda_communication_task+0x204>)
     2bc:	58e3      	ldr	r3, [r4, r3]
     2be:	681e      	ldr	r6, [r3, #0]
     2c0:	4b45      	ldr	r3, [pc, #276]	; (3d8 <irda_communication_task+0x208>)
     2c2:	58e3      	ldr	r3, [r4, r3]
     2c4:	4798      	blx	r3
     2c6:	1c02      	adds	r2, r0, #0
     2c8:	9500      	str	r5, [sp, #0]
     2ca:	1c30      	adds	r0, r6, #0
     2cc:	2102      	movs	r1, #2
     2ce:	1c2b      	adds	r3, r5, #0
     2d0:	4e42      	ldr	r6, [pc, #264]	; (3dc <irda_communication_task+0x20c>)
     2d2:	59a6      	ldr	r6, [r4, r6]
     2d4:	47b0      	blx	r6
	/* Sanity check arguments */
	Assert(module);
	Assert(module->hw);

	/* Get a pointer to the hardware module instance */
	SercomUsart *const usart_hw = &(module->hw->USART);
     2d6:	4b42      	ldr	r3, [pc, #264]	; (3e0 <irda_communication_task+0x210>)
     2d8:	58e3      	ldr	r3, [r4, r3]
     2da:	681a      	ldr	r2, [r3, #0]
	Assert(module->hw);

	SercomUsart *const usart_hw = &(module->hw->USART);

#ifdef FEATURE_USART_SYNC_SCHEME_V2
	return (usart_hw->SYNCBUSY.reg);
     2dc:	69d3      	ldr	r3, [r2, #28]
		const struct usart_module *const module)
{
	/* Sanity check */
	Assert(module);

	while (usart_is_syncing(module)) {
     2de:	2b00      	cmp	r3, #0
     2e0:	d1fc      	bne.n	2dc <irda_communication_task+0x10c>
	_usart_wait_for_sync(module);

	switch (transceiver_type) {
		case USART_TRANSCEIVER_RX:
			/* Disable RX */
			usart_hw->CTRLB.reg &= ~SERCOM_USART_CTRLB_RXEN;
     2e2:	6853      	ldr	r3, [r2, #4]
     2e4:	4646      	mov	r6, r8
     2e6:	4033      	ands	r3, r6
     2e8:	6053      	str	r3, [r2, #4]
			module->receiver_enabled = false;
     2ea:	4b3d      	ldr	r3, [pc, #244]	; (3e0 <irda_communication_task+0x210>)
     2ec:	58e0      	ldr	r0, [r4, r3]
     2ee:	7185      	strb	r5, [r0, #6]
				usart_disable_transceiver(&irda_master, USART_TRANSCEIVER_RX);
				usart_write_buffer_job(&irda_master, irda_tx_array,5);	// Send three bytes over IR
     2f0:	4b37      	ldr	r3, [pc, #220]	; (3d0 <irda_communication_task+0x200>)
     2f2:	58e3      	ldr	r3, [r4, r3]
     2f4:	9303      	str	r3, [sp, #12]
     2f6:	1c19      	adds	r1, r3, #0
     2f8:	2205      	movs	r2, #5
     2fa:	4b3a      	ldr	r3, [pc, #232]	; (3e4 <irda_communication_task+0x214>)
     2fc:	58e3      	ldr	r3, [r4, r3]
     2fe:	4798      	blx	r3
			break;
     300:	e050      	b.n	3a4 <irda_communication_task+0x1d4>
			case IRDA_BEACON_STAGE_9:	// Stage 5 message has just been sent
				// Send out the ping and wait
				if ( !table_access_busy && job_lookup_table[slat_address_holder][0] > 0 ) {
     302:	4b3a      	ldr	r3, [pc, #232]	; (3ec <irda_communication_task+0x21c>)
     304:	58e3      	ldr	r3, [r4, r3]
     306:	9303      	str	r3, [sp, #12]
     308:	781b      	ldrb	r3, [r3, #0]
     30a:	2b00      	cmp	r3, #0
     30c:	d119      	bne.n	342 <irda_communication_task+0x172>
     30e:	4b38      	ldr	r3, [pc, #224]	; (3f0 <irda_communication_task+0x220>)
     310:	58e3      	ldr	r3, [r4, r3]
     312:	9303      	str	r3, [sp, #12]
     314:	4649      	mov	r1, r9
     316:	00cb      	lsls	r3, r1, #3
     318:	9a03      	ldr	r2, [sp, #12]
     31a:	5c9b      	ldrb	r3, [r3, r2]
     31c:	2b00      	cmp	r3, #0
     31e:	d010      	beq.n	342 <irda_communication_task+0x172>
					irda_tx_array[0] = job_lookup_table[slat_address_holder][4];
     320:	4b33      	ldr	r3, [pc, #204]	; (3f0 <irda_communication_task+0x220>)
     322:	58e1      	ldr	r1, [r4, r3]
     324:	464b      	mov	r3, r9
     326:	00d8      	lsls	r0, r3, #3
     328:	180a      	adds	r2, r1, r0
     32a:	7916      	ldrb	r6, [r2, #4]
     32c:	4b28      	ldr	r3, [pc, #160]	; (3d0 <irda_communication_task+0x200>)
     32e:	58e3      	ldr	r3, [r4, r3]
     330:	701e      	strb	r6, [r3, #0]
					irda_tx_array[1] = job_lookup_table[slat_address_holder][5];
     332:	7956      	ldrb	r6, [r2, #5]
     334:	705e      	strb	r6, [r3, #1]
					irda_tx_array[2] = job_lookup_table[slat_address_holder][6];
     336:	7996      	ldrb	r6, [r2, #6]
     338:	709e      	strb	r6, [r3, #2]
					irda_tx_array[3] = job_lookup_table[slat_address_holder][7];
     33a:	79d2      	ldrb	r2, [r2, #7]
     33c:	70da      	strb	r2, [r3, #3]
					
					job_lookup_table[slat_address_holder][0] = 0;
     33e:	5445      	strb	r5, [r0, r1]
     340:	e005      	b.n	34e <irda_communication_task+0x17e>
				} else {
					irda_tx_array[0] = 0x00;
     342:	4b23      	ldr	r3, [pc, #140]	; (3d0 <irda_communication_task+0x200>)
     344:	58e3      	ldr	r3, [r4, r3]
     346:	701d      	strb	r5, [r3, #0]
					irda_tx_array[1] = 0x00;
     348:	705d      	strb	r5, [r3, #1]
					irda_tx_array[2] = 0x00;
     34a:	709d      	strb	r5, [r3, #2]
					irda_tx_array[3] = 0x00;
     34c:	70dd      	strb	r5, [r3, #3]
				}
				
				//irda_tx_array[4] = 0xEE;
				crc_generate(&irda_tx_array, 4);	// Generate the CRC byte for this packet
     34e:	4b20      	ldr	r3, [pc, #128]	; (3d0 <irda_communication_task+0x200>)
     350:	58e3      	ldr	r3, [r4, r3]
     352:	9303      	str	r3, [sp, #12]
     354:	1c18      	adds	r0, r3, #0
     356:	2104      	movs	r1, #4
     358:	4b26      	ldr	r3, [pc, #152]	; (3f4 <irda_communication_task+0x224>)
     35a:	58e3      	ldr	r3, [r4, r3]
     35c:	4798      	blx	r3
				//port_pin_set_output_level(LED_ERROR, pdTRUE);
			
				// Reset the Sync Timer
				xTimerReset(timer_IrDA_Ping, 0);	// Reset the Ping timer immediately
     35e:	4b1d      	ldr	r3, [pc, #116]	; (3d4 <irda_communication_task+0x204>)
     360:	58e3      	ldr	r3, [r4, r3]
     362:	681e      	ldr	r6, [r3, #0]
     364:	4b1c      	ldr	r3, [pc, #112]	; (3d8 <irda_communication_task+0x208>)
     366:	58e3      	ldr	r3, [r4, r3]
     368:	4798      	blx	r3
     36a:	1c02      	adds	r2, r0, #0
     36c:	9500      	str	r5, [sp, #0]
     36e:	1c30      	adds	r0, r6, #0
     370:	2102      	movs	r1, #2
     372:	1c2b      	adds	r3, r5, #0
     374:	4e19      	ldr	r6, [pc, #100]	; (3dc <irda_communication_task+0x20c>)
     376:	59a6      	ldr	r6, [r4, r6]
     378:	47b0      	blx	r6
	/* Sanity check arguments */
	Assert(module);
	Assert(module->hw);

	/* Get a pointer to the hardware module instance */
	SercomUsart *const usart_hw = &(module->hw->USART);
     37a:	4b19      	ldr	r3, [pc, #100]	; (3e0 <irda_communication_task+0x210>)
     37c:	58e3      	ldr	r3, [r4, r3]
     37e:	681a      	ldr	r2, [r3, #0]
	Assert(module->hw);

	SercomUsart *const usart_hw = &(module->hw->USART);

#ifdef FEATURE_USART_SYNC_SCHEME_V2
	return (usart_hw->SYNCBUSY.reg);
     380:	69d3      	ldr	r3, [r2, #28]
		const struct usart_module *const module)
{
	/* Sanity check */
	Assert(module);

	while (usart_is_syncing(module)) {
     382:	2b00      	cmp	r3, #0
     384:	d1fc      	bne.n	380 <irda_communication_task+0x1b0>
	_usart_wait_for_sync(module);

	switch (transceiver_type) {
		case USART_TRANSCEIVER_RX:
			/* Disable RX */
			usart_hw->CTRLB.reg &= ~SERCOM_USART_CTRLB_RXEN;
     386:	6853      	ldr	r3, [r2, #4]
     388:	4646      	mov	r6, r8
     38a:	4033      	ands	r3, r6
     38c:	6053      	str	r3, [r2, #4]
			module->receiver_enabled = false;
     38e:	4b14      	ldr	r3, [pc, #80]	; (3e0 <irda_communication_task+0x210>)
     390:	58e0      	ldr	r0, [r4, r3]
     392:	7185      	strb	r5, [r0, #6]
				usart_disable_transceiver(&irda_master, USART_TRANSCEIVER_RX);
				usart_write_buffer_job(&irda_master, irda_tx_array,5);	// Send three bytes over IR
     394:	4b0e      	ldr	r3, [pc, #56]	; (3d0 <irda_communication_task+0x200>)
     396:	58e3      	ldr	r3, [r4, r3]
     398:	9303      	str	r3, [sp, #12]
     39a:	1c19      	adds	r1, r3, #0
     39c:	2205      	movs	r2, #5
     39e:	4b11      	ldr	r3, [pc, #68]	; (3e4 <irda_communication_task+0x214>)
     3a0:	58e3      	ldr	r3, [r4, r3]
     3a2:	4798      	blx	r3
 *
 * Enables global interrupts in the device to fire any enabled interrupt handlers.
 */
static inline void system_interrupt_enable_global(void)
{
	cpu_irq_enable();
     3a4:	4b14      	ldr	r3, [pc, #80]	; (3f8 <irda_communication_task+0x228>)
     3a6:	58e6      	ldr	r6, [r4, r3]
     3a8:	2301      	movs	r3, #1
     3aa:	7033      	strb	r3, [r6, #0]
    This function ensures the apparent order of the explicit memory operations before
    and after the instruction, without ensuring their completion.
 */
__attribute__( ( always_inline ) ) __STATIC_INLINE void __DMB(void)
{
  __ASM volatile ("dmb");
     3ac:	f3bf 8f5f 	dmb	sy
  This function enables IRQ interrupts by clearing the I-bit in the CPSR.
  Can only be executed in Privileged modes.
 */
__attribute__( ( always_inline ) ) __STATIC_INLINE void __enable_irq(void)
{
  __ASM volatile ("cpsie i" : : : "memory");
     3b0:	b662      	cpsie	i
			break;
		}
		
		system_interrupt_enable_global();
		vTaskSuspend( NULL );
     3b2:	1c28      	adds	r0, r5, #0
     3b4:	4b11      	ldr	r3, [pc, #68]	; (3fc <irda_communication_task+0x22c>)
     3b6:	58e3      	ldr	r3, [r4, r3]
     3b8:	4798      	blx	r3
  This function disables IRQ interrupts by setting the I-bit in the CPSR.
  Can only be executed in Privileged modes.
 */
__attribute__( ( always_inline ) ) __STATIC_INLINE void __disable_irq(void)
{
  __ASM volatile ("cpsid i" : : : "memory");
     3ba:	b672      	cpsid	i
     3bc:	f3bf 8f5f 	dmb	sy
 * Disabled global interrupts in the device, preventing any enabled interrupt
 * handlers from executing.
 */
static inline void system_interrupt_disable_global(void)
{
	cpu_irq_disable();
     3c0:	7035      	strb	r5, [r6, #0]
     3c2:	e717      	b.n	1f4 <irda_communication_task+0x24>
     3c4:	0000454c 	.word	0x0000454c
     3c8:	000000d8 	.word	0x000000d8
     3cc:	fffdffff 	.word	0xfffdffff
     3d0:	000000a0 	.word	0x000000a0
     3d4:	0000014c 	.word	0x0000014c
     3d8:	000000c0 	.word	0x000000c0
     3dc:	00000138 	.word	0x00000138
     3e0:	0000013c 	.word	0x0000013c
     3e4:	00000208 	.word	0x00000208
     3e8:	00000028 	.word	0x00000028
     3ec:	000001cc 	.word	0x000001cc
     3f0:	00000180 	.word	0x00000180
     3f4:	0000016c 	.word	0x0000016c
     3f8:	00000094 	.word	0x00000094
     3fc:	00000140 	.word	0x00000140

00000400 <main>:
TaskHandle_t irda_task_handler;

//struct tc_module tc_instance;

int main(void)
{
     400:	b5f0      	push	{r4, r5, r6, r7, lr}
     402:	b089      	sub	sp, #36	; 0x24
     404:	4c2e      	ldr	r4, [pc, #184]	; (4c0 <main+0xc0>)
     406:	447c      	add	r4, pc
    /* Initialize the SAM system */
	system_init();
     408:	4b2e      	ldr	r3, [pc, #184]	; (4c4 <main+0xc4>)
     40a:	58e3      	ldr	r3, [r4, r3]
     40c:	4798      	blx	r3
	/* Sanity check arguments */
	Assert(config);

	/* Default configuration values */
	config->direction  = PORT_PIN_DIR_INPUT;
	config->input_pull = PORT_PIN_PULL_UP;
     40e:	2701      	movs	r7, #1
     410:	ad07      	add	r5, sp, #28
     412:	706f      	strb	r7, [r5, #1]
	config->powersave  = false;
     414:	2600      	movs	r6, #0
     416:	70ae      	strb	r6, [r5, #2]
	//////////////////////////////////////////////////////////////////////////
	// Set the LED outputs for this board.
	struct port_config led_out;
	port_get_config_defaults(&led_out);
	
	led_out.direction = PORT_PIN_DIR_OUTPUT;
     418:	702f      	strb	r7, [r5, #0]
	port_pin_set_config(LED_BUSY, &led_out);
     41a:	201b      	movs	r0, #27
     41c:	1c29      	adds	r1, r5, #0
     41e:	4b2a      	ldr	r3, [pc, #168]	; (4c8 <main+0xc8>)
     420:	58e3      	ldr	r3, [r4, r3]
     422:	9304      	str	r3, [sp, #16]
     424:	4798      	blx	r3
	port_pin_set_config(LED_ERROR, &led_out);
     426:	2019      	movs	r0, #25
     428:	1c29      	adds	r1, r5, #0
     42a:	9d04      	ldr	r5, [sp, #16]
     42c:	47a8      	blx	r5
	//////////////////////////////////////////////////////////////////////////
	
	//////////////////////////////////////////////////////////////////////////
	// Start the IrDA communication port
	bastian_IrDA_configuration();
     42e:	4b27      	ldr	r3, [pc, #156]	; (4cc <main+0xcc>)
     430:	58e3      	ldr	r3, [r4, r3]
     432:	4798      	blx	r3
	control_serial_setup();
     434:	4b26      	ldr	r3, [pc, #152]	; (4d0 <main+0xd0>)
     436:	58e3      	ldr	r3, [r4, r3]
     438:	4798      	blx	r3
	
	// Start the trace
	//uiTraceStart();
	
	// Create the task
	xTaskCreate(irda_communication_task,
     43a:	4b26      	ldr	r3, [pc, #152]	; (4d4 <main+0xd4>)
     43c:	58e3      	ldr	r3, [r4, r3]
     43e:	9304      	str	r3, [sp, #16]
     440:	2303      	movs	r3, #3
     442:	9300      	str	r3, [sp, #0]
     444:	4b24      	ldr	r3, [pc, #144]	; (4d8 <main+0xd8>)
     446:	58e3      	ldr	r3, [r4, r3]
     448:	9301      	str	r3, [sp, #4]
     44a:	9602      	str	r6, [sp, #8]
     44c:	9603      	str	r6, [sp, #12]
     44e:	9804      	ldr	r0, [sp, #16]
     450:	4922      	ldr	r1, [pc, #136]	; (4dc <main+0xdc>)
     452:	4479      	add	r1, pc
     454:	228c      	movs	r2, #140	; 0x8c
     456:	2300      	movs	r3, #0
     458:	4d21      	ldr	r5, [pc, #132]	; (4e0 <main+0xe0>)
     45a:	5965      	ldr	r5, [r4, r5]
     45c:	47a8      	blx	r5
 *
 * Enables global interrupts in the device to fire any enabled interrupt handlers.
 */
static inline void system_interrupt_enable_global(void)
{
	cpu_irq_enable();
     45e:	4b21      	ldr	r3, [pc, #132]	; (4e4 <main+0xe4>)
     460:	58e3      	ldr	r3, [r4, r3]
     462:	701f      	strb	r7, [r3, #0]
     464:	f3bf 8f5f 	dmb	sy
  This function enables IRQ interrupts by clearing the I-bit in the CPSR.
  Can only be executed in Privileged modes.
 */
__attribute__( ( always_inline ) ) __STATIC_INLINE void __enable_irq(void)
{
  __ASM volatile ("cpsie i" : : : "memory");
     468:	b662      	cpsie	i
	
	// Enable global interrupts
	system_interrupt_enable_global();
	
	// Create the necessary timer
	timer_IrDA_Ping = xTimerCreate("Ping", 3, pdFALSE, 0, timer_irda_ping_callback);
     46a:	4b1f      	ldr	r3, [pc, #124]	; (4e8 <main+0xe8>)
     46c:	58e3      	ldr	r3, [r4, r3]
     46e:	9300      	str	r3, [sp, #0]
     470:	481e      	ldr	r0, [pc, #120]	; (4ec <main+0xec>)
     472:	4478      	add	r0, pc
     474:	2103      	movs	r1, #3
     476:	2200      	movs	r2, #0
     478:	2300      	movs	r3, #0
     47a:	4d1d      	ldr	r5, [pc, #116]	; (4f0 <main+0xf0>)
     47c:	5965      	ldr	r5, [r4, r5]
     47e:	47a8      	blx	r5
     480:	4b1c      	ldr	r3, [pc, #112]	; (4f4 <main+0xf4>)
     482:	58e7      	ldr	r7, [r4, r3]
     484:	6038      	str	r0, [r7, #0]
	timer_IrDA_Sync = xTimerCreate("Sync", 1, pdFALSE, 1, timer_irda_sync_callback );
     486:	4b1c      	ldr	r3, [pc, #112]	; (4f8 <main+0xf8>)
     488:	58e3      	ldr	r3, [r4, r3]
     48a:	9300      	str	r3, [sp, #0]
     48c:	481b      	ldr	r0, [pc, #108]	; (4fc <main+0xfc>)
     48e:	4478      	add	r0, pc
     490:	2101      	movs	r1, #1
     492:	2200      	movs	r2, #0
     494:	2301      	movs	r3, #1
     496:	47a8      	blx	r5
     498:	4b19      	ldr	r3, [pc, #100]	; (500 <main+0x100>)
     49a:	58e3      	ldr	r3, [r4, r3]
     49c:	6018      	str	r0, [r3, #0]
	xTimerStart(timer_IrDA_Ping, 0);	// Start timer that keeps track of Linking
     49e:	683d      	ldr	r5, [r7, #0]
     4a0:	4b18      	ldr	r3, [pc, #96]	; (504 <main+0x104>)
     4a2:	58e3      	ldr	r3, [r4, r3]
     4a4:	4798      	blx	r3
     4a6:	1c02      	adds	r2, r0, #0
     4a8:	9600      	str	r6, [sp, #0]
     4aa:	1c28      	adds	r0, r5, #0
     4ac:	2101      	movs	r1, #1
     4ae:	2300      	movs	r3, #0
     4b0:	4d15      	ldr	r5, [pc, #84]	; (508 <main+0x108>)
     4b2:	5965      	ldr	r5, [r4, r5]
     4b4:	47a8      	blx	r5
	//xTimerStart(timer_IrDA_Sync, 0);	// Start ping timer
	
	// ..and let FreeRTOS run tasks!
	vTaskStartScheduler();
     4b6:	4b15      	ldr	r3, [pc, #84]	; (50c <main+0x10c>)
     4b8:	58e3      	ldr	r3, [r4, r3]
     4ba:	4798      	blx	r3
     4bc:	e7fe      	b.n	4bc <main+0xbc>
     4be:	46c0      	nop			; (mov r8, r8)
     4c0:	00004322 	.word	0x00004322
     4c4:	00000024 	.word	0x00000024
     4c8:	00000198 	.word	0x00000198
     4cc:	00000158 	.word	0x00000158
     4d0:	000000cc 	.word	0x000000cc
     4d4:	000001a8 	.word	0x000001a8
     4d8:	00000174 	.word	0x00000174
     4dc:	00004256 	.word	0x00004256
     4e0:	00000058 	.word	0x00000058
     4e4:	00000094 	.word	0x00000094
     4e8:	00000190 	.word	0x00000190
     4ec:	0000423e 	.word	0x0000423e
     4f0:	00000010 	.word	0x00000010
     4f4:	0000014c 	.word	0x0000014c
     4f8:	000001b8 	.word	0x000001b8
     4fc:	0000422a 	.word	0x0000422a
     500:	000000d4 	.word	0x000000d4
     504:	000000c0 	.word	0x000000c0
     508:	00000138 	.word	0x00000138
     50c:	000001a4 	.word	0x000001a4

00000510 <_sercom_get_sync_baud_val>:
 */
enum status_code _sercom_get_sync_baud_val(
		const uint32_t baudrate,
		const uint32_t external_clock,
		uint16_t *const baudvalue)
{
     510:	b510      	push	{r4, lr}
     512:	1c03      	adds	r3, r0, #0
	uint16_t baud_calculated = 0;
	uint32_t clock_value = external_clock;


	/* Check if baudrate is outside of valid range */
	if (baudrate > (external_clock / 2)) {
     514:	0849      	lsrs	r1, r1, #1
		/* Return with error code */
		return STATUS_ERR_BAUDRATE_UNAVAILABLE;
     516:	2040      	movs	r0, #64	; 0x40
	uint16_t baud_calculated = 0;
	uint32_t clock_value = external_clock;


	/* Check if baudrate is outside of valid range */
	if (baudrate > (external_clock / 2)) {
     518:	4299      	cmp	r1, r3
     51a:	d30c      	bcc.n	536 <_sercom_get_sync_baud_val+0x26>
     51c:	2400      	movs	r4, #0
	}

	/* Calculate BAUD value from clock frequency and baudrate */
	clock_value = external_clock / 2;
	while (clock_value >= baudrate) {
		clock_value = clock_value - baudrate;
     51e:	1ac9      	subs	r1, r1, r3
		baud_calculated++;
     520:	1c60      	adds	r0, r4, #1
     522:	b280      	uxth	r0, r0
		return STATUS_ERR_BAUDRATE_UNAVAILABLE;
	}

	/* Calculate BAUD value from clock frequency and baudrate */
	clock_value = external_clock / 2;
	while (clock_value >= baudrate) {
     524:	428b      	cmp	r3, r1
     526:	d801      	bhi.n	52c <_sercom_get_sync_baud_val+0x1c>
		clock_value = clock_value - baudrate;
		baud_calculated++;
     528:	1c04      	adds	r4, r0, #0
     52a:	e7f8      	b.n	51e <_sercom_get_sync_baud_val+0xe>

	/* Check if BAUD value is more than 255, which is maximum
	 * for synchronous mode */
	if (baud_calculated > 0xFF) {
		/* Return with an error code */
		return STATUS_ERR_BAUDRATE_UNAVAILABLE;
     52c:	2040      	movs	r0, #64	; 0x40
	}
	baud_calculated = baud_calculated - 1;

	/* Check if BAUD value is more than 255, which is maximum
	 * for synchronous mode */
	if (baud_calculated > 0xFF) {
     52e:	2cff      	cmp	r4, #255	; 0xff
     530:	d801      	bhi.n	536 <_sercom_get_sync_baud_val+0x26>
		/* Return with an error code */
		return STATUS_ERR_BAUDRATE_UNAVAILABLE;
	} else {
		*baudvalue = baud_calculated;
     532:	8014      	strh	r4, [r2, #0]
		return STATUS_OK;
     534:	2000      	movs	r0, #0
	}
}
     536:	bd10      	pop	{r4, pc}

00000538 <_sercom_get_async_baud_val>:
		const uint32_t baudrate,
		const uint32_t peripheral_clock,
		uint16_t *const baudval,
		enum sercom_asynchronous_operation_mode mode,
		enum sercom_asynchronous_sample_num sample_num)
{
     538:	b5f0      	push	{r4, r5, r6, r7, lr}
     53a:	465f      	mov	r7, fp
     53c:	4656      	mov	r6, sl
     53e:	464d      	mov	r5, r9
     540:	4644      	mov	r4, r8
     542:	b4f0      	push	{r4, r5, r6, r7}
     544:	b087      	sub	sp, #28
     546:	1c06      	adds	r6, r0, #0
     548:	1c0d      	adds	r5, r1, #0
     54a:	9204      	str	r2, [sp, #16]
     54c:	aa10      	add	r2, sp, #64	; 0x40
     54e:	7810      	ldrb	r0, [r2, #0]
     550:	4a67      	ldr	r2, [pc, #412]	; (6f0 <_sercom_get_async_baud_val+0x1b8>)
     552:	447a      	add	r2, pc
	uint8_t baud_fp;
	uint32_t baud_int = 0;
	uint64_t temp1, temp2;

	/* Check if the baudrate is outside of valid range */
	if ((baudrate * sample_num) > peripheral_clock) {
     554:	1c31      	adds	r1, r6, #0
     556:	4341      	muls	r1, r0
		/* Return with error code */
		return STATUS_ERR_BAUDRATE_UNAVAILABLE;
     558:	2440      	movs	r4, #64	; 0x40
	uint8_t baud_fp;
	uint32_t baud_int = 0;
	uint64_t temp1, temp2;

	/* Check if the baudrate is outside of valid range */
	if ((baudrate * sample_num) > peripheral_clock) {
     55a:	42a9      	cmp	r1, r5
     55c:	d900      	bls.n	560 <_sercom_get_async_baud_val+0x28>
     55e:	e0ba      	b.n	6d6 <_sercom_get_async_baud_val+0x19e>
		/* Return with error code */
		return STATUS_ERR_BAUDRATE_UNAVAILABLE;
	}

	if(mode == SERCOM_ASYNC_OPERATION_MODE_ARITHMETIC) {
     560:	2b00      	cmp	r3, #0
     562:	d14f      	bne.n	604 <_sercom_get_async_baud_val+0xcc>
		/* Calculate the BAUD value */
		temp1 = ((sample_num * (uint64_t)baudrate) << SHIFT);
     564:	4b63      	ldr	r3, [pc, #396]	; (6f4 <_sercom_get_async_baud_val+0x1bc>)
     566:	58d3      	ldr	r3, [r2, r3]
     568:	9302      	str	r3, [sp, #8]
     56a:	2100      	movs	r1, #0
     56c:	1c32      	adds	r2, r6, #0
     56e:	2300      	movs	r3, #0
     570:	9c02      	ldr	r4, [sp, #8]
     572:	47a0      	blx	r4
     574:	4683      	mov	fp, r0
		ratio = long_division(temp1, peripheral_clock);
     576:	1c2e      	adds	r6, r5, #0
     578:	2700      	movs	r7, #0
 * http://en.wikipedia.org/wiki/Division_algorithm#Long_division
 */
static uint64_t long_division(uint64_t n, uint64_t d)
{
	int32_t i;
	uint64_t q = 0, r = 0, bit_shift;
     57a:	2000      	movs	r0, #0
     57c:	2100      	movs	r1, #0
     57e:	2200      	movs	r2, #0
     580:	2300      	movs	r3, #0
	for (i = 63; i >= 0; i--) {
     582:	253f      	movs	r5, #63	; 0x3f
     584:	46ac      	mov	ip, r5
		bit_shift = (uint64_t)1 << i;
     586:	2401      	movs	r4, #1
     588:	46a0      	mov	r8, r4
     58a:	9002      	str	r0, [sp, #8]
     58c:	9103      	str	r1, [sp, #12]
     58e:	4661      	mov	r1, ip
     590:	3920      	subs	r1, #32
     592:	d403      	bmi.n	59c <_sercom_get_async_baud_val+0x64>
     594:	4645      	mov	r5, r8
     596:	408d      	lsls	r5, r1
     598:	46a9      	mov	r9, r5
     59a:	e005      	b.n	5a8 <_sercom_get_async_baud_val+0x70>
     59c:	2020      	movs	r0, #32
     59e:	4661      	mov	r1, ip
     5a0:	1a44      	subs	r4, r0, r1
     5a2:	4645      	mov	r5, r8
     5a4:	40e5      	lsrs	r5, r4
     5a6:	46a9      	mov	r9, r5
     5a8:	4640      	mov	r0, r8
     5aa:	4661      	mov	r1, ip
     5ac:	4088      	lsls	r0, r1
     5ae:	4682      	mov	sl, r0

		r = r << 1;
     5b0:	1c10      	adds	r0, r2, #0
     5b2:	1c19      	adds	r1, r3, #0
     5b4:	1880      	adds	r0, r0, r2
     5b6:	4159      	adcs	r1, r3
     5b8:	1c02      	adds	r2, r0, #0
     5ba:	1c0b      	adds	r3, r1, #0

		if (n & bit_shift) {
     5bc:	465c      	mov	r4, fp
     5be:	464d      	mov	r5, r9
     5c0:	422c      	tst	r4, r5
     5c2:	d002      	beq.n	5ca <_sercom_get_async_baud_val+0x92>
			r |= 0x01;
     5c4:	4642      	mov	r2, r8
     5c6:	4302      	orrs	r2, r0
     5c8:	1c0b      	adds	r3, r1, #0
		}

		if (r >= d) {
     5ca:	429f      	cmp	r7, r3
     5cc:	d80c      	bhi.n	5e8 <_sercom_get_async_baud_val+0xb0>
     5ce:	d101      	bne.n	5d4 <_sercom_get_async_baud_val+0x9c>
     5d0:	4296      	cmp	r6, r2
     5d2:	d809      	bhi.n	5e8 <_sercom_get_async_baud_val+0xb0>
			r = r - d;
     5d4:	1b92      	subs	r2, r2, r6
     5d6:	41bb      	sbcs	r3, r7
			q |= bit_shift;
     5d8:	4650      	mov	r0, sl
     5da:	9902      	ldr	r1, [sp, #8]
     5dc:	4308      	orrs	r0, r1
     5de:	4649      	mov	r1, r9
     5e0:	9c03      	ldr	r4, [sp, #12]
     5e2:	4321      	orrs	r1, r4
     5e4:	9002      	str	r0, [sp, #8]
     5e6:	9103      	str	r1, [sp, #12]
 */
static uint64_t long_division(uint64_t n, uint64_t d)
{
	int32_t i;
	uint64_t q = 0, r = 0, bit_shift;
	for (i = 63; i >= 0; i--) {
     5e8:	4665      	mov	r5, ip
     5ea:	3d01      	subs	r5, #1
     5ec:	46ac      	mov	ip, r5
     5ee:	d2ce      	bcs.n	58e <_sercom_get_async_baud_val+0x56>
     5f0:	9802      	ldr	r0, [sp, #8]
     5f2:	9903      	ldr	r1, [sp, #12]

	if(mode == SERCOM_ASYNC_OPERATION_MODE_ARITHMETIC) {
		/* Calculate the BAUD value */
		temp1 = ((sample_num * (uint64_t)baudrate) << SHIFT);
		ratio = long_division(temp1, peripheral_clock);
		scale = ((uint64_t)1 << SHIFT) - ratio;
     5f4:	4b3d      	ldr	r3, [pc, #244]	; (6ec <_sercom_get_async_baud_val+0x1b4>)
     5f6:	4a3c      	ldr	r2, [pc, #240]	; (6e8 <_sercom_get_async_baud_val+0x1b0>)
     5f8:	1a12      	subs	r2, r2, r0
     5fa:	418b      	sbcs	r3, r1
		baud_calculated = (65536 * scale) >> SHIFT;
     5fc:	0c11      	lsrs	r1, r2, #16
     5fe:	041b      	lsls	r3, r3, #16
     600:	4319      	orrs	r1, r3
     602:	e065      	b.n	6d0 <_sercom_get_async_baud_val+0x198>
		enum sercom_asynchronous_sample_num sample_num)
{
	/* Temporary variables  */
	uint64_t ratio = 0;
	uint64_t scale = 0;
	uint64_t baud_calculated = 0;
     604:	2100      	movs	r1, #0
		/* Calculate the BAUD value */
		temp1 = ((sample_num * (uint64_t)baudrate) << SHIFT);
		ratio = long_division(temp1, peripheral_clock);
		scale = ((uint64_t)1 << SHIFT) - ratio;
		baud_calculated = (65536 * scale) >> SHIFT;
	} else if(mode == SERCOM_ASYNC_OPERATION_MODE_FRACTIONAL) {
     606:	2b01      	cmp	r3, #1
     608:	d162      	bne.n	6d0 <_sercom_get_async_baud_val+0x198>
		for(baud_fp = 0; baud_fp < BAUD_FP_MAX; baud_fp++) {
			temp1 = BAUD_FP_MAX * (uint64_t)peripheral_clock;
     60a:	0f6c      	lsrs	r4, r5, #29
     60c:	00ed      	lsls	r5, r5, #3
     60e:	46ab      	mov	fp, r5
			temp2 = ((uint64_t)baudrate * sample_num);
     610:	4b38      	ldr	r3, [pc, #224]	; (6f4 <_sercom_get_async_baud_val+0x1bc>)
     612:	58d3      	ldr	r3, [r2, r3]
     614:	9302      	str	r3, [sp, #8]
     616:	1c32      	adds	r2, r6, #0
     618:	2300      	movs	r3, #0
     61a:	9e02      	ldr	r6, [sp, #8]
     61c:	47b0      	blx	r6
     61e:	1c06      	adds	r6, r0, #0
     620:	1c0f      	adds	r7, r1, #0
     622:	2300      	movs	r3, #0
static uint64_t long_division(uint64_t n, uint64_t d)
{
	int32_t i;
	uint64_t q = 0, r = 0, bit_shift;
	for (i = 63; i >= 0; i--) {
		bit_shift = (uint64_t)1 << i;
     624:	2501      	movs	r5, #1
			temp1 = BAUD_FP_MAX * (uint64_t)peripheral_clock;
			temp2 = ((uint64_t)baudrate * sample_num);
			baud_int = long_division(temp1, temp2);
			baud_int -= baud_fp;
			baud_int = baud_int / BAUD_FP_MAX;
			if(baud_int < BAUD_INT_MAX) {
     626:	9602      	str	r6, [sp, #8]
     628:	9703      	str	r7, [sp, #12]
     62a:	469a      	mov	sl, r3
     62c:	46a1      	mov	r9, r4
     62e:	4657      	mov	r7, sl
     630:	b2ff      	uxtb	r7, r7
     632:	9705      	str	r7, [sp, #20]
 * http://en.wikipedia.org/wiki/Division_algorithm#Long_division
 */
static uint64_t long_division(uint64_t n, uint64_t d)
{
	int32_t i;
	uint64_t q = 0, r = 0, bit_shift;
     634:	2000      	movs	r0, #0
     636:	4680      	mov	r8, r0
     638:	2200      	movs	r2, #0
     63a:	2300      	movs	r3, #0
	for (i = 63; i >= 0; i--) {
     63c:	243f      	movs	r4, #63	; 0x3f
		bit_shift = (uint64_t)1 << i;
     63e:	1c27      	adds	r7, r4, #0
     640:	3f20      	subs	r7, #32
     642:	d403      	bmi.n	64c <_sercom_get_async_baud_val+0x114>
     644:	1c29      	adds	r1, r5, #0
     646:	40b9      	lsls	r1, r7
     648:	9101      	str	r1, [sp, #4]
     64a:	e004      	b.n	656 <_sercom_get_async_baud_val+0x11e>
     64c:	2620      	movs	r6, #32
     64e:	1b37      	subs	r7, r6, r4
     650:	1c28      	adds	r0, r5, #0
     652:	40f8      	lsrs	r0, r7
     654:	9001      	str	r0, [sp, #4]
     656:	1c29      	adds	r1, r5, #0
     658:	40a1      	lsls	r1, r4
     65a:	9100      	str	r1, [sp, #0]

		r = r << 1;
     65c:	1c10      	adds	r0, r2, #0
     65e:	1c19      	adds	r1, r3, #0
     660:	1880      	adds	r0, r0, r2
     662:	4159      	adcs	r1, r3
     664:	1c02      	adds	r2, r0, #0
     666:	1c0b      	adds	r3, r1, #0

		if (n & bit_shift) {
     668:	465e      	mov	r6, fp
     66a:	9f00      	ldr	r7, [sp, #0]
     66c:	403e      	ands	r6, r7
     66e:	46b4      	mov	ip, r6
     670:	9e01      	ldr	r6, [sp, #4]
     672:	464f      	mov	r7, r9
     674:	403e      	ands	r6, r7
     676:	4667      	mov	r7, ip
     678:	433e      	orrs	r6, r7
     67a:	d002      	beq.n	682 <_sercom_get_async_baud_val+0x14a>
			r |= 0x01;
     67c:	1c2a      	adds	r2, r5, #0
     67e:	4302      	orrs	r2, r0
     680:	1c0b      	adds	r3, r1, #0
		}

		if (r >= d) {
     682:	9803      	ldr	r0, [sp, #12]
     684:	4298      	cmp	r0, r3
     686:	d80b      	bhi.n	6a0 <_sercom_get_async_baud_val+0x168>
     688:	d102      	bne.n	690 <_sercom_get_async_baud_val+0x158>
     68a:	9902      	ldr	r1, [sp, #8]
     68c:	4291      	cmp	r1, r2
     68e:	d807      	bhi.n	6a0 <_sercom_get_async_baud_val+0x168>
			r = r - d;
     690:	9e02      	ldr	r6, [sp, #8]
     692:	9f03      	ldr	r7, [sp, #12]
     694:	1b92      	subs	r2, r2, r6
     696:	41bb      	sbcs	r3, r7
			q |= bit_shift;
     698:	4647      	mov	r7, r8
     69a:	9800      	ldr	r0, [sp, #0]
     69c:	4307      	orrs	r7, r0
     69e:	46b8      	mov	r8, r7
 */
static uint64_t long_division(uint64_t n, uint64_t d)
{
	int32_t i;
	uint64_t q = 0, r = 0, bit_shift;
	for (i = 63; i >= 0; i--) {
     6a0:	3c01      	subs	r4, #1
     6a2:	d2cc      	bcs.n	63e <_sercom_get_async_baud_val+0x106>
	} else if(mode == SERCOM_ASYNC_OPERATION_MODE_FRACTIONAL) {
		for(baud_fp = 0; baud_fp < BAUD_FP_MAX; baud_fp++) {
			temp1 = BAUD_FP_MAX * (uint64_t)peripheral_clock;
			temp2 = ((uint64_t)baudrate * sample_num);
			baud_int = long_division(temp1, temp2);
			baud_int -= baud_fp;
     6a4:	4641      	mov	r1, r8
     6a6:	4652      	mov	r2, sl
     6a8:	1a8b      	subs	r3, r1, r2
			baud_int = baud_int / BAUD_FP_MAX;
     6aa:	08db      	lsrs	r3, r3, #3
			if(baud_int < BAUD_INT_MAX) {
     6ac:	4c12      	ldr	r4, [pc, #72]	; (6f8 <_sercom_get_async_baud_val+0x1c0>)
     6ae:	42a3      	cmp	r3, r4
     6b0:	d908      	bls.n	6c4 <_sercom_get_async_baud_val+0x18c>
     6b2:	9a05      	ldr	r2, [sp, #20]
     6b4:	3201      	adds	r2, #1
     6b6:	b2d2      	uxtb	r2, r2
     6b8:	9205      	str	r2, [sp, #20]
     6ba:	2601      	movs	r6, #1
     6bc:	44b2      	add	sl, r6
		temp1 = ((sample_num * (uint64_t)baudrate) << SHIFT);
		ratio = long_division(temp1, peripheral_clock);
		scale = ((uint64_t)1 << SHIFT) - ratio;
		baud_calculated = (65536 * scale) >> SHIFT;
	} else if(mode == SERCOM_ASYNC_OPERATION_MODE_FRACTIONAL) {
		for(baud_fp = 0; baud_fp < BAUD_FP_MAX; baud_fp++) {
     6be:	4657      	mov	r7, sl
     6c0:	2f08      	cmp	r7, #8
     6c2:	d1b4      	bne.n	62e <_sercom_get_async_baud_val+0xf6>
			if(baud_int < BAUD_INT_MAX) {
				break;
			}
		}
		if(baud_fp == BAUD_FP_MAX) {
			return STATUS_ERR_BAUDRATE_UNAVAILABLE;
     6c4:	2440      	movs	r4, #64	; 0x40
			baud_int = baud_int / BAUD_FP_MAX;
			if(baud_int < BAUD_INT_MAX) {
				break;
			}
		}
		if(baud_fp == BAUD_FP_MAX) {
     6c6:	9805      	ldr	r0, [sp, #20]
     6c8:	2808      	cmp	r0, #8
     6ca:	d004      	beq.n	6d6 <_sercom_get_async_baud_val+0x19e>
			return STATUS_ERR_BAUDRATE_UNAVAILABLE;
		}
		baud_calculated = baud_int | (baud_fp << 13);
     6cc:	0341      	lsls	r1, r0, #13
     6ce:	4319      	orrs	r1, r3
	}

	*baudval = baud_calculated;
     6d0:	9c04      	ldr	r4, [sp, #16]
     6d2:	8021      	strh	r1, [r4, #0]
	return STATUS_OK;
     6d4:	2400      	movs	r4, #0
}
     6d6:	1c20      	adds	r0, r4, #0
     6d8:	b007      	add	sp, #28
     6da:	bc3c      	pop	{r2, r3, r4, r5}
     6dc:	4690      	mov	r8, r2
     6de:	4699      	mov	r9, r3
     6e0:	46a2      	mov	sl, r4
     6e2:	46ab      	mov	fp, r5
     6e4:	bdf0      	pop	{r4, r5, r6, r7, pc}
     6e6:	46c0      	nop			; (mov r8, r8)
     6e8:	00000000 	.word	0x00000000
     6ec:	00000001 	.word	0x00000001
     6f0:	000041d6 	.word	0x000041d6
     6f4:	000000a4 	.word	0x000000a4
     6f8:	00001fff 	.word	0x00001fff
     6fc:	46c0      	nop			; (mov r8, r8)
     6fe:	46c0      	nop			; (mov r8, r8)

00000700 <sercom_set_gclk_generator>:
 *                                         forced.
 */
enum status_code sercom_set_gclk_generator(
		const enum gclk_generator generator_source,
		const bool force_change)
{
     700:	b530      	push	{r4, r5, lr}
     702:	b085      	sub	sp, #20
     704:	1c05      	adds	r5, r0, #0
     706:	4c12      	ldr	r4, [pc, #72]	; (750 <sercom_set_gclk_generator+0x50>)
     708:	447c      	add	r4, pc
	/* Check if valid option */
	if (!_sercom_config.generator_is_set || force_change) {
     70a:	4b12      	ldr	r3, [pc, #72]	; (754 <sercom_set_gclk_generator+0x54>)
     70c:	447b      	add	r3, pc
     70e:	781b      	ldrb	r3, [r3, #0]
     710:	2b00      	cmp	r3, #0
     712:	d001      	beq.n	718 <sercom_set_gclk_generator+0x18>
     714:	2900      	cmp	r1, #0
     716:	d010      	beq.n	73a <sercom_set_gclk_generator+0x3a>
		/* Create and fill a GCLK configuration structure for the new config */
		struct system_gclk_chan_config gclk_chan_conf;
		system_gclk_chan_get_config_defaults(&gclk_chan_conf);
		gclk_chan_conf.source_generator = generator_source;
     718:	a903      	add	r1, sp, #12
     71a:	700d      	strb	r5, [r1, #0]
		system_gclk_chan_set_config(SERCOM_GCLK_ID, &gclk_chan_conf);
     71c:	2013      	movs	r0, #19
     71e:	4b0e      	ldr	r3, [pc, #56]	; (758 <sercom_set_gclk_generator+0x58>)
     720:	58e3      	ldr	r3, [r4, r3]
     722:	4798      	blx	r3
		system_gclk_chan_enable(SERCOM_GCLK_ID);
     724:	2013      	movs	r0, #19
     726:	4b0d      	ldr	r3, [pc, #52]	; (75c <sercom_set_gclk_generator+0x5c>)
     728:	58e3      	ldr	r3, [r4, r3]
     72a:	4798      	blx	r3

		/* Save config */
		_sercom_config.generator_source = generator_source;
     72c:	4b0c      	ldr	r3, [pc, #48]	; (760 <sercom_set_gclk_generator+0x60>)
     72e:	447b      	add	r3, pc
     730:	705d      	strb	r5, [r3, #1]
		_sercom_config.generator_is_set = true;
     732:	2201      	movs	r2, #1
     734:	701a      	strb	r2, [r3, #0]

		return STATUS_OK;
     736:	2000      	movs	r0, #0
     738:	e008      	b.n	74c <sercom_set_gclk_generator+0x4c>
	} else if (generator_source == _sercom_config.generator_source) {
     73a:	4b0a      	ldr	r3, [pc, #40]	; (764 <sercom_set_gclk_generator+0x64>)
     73c:	447b      	add	r3, pc
     73e:	785a      	ldrb	r2, [r3, #1]
		/* Return status OK if same config */
		return STATUS_OK;
	}

	/* Return invalid config to already initialized GCLK */
	return STATUS_ERR_ALREADY_INITIALIZED;
     740:	201d      	movs	r0, #29
		_sercom_config.generator_is_set = true;

		return STATUS_OK;
	} else if (generator_source == _sercom_config.generator_source) {
		/* Return status OK if same config */
		return STATUS_OK;
     742:	1b55      	subs	r5, r2, r5
     744:	1e6a      	subs	r2, r5, #1
     746:	4195      	sbcs	r5, r2
     748:	426d      	negs	r5, r5
     74a:	4028      	ands	r0, r5
	}

	/* Return invalid config to already initialized GCLK */
	return STATUS_ERR_ALREADY_INITIALIZED;
}
     74c:	b005      	add	sp, #20
     74e:	bd30      	pop	{r4, r5, pc}
     750:	00004020 	.word	0x00004020
     754:	1ffffd58 	.word	0x1ffffd58
     758:	00000070 	.word	0x00000070
     75c:	0000018c 	.word	0x0000018c
     760:	1ffffd36 	.word	0x1ffffd36
     764:	1ffffd28 	.word	0x1ffffd28

00000768 <_sercom_get_default_pad>:
 *
 */
uint32_t _sercom_get_default_pad(
		Sercom *const sercom_module,
		const uint8_t pad)
{
     768:	b500      	push	{lr}
	switch ((uintptr_t)sercom_module) {
     76a:	4b28      	ldr	r3, [pc, #160]	; (80c <_sercom_get_default_pad+0xa4>)
     76c:	4298      	cmp	r0, r3
     76e:	d019      	beq.n	7a4 <_sercom_get_default_pad+0x3c>
     770:	d803      	bhi.n	77a <_sercom_get_default_pad+0x12>
     772:	4b27      	ldr	r3, [pc, #156]	; (810 <_sercom_get_default_pad+0xa8>)
     774:	4298      	cmp	r0, r3
     776:	d007      	beq.n	788 <_sercom_get_default_pad+0x20>
     778:	e03e      	b.n	7f8 <_sercom_get_default_pad+0x90>
     77a:	4b26      	ldr	r3, [pc, #152]	; (814 <_sercom_get_default_pad+0xac>)
     77c:	4298      	cmp	r0, r3
     77e:	d01f      	beq.n	7c0 <_sercom_get_default_pad+0x58>
     780:	4b25      	ldr	r3, [pc, #148]	; (818 <_sercom_get_default_pad+0xb0>)
     782:	4298      	cmp	r0, r3
     784:	d02a      	beq.n	7dc <_sercom_get_default_pad+0x74>
     786:	e037      	b.n	7f8 <_sercom_get_default_pad+0x90>
		/* Auto-generate a lookup table for the default SERCOM pad defaults */
		MREPEAT(SERCOM_INST_NUM, _SERCOM_PAD_DEFAULTS_CASE, pad)
	}

	Assert(false);
	return 0;
     788:	2000      	movs	r0, #0
		Sercom *const sercom_module,
		const uint8_t pad)
{
	switch ((uintptr_t)sercom_module) {
		/* Auto-generate a lookup table for the default SERCOM pad defaults */
		MREPEAT(SERCOM_INST_NUM, _SERCOM_PAD_DEFAULTS_CASE, pad)
     78a:	2903      	cmp	r1, #3
     78c:	d83d      	bhi.n	80a <_sercom_get_default_pad+0xa2>
     78e:	1c08      	adds	r0, r1, #0
     790:	f003 fe1e 	bl	43d0 <__gnu_thumb1_case_uqi>
     794:	06043402 	.word	0x06043402
     798:	4820      	ldr	r0, [pc, #128]	; (81c <_sercom_get_default_pad+0xb4>)
     79a:	e036      	b.n	80a <_sercom_get_default_pad+0xa2>
     79c:	4820      	ldr	r0, [pc, #128]	; (820 <_sercom_get_default_pad+0xb8>)
     79e:	e034      	b.n	80a <_sercom_get_default_pad+0xa2>
     7a0:	4820      	ldr	r0, [pc, #128]	; (824 <_sercom_get_default_pad+0xbc>)
     7a2:	e032      	b.n	80a <_sercom_get_default_pad+0xa2>
	}

	Assert(false);
	return 0;
     7a4:	2000      	movs	r0, #0
		Sercom *const sercom_module,
		const uint8_t pad)
{
	switch ((uintptr_t)sercom_module) {
		/* Auto-generate a lookup table for the default SERCOM pad defaults */
		MREPEAT(SERCOM_INST_NUM, _SERCOM_PAD_DEFAULTS_CASE, pad)
     7a6:	2903      	cmp	r1, #3
     7a8:	d82f      	bhi.n	80a <_sercom_get_default_pad+0xa2>
     7aa:	1c08      	adds	r0, r1, #0
     7ac:	f003 fe10 	bl	43d0 <__gnu_thumb1_case_uqi>
     7b0:	06042802 	.word	0x06042802
     7b4:	2003      	movs	r0, #3
     7b6:	e028      	b.n	80a <_sercom_get_default_pad+0xa2>
     7b8:	481b      	ldr	r0, [pc, #108]	; (828 <_sercom_get_default_pad+0xc0>)
     7ba:	e026      	b.n	80a <_sercom_get_default_pad+0xa2>
     7bc:	481b      	ldr	r0, [pc, #108]	; (82c <_sercom_get_default_pad+0xc4>)
     7be:	e024      	b.n	80a <_sercom_get_default_pad+0xa2>
	}

	Assert(false);
	return 0;
     7c0:	2000      	movs	r0, #0
		Sercom *const sercom_module,
		const uint8_t pad)
{
	switch ((uintptr_t)sercom_module) {
		/* Auto-generate a lookup table for the default SERCOM pad defaults */
		MREPEAT(SERCOM_INST_NUM, _SERCOM_PAD_DEFAULTS_CASE, pad)
     7c2:	2903      	cmp	r1, #3
     7c4:	d821      	bhi.n	80a <_sercom_get_default_pad+0xa2>
     7c6:	1c08      	adds	r0, r1, #0
     7c8:	f003 fe02 	bl	43d0 <__gnu_thumb1_case_uqi>
     7cc:	06041c02 	.word	0x06041c02
     7d0:	4817      	ldr	r0, [pc, #92]	; (830 <_sercom_get_default_pad+0xc8>)
     7d2:	e01a      	b.n	80a <_sercom_get_default_pad+0xa2>
     7d4:	4817      	ldr	r0, [pc, #92]	; (834 <_sercom_get_default_pad+0xcc>)
     7d6:	e018      	b.n	80a <_sercom_get_default_pad+0xa2>
     7d8:	4817      	ldr	r0, [pc, #92]	; (838 <_sercom_get_default_pad+0xd0>)
     7da:	e016      	b.n	80a <_sercom_get_default_pad+0xa2>
	}

	Assert(false);
	return 0;
     7dc:	2000      	movs	r0, #0
		Sercom *const sercom_module,
		const uint8_t pad)
{
	switch ((uintptr_t)sercom_module) {
		/* Auto-generate a lookup table for the default SERCOM pad defaults */
		MREPEAT(SERCOM_INST_NUM, _SERCOM_PAD_DEFAULTS_CASE, pad)
     7de:	2903      	cmp	r1, #3
     7e0:	d813      	bhi.n	80a <_sercom_get_default_pad+0xa2>
     7e2:	1c08      	adds	r0, r1, #0
     7e4:	f003 fdf4 	bl	43d0 <__gnu_thumb1_case_uqi>
     7e8:	06041002 	.word	0x06041002
     7ec:	4813      	ldr	r0, [pc, #76]	; (83c <_sercom_get_default_pad+0xd4>)
     7ee:	e00c      	b.n	80a <_sercom_get_default_pad+0xa2>
     7f0:	4813      	ldr	r0, [pc, #76]	; (840 <_sercom_get_default_pad+0xd8>)
     7f2:	e00a      	b.n	80a <_sercom_get_default_pad+0xa2>
     7f4:	4813      	ldr	r0, [pc, #76]	; (844 <_sercom_get_default_pad+0xdc>)
     7f6:	e008      	b.n	80a <_sercom_get_default_pad+0xa2>
	}

	Assert(false);
	return 0;
     7f8:	2000      	movs	r0, #0
     7fa:	e006      	b.n	80a <_sercom_get_default_pad+0xa2>
		Sercom *const sercom_module,
		const uint8_t pad)
{
	switch ((uintptr_t)sercom_module) {
		/* Auto-generate a lookup table for the default SERCOM pad defaults */
		MREPEAT(SERCOM_INST_NUM, _SERCOM_PAD_DEFAULTS_CASE, pad)
     7fc:	4812      	ldr	r0, [pc, #72]	; (848 <_sercom_get_default_pad+0xe0>)
     7fe:	e004      	b.n	80a <_sercom_get_default_pad+0xa2>
     800:	4812      	ldr	r0, [pc, #72]	; (84c <_sercom_get_default_pad+0xe4>)
     802:	e002      	b.n	80a <_sercom_get_default_pad+0xa2>
     804:	4812      	ldr	r0, [pc, #72]	; (850 <_sercom_get_default_pad+0xe8>)
     806:	e000      	b.n	80a <_sercom_get_default_pad+0xa2>
     808:	4812      	ldr	r0, [pc, #72]	; (854 <_sercom_get_default_pad+0xec>)
	}

	Assert(false);
	return 0;
}
     80a:	bd00      	pop	{pc}
     80c:	42000c00 	.word	0x42000c00
     810:	42000800 	.word	0x42000800
     814:	42001000 	.word	0x42001000
     818:	42001400 	.word	0x42001400
     81c:	00040003 	.word	0x00040003
     820:	00060003 	.word	0x00060003
     824:	00070003 	.word	0x00070003
     828:	001e0003 	.word	0x001e0003
     82c:	001f0003 	.word	0x001f0003
     830:	00080003 	.word	0x00080003
     834:	000a0003 	.word	0x000a0003
     838:	000b0003 	.word	0x000b0003
     83c:	00100003 	.word	0x00100003
     840:	00120003 	.word	0x00120003
     844:	00130003 	.word	0x00130003
     848:	00050003 	.word	0x00050003
     84c:	00010003 	.word	0x00010003
     850:	00090003 	.word	0x00090003
     854:	00110003 	.word	0x00110003

00000858 <_sercom_get_sercom_inst_index>:
 *
 * \return Index of given instance.
 */
uint8_t _sercom_get_sercom_inst_index(
		Sercom *const sercom_instance)
{
     858:	b570      	push	{r4, r5, r6, lr}
     85a:	b084      	sub	sp, #16
	/* Save all available SERCOM instances for compare */
	Sercom *sercom_instances[SERCOM_INST_NUM] = SERCOM_INSTS;
     85c:	4a0f      	ldr	r2, [pc, #60]	; (89c <_sercom_get_sercom_inst_index+0x44>)
     85e:	447a      	add	r2, pc
     860:	4669      	mov	r1, sp
     862:	ca70      	ldmia	r2!, {r4, r5, r6}
     864:	c170      	stmia	r1!, {r4, r5, r6}
     866:	6812      	ldr	r2, [r2, #0]
     868:	600a      	str	r2, [r1, #0]

	/* Find index for sercom instance */
	for (uint32_t i = 0; i < SERCOM_INST_NUM; i++) {
		if ((uintptr_t)sercom_instance == (uintptr_t)sercom_instances[i]) {
     86a:	1c03      	adds	r3, r0, #0
     86c:	9a00      	ldr	r2, [sp, #0]
     86e:	4282      	cmp	r2, r0
     870:	d00f      	beq.n	892 <_sercom_get_sercom_inst_index+0x3a>
     872:	9c01      	ldr	r4, [sp, #4]
     874:	4284      	cmp	r4, r0
     876:	d008      	beq.n	88a <_sercom_get_sercom_inst_index+0x32>
     878:	9d02      	ldr	r5, [sp, #8]
     87a:	4285      	cmp	r5, r0
     87c:	d007      	beq.n	88e <_sercom_get_sercom_inst_index+0x36>
		}
	}

	/* Invalid data given */
	Assert(false);
	return 0;
     87e:	2000      	movs	r0, #0
	/* Save all available SERCOM instances for compare */
	Sercom *sercom_instances[SERCOM_INST_NUM] = SERCOM_INSTS;

	/* Find index for sercom instance */
	for (uint32_t i = 0; i < SERCOM_INST_NUM; i++) {
		if ((uintptr_t)sercom_instance == (uintptr_t)sercom_instances[i]) {
     880:	9e03      	ldr	r6, [sp, #12]
     882:	429e      	cmp	r6, r3
     884:	d107      	bne.n	896 <_sercom_get_sercom_inst_index+0x3e>
{
	/* Save all available SERCOM instances for compare */
	Sercom *sercom_instances[SERCOM_INST_NUM] = SERCOM_INSTS;

	/* Find index for sercom instance */
	for (uint32_t i = 0; i < SERCOM_INST_NUM; i++) {
     886:	2003      	movs	r0, #3
     888:	e004      	b.n	894 <_sercom_get_sercom_inst_index+0x3c>
     88a:	2001      	movs	r0, #1
     88c:	e002      	b.n	894 <_sercom_get_sercom_inst_index+0x3c>
     88e:	2002      	movs	r0, #2
     890:	e000      	b.n	894 <_sercom_get_sercom_inst_index+0x3c>
     892:	2000      	movs	r0, #0
		if ((uintptr_t)sercom_instance == (uintptr_t)sercom_instances[i]) {
			return i;
     894:	b2c0      	uxtb	r0, r0
	}

	/* Invalid data given */
	Assert(false);
	return 0;
}
     896:	b004      	add	sp, #16
     898:	bd70      	pop	{r4, r5, r6, pc}
     89a:	46c0      	nop			; (mov r8, r8)
     89c:	00003e62 	.word	0x00003e62

000008a0 <irda_master_callback_received>:
//////////////////////////////////////////////////////////////////////////
////////////////////// IrDA CALLBACK FUNCTIONS ////////////////////////////
//////////////////////////////////////////////////////////////////////////
//////////////////////////////////////////////////////////////////////////
// IrDA Rx Callback Function
static void irda_master_callback_received(const struct usart_module *const module) {
     8a0:	b510      	push	{r4, lr}
     8a2:	b082      	sub	sp, #8
     8a4:	4c38      	ldr	r4, [pc, #224]	; (988 <irda_master_callback_received+0xe8>)
     8a6:	447c      	add	r4, pc
	/* Sanity check arguments */
	Assert(module);
	Assert(module->hw);

	/* Get a pointer to the hardware module instance */
	SercomUsart *const usart_hw = &(module->hw->USART);
     8a8:	4b38      	ldr	r3, [pc, #224]	; (98c <irda_master_callback_received+0xec>)
     8aa:	58e3      	ldr	r3, [r4, r3]
     8ac:	681a      	ldr	r2, [r3, #0]
	Assert(module->hw);

	SercomUsart *const usart_hw = &(module->hw->USART);

#ifdef FEATURE_USART_SYNC_SCHEME_V2
	return (usart_hw->SYNCBUSY.reg);
     8ae:	69d3      	ldr	r3, [r2, #28]
		const struct usart_module *const module)
{
	/* Sanity check */
	Assert(module);

	while (usart_is_syncing(module)) {
     8b0:	2b00      	cmp	r3, #0
     8b2:	d1fc      	bne.n	8ae <irda_master_callback_received+0xe>
	_usart_wait_for_sync(module);

	switch (transceiver_type) {
		case USART_TRANSCEIVER_RX:
			/* Disable RX */
			usart_hw->CTRLB.reg &= ~SERCOM_USART_CTRLB_RXEN;
     8b4:	6851      	ldr	r1, [r2, #4]
     8b6:	4b36      	ldr	r3, [pc, #216]	; (990 <irda_master_callback_received+0xf0>)
     8b8:	400b      	ands	r3, r1
     8ba:	6053      	str	r3, [r2, #4]
			module->receiver_enabled = false;
     8bc:	4b33      	ldr	r3, [pc, #204]	; (98c <irda_master_callback_received+0xec>)
     8be:	58e3      	ldr	r3, [r4, r3]
     8c0:	9301      	str	r3, [sp, #4]
     8c2:	2300      	movs	r3, #0
     8c4:	9901      	ldr	r1, [sp, #4]
     8c6:	718b      	strb	r3, [r1, #6]
	BaseType_t xYieldRequired; 
	
	usart_disable_transceiver(&irda_master, USART_TRANSCEIVER_RX);		// Disable the Rx Transceiver
	
	switch ( irda_comm_state )
     8c8:	4b32      	ldr	r3, [pc, #200]	; (994 <irda_master_callback_received+0xf4>)
     8ca:	58e3      	ldr	r3, [r4, r3]
     8cc:	9301      	str	r3, [sp, #4]
     8ce:	781b      	ldrb	r3, [r3, #0]
     8d0:	2b02      	cmp	r3, #2
     8d2:	d002      	beq.n	8da <irda_master_callback_received+0x3a>
     8d4:	2b04      	cmp	r3, #4
     8d6:	d035      	beq.n	944 <irda_master_callback_received+0xa4>
     8d8:	e054      	b.n	984 <irda_master_callback_received+0xe4>
	{
		case IRDA_BEACON_BACK_PING:
			if ( crc_check(&irda_rx_array, 4) )
     8da:	4b2f      	ldr	r3, [pc, #188]	; (998 <irda_master_callback_received+0xf8>)
     8dc:	58e3      	ldr	r3, [r4, r3]
     8de:	9301      	str	r3, [sp, #4]
     8e0:	1c18      	adds	r0, r3, #0
     8e2:	2104      	movs	r1, #4
     8e4:	4b2d      	ldr	r3, [pc, #180]	; (99c <irda_master_callback_received+0xfc>)
     8e6:	58e3      	ldr	r3, [r4, r3]
     8e8:	4798      	blx	r3
     8ea:	2800      	cmp	r0, #0
     8ec:	d04a      	beq.n	984 <irda_master_callback_received+0xe4>
			{
				irda_comm_state = IRDA_BEACON_STAGE_5;	// Change state to send first response
     8ee:	4b29      	ldr	r3, [pc, #164]	; (994 <irda_master_callback_received+0xf4>)
     8f0:	58e3      	ldr	r3, [r4, r3]
     8f2:	9301      	str	r3, [sp, #4]
     8f4:	2303      	movs	r3, #3
     8f6:	9a01      	ldr	r2, [sp, #4]
     8f8:	7013      	strb	r3, [r2, #0]
				//xTimerResetFromISR(timer_IrDA_Ping, 0);	// Reset the Ping timer immediately
				
				// Note that we must report from this point on
				will_report_control = true;	// Will report the following
     8fa:	4b29      	ldr	r3, [pc, #164]	; (9a0 <irda_master_callback_received+0x100>)
     8fc:	58e3      	ldr	r3, [r4, r3]
     8fe:	9301      	str	r3, [sp, #4]
     900:	2301      	movs	r3, #1
     902:	9901      	ldr	r1, [sp, #4]
     904:	700b      	strb	r3, [r1, #0]
				slat_number_report = irda_rx_array[0];
     906:	4b24      	ldr	r3, [pc, #144]	; (998 <irda_master_callback_received+0xf8>)
     908:	58e3      	ldr	r3, [r4, r3]
     90a:	781a      	ldrb	r2, [r3, #0]
     90c:	4925      	ldr	r1, [pc, #148]	; (9a4 <irda_master_callback_received+0x104>)
     90e:	5861      	ldr	r1, [r4, r1]
     910:	700a      	strb	r2, [r1, #0]
				job_number_report = irda_rx_array[1];
     912:	785a      	ldrb	r2, [r3, #1]
     914:	4924      	ldr	r1, [pc, #144]	; (9a8 <irda_master_callback_received+0x108>)
     916:	5861      	ldr	r1, [r4, r1]
     918:	700a      	strb	r2, [r1, #0]
				job_report = irda_rx_array[2];
     91a:	789a      	ldrb	r2, [r3, #2]
     91c:	4923      	ldr	r1, [pc, #140]	; (9ac <irda_master_callback_received+0x10c>)
     91e:	5861      	ldr	r1, [r4, r1]
     920:	700a      	strb	r2, [r1, #0]
				slat_health_report = irda_rx_array[3];
     922:	78db      	ldrb	r3, [r3, #3]
     924:	4a22      	ldr	r2, [pc, #136]	; (9b0 <irda_master_callback_received+0x110>)
     926:	58a2      	ldr	r2, [r4, r2]
     928:	7013      	strb	r3, [r2, #0]
								
 				xYieldRequired = xTaskResumeFromISR( irda_task_handler );
     92a:	4b22      	ldr	r3, [pc, #136]	; (9b4 <irda_master_callback_received+0x114>)
     92c:	58e3      	ldr	r3, [r4, r3]
     92e:	6818      	ldr	r0, [r3, #0]
     930:	4b21      	ldr	r3, [pc, #132]	; (9b8 <irda_master_callback_received+0x118>)
     932:	58e3      	ldr	r3, [r4, r3]
     934:	4798      	blx	r3
 				if( xYieldRequired == pdTRUE )
 				{
 					// We should switch context so the ISR returns to a different task.
 					// NOTE:  How this is done depends on the port you are using.  Check
 					// the documentation and examples for your port.
 					portYIELD_FROM_ISR(xYieldRequired);
     936:	2801      	cmp	r0, #1
     938:	d124      	bne.n	984 <irda_master_callback_received+0xe4>
     93a:	2280      	movs	r2, #128	; 0x80
     93c:	0552      	lsls	r2, r2, #21
     93e:	4b1f      	ldr	r3, [pc, #124]	; (9bc <irda_master_callback_received+0x11c>)
     940:	601a      	str	r2, [r3, #0]
     942:	e01f      	b.n	984 <irda_master_callback_received+0xe4>
 				}
			}
		break;
		case IRDA_BEACON_STAGE_5_RX:
			if ( crc_check(&irda_rx_array, 4) )
     944:	4b14      	ldr	r3, [pc, #80]	; (998 <irda_master_callback_received+0xf8>)
     946:	58e3      	ldr	r3, [r4, r3]
     948:	9301      	str	r3, [sp, #4]
     94a:	1c18      	adds	r0, r3, #0
     94c:	2104      	movs	r1, #4
     94e:	4b13      	ldr	r3, [pc, #76]	; (99c <irda_master_callback_received+0xfc>)
     950:	58e3      	ldr	r3, [r4, r3]
     952:	4798      	blx	r3
     954:	2800      	cmp	r0, #0
     956:	d015      	beq.n	984 <irda_master_callback_received+0xe4>
	PortGroup *const port_base = port_get_group_from_gpio_pin(gpio_pin);
	uint32_t pin_mask  = (1UL << (gpio_pin % 32));

	/* Set the pin to high or low atomically based on the requested level */
	if (level) {
		port_base->OUTSET.reg = pin_mask;
     958:	2280      	movs	r2, #128	; 0x80
     95a:	0492      	lsls	r2, r2, #18
     95c:	4b18      	ldr	r3, [pc, #96]	; (9c0 <irda_master_callback_received+0x120>)
     95e:	619a      	str	r2, [r3, #24]
			{
					// This LED indicates that the cards have both been synced
				port_pin_set_output_level(LED_ERROR, pdTRUE);
				
				irda_comm_state = IRDA_BEACON_STAGE_9;	// Change state to send first response
     960:	4b0c      	ldr	r3, [pc, #48]	; (994 <irda_master_callback_received+0xf4>)
     962:	58e3      	ldr	r3, [r4, r3]
     964:	9301      	str	r3, [sp, #4]
     966:	2308      	movs	r3, #8
     968:	9a01      	ldr	r2, [sp, #4]
     96a:	7013      	strb	r3, [r2, #0]
				//xTimerResetFromISR(timer_IrDA_Ping, 0);	// Reset the Ping timer immediately
				
				xYieldRequired = xTaskResumeFromISR( irda_task_handler );
     96c:	4b11      	ldr	r3, [pc, #68]	; (9b4 <irda_master_callback_received+0x114>)
     96e:	58e3      	ldr	r3, [r4, r3]
     970:	6818      	ldr	r0, [r3, #0]
     972:	4b11      	ldr	r3, [pc, #68]	; (9b8 <irda_master_callback_received+0x118>)
     974:	58e3      	ldr	r3, [r4, r3]
     976:	4798      	blx	r3
				if( xYieldRequired == pdTRUE )
				{
					// We should switch context so the ISR returns to a different task.
					// NOTE:  How this is done depends on the port you are using.  Check
					// the documentation and examples for your port.
					portYIELD_FROM_ISR(xYieldRequired);
     978:	2801      	cmp	r0, #1
     97a:	d103      	bne.n	984 <irda_master_callback_received+0xe4>
     97c:	2280      	movs	r2, #128	; 0x80
     97e:	0552      	lsls	r2, r2, #21
     980:	4b0e      	ldr	r3, [pc, #56]	; (9bc <irda_master_callback_received+0x11c>)
     982:	601a      	str	r2, [r3, #0]
				}
			}
		break;
	}
}
     984:	b002      	add	sp, #8
     986:	bd10      	pop	{r4, pc}
     988:	00003e82 	.word	0x00003e82
     98c:	0000013c 	.word	0x0000013c
     990:	fffdffff 	.word	0xfffdffff
     994:	000000d8 	.word	0x000000d8
     998:	00000028 	.word	0x00000028
     99c:	000001ec 	.word	0x000001ec
     9a0:	0000002c 	.word	0x0000002c
     9a4:	00000144 	.word	0x00000144
     9a8:	000001d8 	.word	0x000001d8
     9ac:	00000104 	.word	0x00000104
     9b0:	00000078 	.word	0x00000078
     9b4:	00000174 	.word	0x00000174
     9b8:	0000008c 	.word	0x0000008c
     9bc:	e000ed04 	.word	0xe000ed04
     9c0:	41004400 	.word	0x41004400

000009c4 <irda_master_callback_transmitted>:
// IrDA Tx Callback Function
static void irda_master_callback_transmitted(const struct usart_module *const module) {
     9c4:	b570      	push	{r4, r5, r6, lr}
     9c6:	b084      	sub	sp, #16
     9c8:	4c41      	ldr	r4, [pc, #260]	; (ad0 <irda_master_callback_transmitted+0x10c>)
     9ca:	447c      	add	r4, pc
	/* Sanity check arguments */
	Assert(module);
	Assert(module->hw);

	/* Get a pointer to the hardware module instance */
	SercomUsart *const usart_hw = &(module->hw->USART);
     9cc:	4b41      	ldr	r3, [pc, #260]	; (ad4 <irda_master_callback_transmitted+0x110>)
     9ce:	58e3      	ldr	r3, [r4, r3]
     9d0:	681b      	ldr	r3, [r3, #0]
	Assert(module->hw);

	SercomUsart *const usart_hw = &(module->hw->USART);

#ifdef FEATURE_USART_SYNC_SCHEME_V2
	return (usart_hw->SYNCBUSY.reg);
     9d2:	69da      	ldr	r2, [r3, #28]
		const struct usart_module *const module)
{
	/* Sanity check */
	Assert(module);

	while (usart_is_syncing(module)) {
     9d4:	2a00      	cmp	r2, #0
     9d6:	d1fc      	bne.n	9d2 <irda_master_callback_transmitted+0xe>
	_usart_wait_for_sync(module);

	switch (transceiver_type) {
		case USART_TRANSCEIVER_RX:
			/* Enable RX */
			usart_hw->CTRLB.reg |= SERCOM_USART_CTRLB_RXEN;
     9d8:	6859      	ldr	r1, [r3, #4]
     9da:	2280      	movs	r2, #128	; 0x80
     9dc:	0292      	lsls	r2, r2, #10
     9de:	430a      	orrs	r2, r1
     9e0:	605a      	str	r2, [r3, #4]
			module->receiver_enabled = true;
     9e2:	4a3c      	ldr	r2, [pc, #240]	; (ad4 <irda_master_callback_transmitted+0x110>)
     9e4:	58a2      	ldr	r2, [r4, r2]
     9e6:	9202      	str	r2, [sp, #8]
     9e8:	2201      	movs	r2, #1
     9ea:	9902      	ldr	r1, [sp, #8]
     9ec:	718a      	strb	r2, [r1, #6]
	Assert(module->hw);

	SercomUsart *const usart_hw = &(module->hw->USART);

#ifdef FEATURE_USART_SYNC_SCHEME_V2
	return (usart_hw->SYNCBUSY.reg);
     9ee:	69da      	ldr	r2, [r3, #28]
		const struct usart_module *const module)
{
	/* Sanity check */
	Assert(module);

	while (usart_is_syncing(module)) {
     9f0:	2a00      	cmp	r2, #0
     9f2:	d1fc      	bne.n	9ee <irda_master_callback_transmitted+0x2a>
	
	usart_enable_transceiver( &irda_master, USART_TRANSCEIVER_RX );		// Enable the Rx transceiver
	
	switch ( irda_comm_state ) {
     9f4:	4a38      	ldr	r2, [pc, #224]	; (ad8 <irda_master_callback_transmitted+0x114>)
     9f6:	58a2      	ldr	r2, [r4, r2]
     9f8:	9202      	str	r2, [sp, #8]
     9fa:	7812      	ldrb	r2, [r2, #0]
     9fc:	2a03      	cmp	r2, #3
     9fe:	d004      	beq.n	a0a <irda_master_callback_transmitted+0x46>
     a00:	2a08      	cmp	r2, #8
     a02:	d044      	beq.n	a8e <irda_master_callback_transmitted+0xca>
     a04:	2a01      	cmp	r2, #1
     a06:	d161      	bne.n	acc <irda_master_callback_transmitted+0x108>
     a08:	e020      	b.n	a4c <irda_master_callback_transmitted+0x88>
		case IRDA_BEACON_STAGE_5:	// Stage 5 message has just been sent
			irda_comm_state = IRDA_BEACON_STAGE_5_RX;
     a0a:	4b33      	ldr	r3, [pc, #204]	; (ad8 <irda_master_callback_transmitted+0x114>)
     a0c:	58e3      	ldr	r3, [r4, r3]
     a0e:	9302      	str	r3, [sp, #8]
     a10:	2304      	movs	r3, #4
     a12:	9a02      	ldr	r2, [sp, #8]
     a14:	7013      	strb	r3, [r2, #0]
			
			xTimerResetFromISR(timer_IrDA_Ping, 0);	// Reset the Ping timer immediately
     a16:	4b31      	ldr	r3, [pc, #196]	; (adc <irda_master_callback_transmitted+0x118>)
     a18:	58e3      	ldr	r3, [r4, r3]
     a1a:	681d      	ldr	r5, [r3, #0]
     a1c:	4b30      	ldr	r3, [pc, #192]	; (ae0 <irda_master_callback_transmitted+0x11c>)
     a1e:	58e3      	ldr	r3, [r4, r3]
     a20:	4798      	blx	r3
     a22:	1c02      	adds	r2, r0, #0
     a24:	2300      	movs	r3, #0
     a26:	9300      	str	r3, [sp, #0]
     a28:	1c28      	adds	r0, r5, #0
     a2a:	2107      	movs	r1, #7
     a2c:	4d2d      	ldr	r5, [pc, #180]	; (ae4 <irda_master_callback_transmitted+0x120>)
     a2e:	5965      	ldr	r5, [r4, r5]
     a30:	47a8      	blx	r5
			
			usart_read_buffer_job( &irda_master, irda_rx_array, 5);	// Attempt to receive the next 5 bytes
     a32:	4b28      	ldr	r3, [pc, #160]	; (ad4 <irda_master_callback_transmitted+0x110>)
     a34:	58e3      	ldr	r3, [r4, r3]
     a36:	9302      	str	r3, [sp, #8]
     a38:	4b2b      	ldr	r3, [pc, #172]	; (ae8 <irda_master_callback_transmitted+0x124>)
     a3a:	58e3      	ldr	r3, [r4, r3]
     a3c:	9303      	str	r3, [sp, #12]
     a3e:	9802      	ldr	r0, [sp, #8]
     a40:	1c19      	adds	r1, r3, #0
     a42:	2205      	movs	r2, #5
     a44:	4b29      	ldr	r3, [pc, #164]	; (aec <irda_master_callback_transmitted+0x128>)
     a46:	58e3      	ldr	r3, [r4, r3]
     a48:	4798      	blx	r3
		break;
     a4a:	e03f      	b.n	acc <irda_master_callback_transmitted+0x108>
		case IRDA_BEACON_PING:	// The ping has just been transmitted
			
		
			// Change the state of the machine
			irda_comm_state = IRDA_BEACON_BACK_PING;	// We are starting to wait for the Back-Ping	
     a4c:	4b22      	ldr	r3, [pc, #136]	; (ad8 <irda_master_callback_transmitted+0x114>)
     a4e:	58e3      	ldr	r3, [r4, r3]
     a50:	9302      	str	r3, [sp, #8]
     a52:	2302      	movs	r3, #2
     a54:	9d02      	ldr	r5, [sp, #8]
     a56:	702b      	strb	r3, [r5, #0]
			
			// Reset the Sync Timer
			xTimerResetFromISR( timer_IrDA_Ping, 0 );
     a58:	4b20      	ldr	r3, [pc, #128]	; (adc <irda_master_callback_transmitted+0x118>)
     a5a:	58e3      	ldr	r3, [r4, r3]
     a5c:	681d      	ldr	r5, [r3, #0]
     a5e:	4b20      	ldr	r3, [pc, #128]	; (ae0 <irda_master_callback_transmitted+0x11c>)
     a60:	58e3      	ldr	r3, [r4, r3]
     a62:	4798      	blx	r3
     a64:	1c02      	adds	r2, r0, #0
     a66:	2300      	movs	r3, #0
     a68:	9300      	str	r3, [sp, #0]
     a6a:	1c28      	adds	r0, r5, #0
     a6c:	2107      	movs	r1, #7
     a6e:	4d1d      	ldr	r5, [pc, #116]	; (ae4 <irda_master_callback_transmitted+0x120>)
     a70:	5965      	ldr	r5, [r4, r5]
     a72:	47a8      	blx	r5
			usart_read_buffer_job( &irda_master, irda_rx_array, 5);	// Attempt to receive the next 5 bytes
     a74:	4b17      	ldr	r3, [pc, #92]	; (ad4 <irda_master_callback_transmitted+0x110>)
     a76:	58e3      	ldr	r3, [r4, r3]
     a78:	9302      	str	r3, [sp, #8]
     a7a:	4b1b      	ldr	r3, [pc, #108]	; (ae8 <irda_master_callback_transmitted+0x124>)
     a7c:	58e3      	ldr	r3, [r4, r3]
     a7e:	9303      	str	r3, [sp, #12]
     a80:	9802      	ldr	r0, [sp, #8]
     a82:	1c19      	adds	r1, r3, #0
     a84:	2205      	movs	r2, #5
     a86:	4b19      	ldr	r3, [pc, #100]	; (aec <irda_master_callback_transmitted+0x128>)
     a88:	58e3      	ldr	r3, [r4, r3]
     a8a:	4798      	blx	r3
		break;
     a8c:	e01e      	b.n	acc <irda_master_callback_transmitted+0x108>
	Assert(module->hw);

	SercomUsart *const usart_hw = &(module->hw->USART);

#ifdef FEATURE_USART_SYNC_SCHEME_V2
	return (usart_hw->SYNCBUSY.reg);
     a8e:	69da      	ldr	r2, [r3, #28]
		const struct usart_module *const module)
{
	/* Sanity check */
	Assert(module);

	while (usart_is_syncing(module)) {
     a90:	2a00      	cmp	r2, #0
     a92:	d1fc      	bne.n	a8e <irda_master_callback_transmitted+0xca>
	_usart_wait_for_sync(module);

	switch (transceiver_type) {
		case USART_TRANSCEIVER_RX:
			/* Disable RX */
			usart_hw->CTRLB.reg &= ~SERCOM_USART_CTRLB_RXEN;
     a94:	6859      	ldr	r1, [r3, #4]
     a96:	4a16      	ldr	r2, [pc, #88]	; (af0 <irda_master_callback_transmitted+0x12c>)
     a98:	400a      	ands	r2, r1
     a9a:	605a      	str	r2, [r3, #4]
			module->receiver_enabled = false;
     a9c:	4b0d      	ldr	r3, [pc, #52]	; (ad4 <irda_master_callback_transmitted+0x110>)
     a9e:	58e3      	ldr	r3, [r4, r3]
     aa0:	2500      	movs	r5, #0
     aa2:	719d      	strb	r5, [r3, #6]
		case IRDA_BEACON_STAGE_9:
			// Reset the Sync Timer
			usart_disable_transceiver( &irda_master, USART_TRANSCEIVER_RX );		// Enable the Rx transceiver
			xTimerResetFromISR( timer_IrDA_Ping, 0 );
     aa4:	4b0d      	ldr	r3, [pc, #52]	; (adc <irda_master_callback_transmitted+0x118>)
     aa6:	58e3      	ldr	r3, [r4, r3]
     aa8:	681e      	ldr	r6, [r3, #0]
     aaa:	4b0d      	ldr	r3, [pc, #52]	; (ae0 <irda_master_callback_transmitted+0x11c>)
     aac:	58e3      	ldr	r3, [r4, r3]
     aae:	4798      	blx	r3
     ab0:	1c02      	adds	r2, r0, #0
     ab2:	9500      	str	r5, [sp, #0]
     ab4:	1c30      	adds	r0, r6, #0
     ab6:	2107      	movs	r1, #7
     ab8:	2300      	movs	r3, #0
     aba:	4d0a      	ldr	r5, [pc, #40]	; (ae4 <irda_master_callback_transmitted+0x120>)
     abc:	5965      	ldr	r5, [r4, r5]
     abe:	47a8      	blx	r5
			irda_comm_state = IRDA_BEACON_PING;	// We are starting to wait for the Back-Ping
     ac0:	4b05      	ldr	r3, [pc, #20]	; (ad8 <irda_master_callback_transmitted+0x114>)
     ac2:	58e3      	ldr	r3, [r4, r3]
     ac4:	9302      	str	r3, [sp, #8]
     ac6:	2301      	movs	r3, #1
     ac8:	9902      	ldr	r1, [sp, #8]
     aca:	700b      	strb	r3, [r1, #0]
		break;
	}
}
     acc:	b004      	add	sp, #16
     ace:	bd70      	pop	{r4, r5, r6, pc}
     ad0:	00003d5e 	.word	0x00003d5e
     ad4:	0000013c 	.word	0x0000013c
     ad8:	000000d8 	.word	0x000000d8
     adc:	0000014c 	.word	0x0000014c
     ae0:	00000100 	.word	0x00000100
     ae4:	00000138 	.word	0x00000138
     ae8:	00000028 	.word	0x00000028
     aec:	000001ac 	.word	0x000001ac
     af0:	fffdffff 	.word	0xfffdffff

00000af4 <bastian_IrDA_configuration>:
static void irda_master_callback_received(const struct usart_module *const module);
static void irda_master_callback_transmitted(const struct usart_module *const module);

//////////////////////////////////////////////////////////////////////////
// IrDA Port COnfiguration
void bastian_IrDA_configuration (void){
     af4:	b5f0      	push	{r4, r5, r6, r7, lr}
     af6:	b093      	sub	sp, #76	; 0x4c
     af8:	4d31      	ldr	r5, [pc, #196]	; (bc0 <bastian_IrDA_configuration+0xcc>)
     afa:	447d      	add	r5, pc
{
	/* Sanity check arguments */
	Assert(config);

	/* Set default config in the config struct */
	config->data_order       = USART_DATAORDER_LSB;
     afc:	2380      	movs	r3, #128	; 0x80
     afe:	05db      	lsls	r3, r3, #23
     b00:	9302      	str	r3, [sp, #8]
	config->transfer_mode    = USART_TRANSFER_ASYNCHRONOUSLY;
     b02:	2300      	movs	r3, #0
     b04:	aa02      	add	r2, sp, #8
     b06:	6053      	str	r3, [r2, #4]
	config->parity           = USART_PARITY_NONE;
	config->stopbits         = USART_STOPBITS_1;
     b08:	2100      	movs	r1, #0
     b0a:	7293      	strb	r3, [r2, #10]
	config->character_size   = USART_CHARACTER_SIZE_8BIT;
     b0c:	72d3      	strb	r3, [r2, #11]
	config->baudrate         = 9600;
	config->receiver_enable  = true;
     b0e:	2401      	movs	r4, #1
     b10:	2024      	movs	r0, #36	; 0x24
     b12:	5414      	strb	r4, [r2, r0]
	config->transmitter_enable = true;
     b14:	2025      	movs	r0, #37	; 0x25
     b16:	5414      	strb	r4, [r2, r0]
	config->clock_polarity_inverted = false;
     b18:	2026      	movs	r0, #38	; 0x26
     b1a:	5413      	strb	r3, [r2, r0]
	config->use_external_clock = false;
     b1c:	2027      	movs	r0, #39	; 0x27
     b1e:	5413      	strb	r3, [r2, r0]
	config->ext_clock_freq   = 0;
     b20:	6293      	str	r3, [r2, #40]	; 0x28
	config->mux_setting      = USART_RX_1_TX_2_XCK_3;
	config->run_in_standby   = false;
     b22:	202c      	movs	r0, #44	; 0x2c
     b24:	5413      	strb	r3, [r2, r0]
	config->generator_source = GCLK_GENERATOR_0;
     b26:	202d      	movs	r0, #45	; 0x2d
     b28:	5413      	strb	r3, [r2, r0]
	config->pinmux_pad0      = PINMUX_DEFAULT;
	config->pinmux_pad1      = PINMUX_DEFAULT;
	config->pinmux_pad2      = PINMUX_DEFAULT;
	config->pinmux_pad3      = PINMUX_DEFAULT;
#ifdef FEATURE_USART_OVER_SAMPLE
	config->sample_adjustment     = USART_SAMPLE_ADJUSTMENT_7_8_9;
     b2a:	6153      	str	r3, [r2, #20]
	config->sample_rate           = USART_SAMPLE_RATE_16X_ARITHMETIC;
     b2c:	8213      	strh	r3, [r2, #16]
#endif
#ifdef FEATURE_USART_LIN_SLAVE
	config->lin_slave_enable      = false;
     b2e:	2000      	movs	r0, #0
     b30:	76d0      	strb	r0, [r2, #27]
	config->lin_header_delay = LIN_MASTER_HEADER_DELAY_0;
	config->lin_break_length = LIN_MASTER_BREAK_LENGTH_13_BIT;
#endif

#ifdef FEATURE_USART_IMMEDIATE_BUFFER_OVERFLOW_NOTIFICATION
	config->immediate_buffer_overflow_notification  = false;
     b32:	7611      	strb	r1, [r2, #24]
#endif
#ifdef FEATURE_USART_START_FRAME_DECTION
	config->start_frame_detection_enable            = false;
     b34:	7711      	strb	r1, [r2, #28]
#endif
#ifdef FEATURE_USART_IRDA
	config->encoding_format_enable                  = false;
	config->receive_pulse_length                    = 19;
     b36:	2013      	movs	r0, #19
     b38:	7690      	strb	r0, [r2, #26]
	config->iso7816_config.inhibit_nack             = ISO7816_INHIBIT_NACK_DISABLE;
	config->iso7816_config.successive_recv_nack     = ISO7816_SUCCESSIVE_RECV_NACK_DISABLE;
	config->iso7816_config.max_iterations           = 7;
#endif
#ifdef FEATURE_USART_COLLISION_DECTION
	config->collision_detection_enable              = false;
     b3a:	7751      	strb	r1, [r2, #29]
	usart_get_config_defaults(&irda_conf);
	
	// Port Configuration
	irda_conf.transfer_mode = USART_TRANSFER_ASYNCHRONOUSLY;	// Asynchronous Communication Mode
	irda_conf.generator_source = GCLK_GENERATOR_0;				// Use the Generic Clock 0 as source
	irda_conf.baudrate = 115200;								// IrDA Baudrate
     b3c:	21e1      	movs	r1, #225	; 0xe1
     b3e:	0249      	lsls	r1, r1, #9
     b40:	6211      	str	r1, [r2, #32]
	irda_conf.character_size = USART_CHARACTER_SIZE_8BIT;
	irda_conf.stopbits = USART_STOPBITS_1;
	irda_conf.parity = USART_PARITY_EVEN;
     b42:	8113      	strh	r3, [r2, #8]
	irda_conf.encoding_format_enable = true;	// Enable IrDA Encoding
     b44:	7654      	strb	r4, [r2, #25]
	
	// Pin Multiplexer Settings
	irda_conf.mux_setting = USART_RX_1_TX_0_XCK_1;
     b46:	2380      	movs	r3, #128	; 0x80
     b48:	035b      	lsls	r3, r3, #13
     b4a:	60d3      	str	r3, [r2, #12]
	irda_conf.pinmux_pad0 = PINMUX_PA22C_SERCOM3_PAD0;
     b4c:	4b1d      	ldr	r3, [pc, #116]	; (bc4 <bastian_IrDA_configuration+0xd0>)
     b4e:	6313      	str	r3, [r2, #48]	; 0x30
	irda_conf.pinmux_pad1 = PINMUX_PA23C_SERCOM3_PAD1;
     b50:	4b1d      	ldr	r3, [pc, #116]	; (bc8 <bastian_IrDA_configuration+0xd4>)
     b52:	6353      	str	r3, [r2, #52]	; 0x34
	irda_conf.pinmux_pad2 = PINMUX_UNUSED;
     b54:	2301      	movs	r3, #1
     b56:	425b      	negs	r3, r3
     b58:	6393      	str	r3, [r2, #56]	; 0x38
	irda_conf.pinmux_pad3 = PINMUX_UNUSED;
     b5a:	63d3      	str	r3, [r2, #60]	; 0x3c

	// Initialize the previous settings
	usart_init((struct usart_module*) &irda_master, SERCOM3, &irda_conf);
     b5c:	4b1b      	ldr	r3, [pc, #108]	; (bcc <bastian_IrDA_configuration+0xd8>)
     b5e:	58ef      	ldr	r7, [r5, r3]
     b60:	1c38      	adds	r0, r7, #0
     b62:	491b      	ldr	r1, [pc, #108]	; (bd0 <bastian_IrDA_configuration+0xdc>)
     b64:	4b1b      	ldr	r3, [pc, #108]	; (bd4 <bastian_IrDA_configuration+0xe0>)
     b66:	58eb      	ldr	r3, [r5, r3]
     b68:	4798      	blx	r3
	/* Sanity check arguments */
	Assert(module);
	Assert(module->hw);

	/* Get a pointer to the hardware module instance */
	SercomUsart *const usart_hw = &(module->hw->USART);
     b6a:	683e      	ldr	r6, [r7, #0]

#if USART_CALLBACK_MODE == true
	/* Enable Global interrupt for module */
	system_interrupt_enable(_sercom_get_interrupt_vector(module->hw));
     b6c:	1c30      	adds	r0, r6, #0
     b6e:	4b1a      	ldr	r3, [pc, #104]	; (bd8 <bastian_IrDA_configuration+0xe4>)
     b70:	58eb      	ldr	r3, [r5, r3]
     b72:	4798      	blx	r3
 * \param[in] vector Interrupt vector to enable
 */
static inline void system_interrupt_enable(
		const enum system_interrupt_vector vector)
{
	NVIC->ISER[0] = (uint32_t)(1 << ((uint32_t)vector & 0x0000001f));
     b74:	231f      	movs	r3, #31
     b76:	4018      	ands	r0, r3
     b78:	4084      	lsls	r4, r0
     b7a:	4b18      	ldr	r3, [pc, #96]	; (bdc <bastian_IrDA_configuration+0xe8>)
     b7c:	601c      	str	r4, [r3, #0]
{
	/* Sanity check arguments */
	Assert(module);
	Assert(module->hw);

	SercomUsart *const usart_hw = &(module->hw->USART);
     b7e:	683a      	ldr	r2, [r7, #0]

#ifdef FEATURE_USART_SYNC_SCHEME_V2
	return (usart_hw->SYNCBUSY.reg);
     b80:	69d3      	ldr	r3, [r2, #28]
		const struct usart_module *const module)
{
	/* Sanity check */
	Assert(module);

	while (usart_is_syncing(module)) {
     b82:	2b00      	cmp	r3, #0
     b84:	d1fc      	bne.n	b80 <bastian_IrDA_configuration+0x8c>

	/* Wait until synchronization is complete */
	_usart_wait_for_sync(module);

	/* Enable USART module */
	usart_hw->CTRLA.reg |= SERCOM_USART_CTRLA_ENABLE;
     b86:	6832      	ldr	r2, [r6, #0]
     b88:	2302      	movs	r3, #2
     b8a:	4313      	orrs	r3, r2
     b8c:	6033      	str	r3, [r6, #0]

	// Enable the module
	usart_enable((struct usart_module*) &irda_master);

	// ******** Callback setup
	usart_register_callback((struct usart_module*) &irda_master, (usart_callback_t)irda_master_callback_received, USART_CALLBACK_BUFFER_RECEIVED);
     b8e:	4b0f      	ldr	r3, [pc, #60]	; (bcc <bastian_IrDA_configuration+0xd8>)
     b90:	58ec      	ldr	r4, [r5, r3]
     b92:	1c20      	adds	r0, r4, #0
     b94:	4912      	ldr	r1, [pc, #72]	; (be0 <bastian_IrDA_configuration+0xec>)
     b96:	4479      	add	r1, pc
     b98:	2201      	movs	r2, #1
     b9a:	4b12      	ldr	r3, [pc, #72]	; (be4 <bastian_IrDA_configuration+0xf0>)
     b9c:	58ee      	ldr	r6, [r5, r3]
     b9e:	47b0      	blx	r6
{
	/* Sanity check arguments */
	Assert(module);

	/* Enable callback */
	module->callback_enable_mask |= (1 << callback_type);
     ba0:	2531      	movs	r5, #49	; 0x31
     ba2:	5d62      	ldrb	r2, [r4, r5]
     ba4:	2302      	movs	r3, #2
     ba6:	4313      	orrs	r3, r2
     ba8:	5563      	strb	r3, [r4, r5]
	usart_enable_callback((struct usart_module*) &irda_master, USART_CALLBACK_BUFFER_RECEIVED);

	usart_register_callback((struct usart_module*) &irda_master, (usart_callback_t)irda_master_callback_transmitted, USART_CALLBACK_BUFFER_TRANSMITTED);
     baa:	1c20      	adds	r0, r4, #0
     bac:	490e      	ldr	r1, [pc, #56]	; (be8 <bastian_IrDA_configuration+0xf4>)
     bae:	4479      	add	r1, pc
     bb0:	2200      	movs	r2, #0
     bb2:	47b0      	blx	r6
     bb4:	5d62      	ldrb	r2, [r4, r5]
     bb6:	2301      	movs	r3, #1
     bb8:	4313      	orrs	r3, r2
     bba:	5563      	strb	r3, [r4, r5]
	usart_enable_callback((struct usart_module*) &irda_master, USART_CALLBACK_BUFFER_TRANSMITTED);
}
     bbc:	b013      	add	sp, #76	; 0x4c
     bbe:	bdf0      	pop	{r4, r5, r6, r7, pc}
     bc0:	00003c2e 	.word	0x00003c2e
     bc4:	00160002 	.word	0x00160002
     bc8:	00170002 	.word	0x00170002
     bcc:	0000013c 	.word	0x0000013c
     bd0:	42001400 	.word	0x42001400
     bd4:	00000150 	.word	0x00000150
     bd8:	00000068 	.word	0x00000068
     bdc:	e000e100 	.word	0xe000e100
     be0:	fffffd07 	.word	0xfffffd07
     be4:	00000008 	.word	0x00000008
     be8:	fffffe13 	.word	0xfffffe13

00000bec <control_callback_transmitted>:
	}	
}
// IrDA Tx Callback Function
static void control_callback_transmitted(const struct usart_module *const module) {
	
}
     bec:	4770      	bx	lr
     bee:	46c0      	nop			; (mov r8, r8)

00000bf0 <controls_communcation_tx_task>:
}

//////////////////////////////////////////////////////////////////////////
//	Control Task Handler
// TX task handler
void controls_communcation_tx_task( void ) {
     bf0:	b5f0      	push	{r4, r5, r6, r7, lr}
     bf2:	4657      	mov	r7, sl
     bf4:	464e      	mov	r6, r9
     bf6:	4645      	mov	r5, r8
     bf8:	b4e0      	push	{r5, r6, r7}
     bfa:	b084      	sub	sp, #16
     bfc:	4c36      	ldr	r4, [pc, #216]	; (cd8 <controls_communcation_tx_task+0xe8>)
     bfe:	447c      	add	r4, pc
		// Initialize this task
	control_tx_status = CONTROL_TX_SENDING_PING;	// The first thing that we do, is send the ping
     c00:	4b36      	ldr	r3, [pc, #216]	; (cdc <controls_communcation_tx_task+0xec>)
     c02:	58e3      	ldr	r3, [r4, r3]
     c04:	9302      	str	r3, [sp, #8]
     c06:	2301      	movs	r3, #1
     c08:	9a02      	ldr	r2, [sp, #8]
     c0a:	7013      	strb	r3, [r2, #0]
	will_report_control = false;
     c0c:	4b34      	ldr	r3, [pc, #208]	; (ce0 <controls_communcation_tx_task+0xf0>)
     c0e:	58e3      	ldr	r3, [r4, r3]
     c10:	9302      	str	r3, [sp, #8]
     c12:	2300      	movs	r3, #0
     c14:	9e02      	ldr	r6, [sp, #8]
     c16:	7033      	strb	r3, [r6, #0]
	
	for (;;) {	// Loop forever
		// Send a sample ping :
		// Change the nature of the data to be sent depending on the type of data that needs to be transmitted
			// Check if we are going to send a report or a regular ping
		if ( will_report_control ) {
     c18:	4b31      	ldr	r3, [pc, #196]	; (ce0 <controls_communcation_tx_task+0xf0>)
     c1a:	58e7      	ldr	r7, [r4, r3]
     c1c:	46ba      	mov	sl, r7
			will_report_control = false;	
			
			xTimerReset(control_tx_timer, 0);
			usart_write_buffer_job(&control_serial, control_tx_buffer, 4);
		} else {
			control_tx_buffer[0] = 0xDE;	
     c1e:	22de      	movs	r2, #222	; 0xde
     c20:	4690      	mov	r8, r2
			
			xTimerReset(control_tx_timer, 0);
     c22:	2500      	movs	r5, #0
	
	for (;;) {	// Loop forever
		// Send a sample ping :
		// Change the nature of the data to be sent depending on the type of data that needs to be transmitted
			// Check if we are going to send a report or a regular ping
		if ( will_report_control ) {
     c24:	4656      	mov	r6, sl
     c26:	7833      	ldrb	r3, [r6, #0]
     c28:	2b00      	cmp	r3, #0
     c2a:	d034      	beq.n	c96 <controls_communcation_tx_task+0xa6>
			control_tx_buffer[0] = slat_number_report;
     c2c:	4b2d      	ldr	r3, [pc, #180]	; (ce4 <controls_communcation_tx_task+0xf4>)
     c2e:	58e3      	ldr	r3, [r4, r3]
     c30:	9302      	str	r3, [sp, #8]
     c32:	781b      	ldrb	r3, [r3, #0]
     c34:	b2db      	uxtb	r3, r3
     c36:	4a2c      	ldr	r2, [pc, #176]	; (ce8 <controls_communcation_tx_task+0xf8>)
     c38:	58a6      	ldr	r6, [r4, r2]
     c3a:	7033      	strb	r3, [r6, #0]
			control_tx_buffer[1] = job_number_report;
     c3c:	4b2b      	ldr	r3, [pc, #172]	; (cec <controls_communcation_tx_task+0xfc>)
     c3e:	58e3      	ldr	r3, [r4, r3]
     c40:	9302      	str	r3, [sp, #8]
     c42:	781b      	ldrb	r3, [r3, #0]
     c44:	b2db      	uxtb	r3, r3
     c46:	7073      	strb	r3, [r6, #1]
			control_tx_buffer[2] = job_report;
     c48:	4b29      	ldr	r3, [pc, #164]	; (cf0 <controls_communcation_tx_task+0x100>)
     c4a:	58e3      	ldr	r3, [r4, r3]
     c4c:	9302      	str	r3, [sp, #8]
     c4e:	781b      	ldrb	r3, [r3, #0]
     c50:	b2db      	uxtb	r3, r3
     c52:	70b3      	strb	r3, [r6, #2]
			control_tx_buffer[3] = slat_health_report;	// Status of the motor
     c54:	4b27      	ldr	r3, [pc, #156]	; (cf4 <controls_communcation_tx_task+0x104>)
     c56:	58e3      	ldr	r3, [r4, r3]
     c58:	9302      	str	r3, [sp, #8]
     c5a:	781b      	ldrb	r3, [r3, #0]
     c5c:	b2db      	uxtb	r3, r3
     c5e:	70f3      	strb	r3, [r6, #3]
			
			will_report_control = false;	
     c60:	4b1f      	ldr	r3, [pc, #124]	; (ce0 <controls_communcation_tx_task+0xf0>)
     c62:	58e3      	ldr	r3, [r4, r3]
     c64:	701d      	strb	r5, [r3, #0]
			
			xTimerReset(control_tx_timer, 0);
     c66:	4b24      	ldr	r3, [pc, #144]	; (cf8 <controls_communcation_tx_task+0x108>)
     c68:	58e3      	ldr	r3, [r4, r3]
     c6a:	681f      	ldr	r7, [r3, #0]
     c6c:	4b23      	ldr	r3, [pc, #140]	; (cfc <controls_communcation_tx_task+0x10c>)
     c6e:	58e3      	ldr	r3, [r4, r3]
     c70:	4798      	blx	r3
     c72:	1c02      	adds	r2, r0, #0
     c74:	9500      	str	r5, [sp, #0]
     c76:	1c38      	adds	r0, r7, #0
     c78:	2102      	movs	r1, #2
     c7a:	1c2b      	adds	r3, r5, #0
     c7c:	4f20      	ldr	r7, [pc, #128]	; (d00 <controls_communcation_tx_task+0x110>)
     c7e:	59e7      	ldr	r7, [r4, r7]
     c80:	47b8      	blx	r7
			usart_write_buffer_job(&control_serial, control_tx_buffer, 4);
     c82:	4b20      	ldr	r3, [pc, #128]	; (d04 <controls_communcation_tx_task+0x114>)
     c84:	58e3      	ldr	r3, [r4, r3]
     c86:	9302      	str	r3, [sp, #8]
     c88:	1c18      	adds	r0, r3, #0
     c8a:	1c31      	adds	r1, r6, #0
     c8c:	2204      	movs	r2, #4
     c8e:	4b1e      	ldr	r3, [pc, #120]	; (d08 <controls_communcation_tx_task+0x118>)
     c90:	58e3      	ldr	r3, [r4, r3]
     c92:	4798      	blx	r3
     c94:	e01a      	b.n	ccc <controls_communcation_tx_task+0xdc>
		} else {
			control_tx_buffer[0] = 0xDE;	
     c96:	4b14      	ldr	r3, [pc, #80]	; (ce8 <controls_communcation_tx_task+0xf8>)
     c98:	58e7      	ldr	r7, [r4, r3]
     c9a:	4642      	mov	r2, r8
     c9c:	703a      	strb	r2, [r7, #0]
			
			xTimerReset(control_tx_timer, 0);
     c9e:	4b16      	ldr	r3, [pc, #88]	; (cf8 <controls_communcation_tx_task+0x108>)
     ca0:	58e3      	ldr	r3, [r4, r3]
     ca2:	681e      	ldr	r6, [r3, #0]
     ca4:	4b15      	ldr	r3, [pc, #84]	; (cfc <controls_communcation_tx_task+0x10c>)
     ca6:	58e3      	ldr	r3, [r4, r3]
     ca8:	4798      	blx	r3
     caa:	1c02      	adds	r2, r0, #0
     cac:	9500      	str	r5, [sp, #0]
     cae:	1c30      	adds	r0, r6, #0
     cb0:	2102      	movs	r1, #2
     cb2:	1c2b      	adds	r3, r5, #0
     cb4:	4e12      	ldr	r6, [pc, #72]	; (d00 <controls_communcation_tx_task+0x110>)
     cb6:	59a6      	ldr	r6, [r4, r6]
     cb8:	47b0      	blx	r6
			usart_write_buffer_job(&control_serial, control_tx_buffer, 1);
     cba:	4b12      	ldr	r3, [pc, #72]	; (d04 <controls_communcation_tx_task+0x114>)
     cbc:	58e3      	ldr	r3, [r4, r3]
     cbe:	9303      	str	r3, [sp, #12]
     cc0:	1c18      	adds	r0, r3, #0
     cc2:	1c39      	adds	r1, r7, #0
     cc4:	2201      	movs	r2, #1
     cc6:	4b10      	ldr	r3, [pc, #64]	; (d08 <controls_communcation_tx_task+0x118>)
     cc8:	58e3      	ldr	r3, [r4, r3]
     cca:	4798      	blx	r3
		}
		
		vTaskSuspend( NULL );	// Suspend myself right now
     ccc:	1c28      	adds	r0, r5, #0
     cce:	4b0f      	ldr	r3, [pc, #60]	; (d0c <controls_communcation_tx_task+0x11c>)
     cd0:	58e3      	ldr	r3, [r4, r3]
     cd2:	4798      	blx	r3
	}
     cd4:	e7a6      	b.n	c24 <controls_communcation_tx_task+0x34>
     cd6:	46c0      	nop			; (mov r8, r8)
     cd8:	00003b2a 	.word	0x00003b2a
     cdc:	000000d0 	.word	0x000000d0
     ce0:	0000002c 	.word	0x0000002c
     ce4:	00000144 	.word	0x00000144
     ce8:	00000074 	.word	0x00000074
     cec:	000001d8 	.word	0x000001d8
     cf0:	00000104 	.word	0x00000104
     cf4:	00000078 	.word	0x00000078
     cf8:	000001c4 	.word	0x000001c4
     cfc:	000000c0 	.word	0x000000c0
     d00:	00000138 	.word	0x00000138
     d04:	00000128 	.word	0x00000128
     d08:	00000208 	.word	0x00000208
     d0c:	00000140 	.word	0x00000140

00000d10 <controls_communcation_rx_task>:
}
// RX Task Handler
void controls_communcation_rx_task( void ) {
     d10:	b5f0      	push	{r4, r5, r6, r7, lr}
     d12:	465f      	mov	r7, fp
     d14:	4656      	mov	r6, sl
     d16:	464d      	mov	r5, r9
     d18:	4644      	mov	r4, r8
     d1a:	b4f0      	push	{r4, r5, r6, r7}
     d1c:	b087      	sub	sp, #28
     d1e:	4d88      	ldr	r5, [pc, #544]	; (f40 <controls_communcation_rx_task+0x230>)
     d20:	447d      	add	r5, pc
	uint8_t i, current_slat;
	uint8_t subsequent_slats;
	
	// Initialize this task
		control_rx_status = CONTROL_RX_GETTING_FB;
     d22:	4b88      	ldr	r3, [pc, #544]	; (f44 <controls_communcation_rx_task+0x234>)
     d24:	58eb      	ldr	r3, [r5, r3]
     d26:	9303      	str	r3, [sp, #12]
     d28:	2301      	movs	r3, #1
     d2a:	9903      	ldr	r1, [sp, #12]
     d2c:	700b      	strb	r3, [r1, #0]
		table_access_busy = false;
     d2e:	4b86      	ldr	r3, [pc, #536]	; (f48 <controls_communcation_rx_task+0x238>)
     d30:	58eb      	ldr	r3, [r5, r3]
     d32:	9303      	str	r3, [sp, #12]
     d34:	2300      	movs	r3, #0
     d36:	9a03      	ldr	r2, [sp, #12]
     d38:	7013      	strb	r3, [r2, #0]
	
	for (;;) {	// Loop forever
		// Send a sample ping
		switch ( control_rx_status ) {
     d3a:	4b82      	ldr	r3, [pc, #520]	; (f44 <controls_communcation_rx_task+0x234>)
     d3c:	58ec      	ldr	r4, [r5, r3]
     d3e:	46a2      	mov	sl, r4
				control_rx_buffer[14] = control_rx_buffer[13];
				
				control_rx_status = CONTROL_RX_GETTING_FB;
			case CONTROL_RX_GETTING_FB:
				// Reset the timer for this byte reception
				xTimerReset( control_rx_timer, 0 );
     d40:	2700      	movs	r7, #0
		control_rx_status = CONTROL_RX_GETTING_FB;
		table_access_busy = false;
	
	for (;;) {	// Loop forever
		// Send a sample ping
		switch ( control_rx_status ) {
     d42:	4656      	mov	r6, sl
     d44:	7833      	ldrb	r3, [r6, #0]
     d46:	b2db      	uxtb	r3, r3
     d48:	2b01      	cmp	r3, #1
     d4a:	d100      	bne.n	d4e <controls_communcation_rx_task+0x3e>
     d4c:	e0d8      	b.n	f00 <controls_communcation_rx_task+0x1f0>
     d4e:	2b10      	cmp	r3, #16
     d50:	d000      	beq.n	d54 <controls_communcation_rx_task+0x44>
     d52:	e0ef      	b.n	f34 <controls_communcation_rx_task+0x224>
			case CONTROL_RX_PROCESSING_PACKAGE:
					// Data has been received and is ready to be processed
					
					// First set the flag that indicates database access
				table_access_busy = true;
     d54:	4b7c      	ldr	r3, [pc, #496]	; (f48 <controls_communcation_rx_task+0x238>)
     d56:	58eb      	ldr	r3, [r5, r3]
     d58:	9303      	str	r3, [sp, #12]
     d5a:	2301      	movs	r3, #1
     d5c:	9903      	ldr	r1, [sp, #12]
     d5e:	700b      	strb	r3, [r1, #0]
					// Next, check if the number of the indicated slat is correct
				if ( control_rx_buffer[ 1 ] > 0 && control_rx_buffer[ 1 ] < NUMBER_OF_SLATS + 1 ) {	// 0 < ss < 72 (in this case)
     d60:	4b7a      	ldr	r3, [pc, #488]	; (f4c <controls_communcation_rx_task+0x23c>)
     d62:	58eb      	ldr	r3, [r5, r3]
     d64:	9303      	str	r3, [sp, #12]
     d66:	785b      	ldrb	r3, [r3, #1]
     d68:	2b00      	cmp	r3, #0
     d6a:	d100      	bne.n	d6e <controls_communcation_rx_task+0x5e>
     d6c:	e0ba      	b.n	ee4 <controls_communcation_rx_task+0x1d4>
     d6e:	4b77      	ldr	r3, [pc, #476]	; (f4c <controls_communcation_rx_task+0x23c>)
     d70:	58eb      	ldr	r3, [r5, r3]
     d72:	9303      	str	r3, [sp, #12]
     d74:	785b      	ldrb	r3, [r3, #1]
     d76:	b2db      	uxtb	r3, r3
     d78:	2b48      	cmp	r3, #72	; 0x48
     d7a:	d900      	bls.n	d7e <controls_communcation_rx_task+0x6e>
     d7c:	e0b2      	b.n	ee4 <controls_communcation_rx_task+0x1d4>
					current_slat = control_rx_buffer[1];	// Initialize the current slat counter/variable
     d7e:	4b73      	ldr	r3, [pc, #460]	; (f4c <controls_communcation_rx_task+0x23c>)
     d80:	58eb      	ldr	r3, [r5, r3]
     d82:	7858      	ldrb	r0, [r3, #1]
     d84:	b2c0      	uxtb	r0, r0
					
					// Iterate on the number of slats to be affected
					if ( control_rx_buffer[ 2 ] < 2 ) subsequent_slats = 1;
     d86:	789b      	ldrb	r3, [r3, #2]
     d88:	b2db      	uxtb	r3, r3
     d8a:	2b01      	cmp	r3, #1
     d8c:	d812      	bhi.n	db4 <controls_communcation_rx_task+0xa4>
     d8e:	2201      	movs	r2, #1
     d90:	4690      	mov	r8, r2
     d92:	4b6f      	ldr	r3, [pc, #444]	; (f50 <controls_communcation_rx_task+0x240>)
     d94:	58eb      	ldr	r3, [r5, r3]
     d96:	881b      	ldrh	r3, [r3, #0]
     d98:	469b      	mov	fp, r3
     d9a:	4b6e      	ldr	r3, [pc, #440]	; (f54 <controls_communcation_rx_task+0x244>)
     d9c:	58eb      	ldr	r3, [r5, r3]
     d9e:	881c      	ldrh	r4, [r3, #0]
     da0:	46a1      	mov	r9, r4
     da2:	4b6d      	ldr	r3, [pc, #436]	; (f58 <controls_communcation_rx_task+0x248>)
     da4:	58eb      	ldr	r3, [r5, r3]
     da6:	781e      	ldrb	r6, [r3, #0]
     da8:	9605      	str	r6, [sp, #20]
     daa:	1c3c      	adds	r4, r7, #0
						
							// Modulate the number of the slat if needed
						if ( current_slat > NUMBER_OF_SLATS ) current_slat = current_slat % NUMBER_OF_SLATS;
						
							// Check the case if the job number is zero (deleting record)
						if ( control_rx_buffer[3] == 0 && 
     dac:	4b67      	ldr	r3, [pc, #412]	; (f4c <controls_communcation_rx_task+0x23c>)
     dae:	58eb      	ldr	r3, [r5, r3]
     db0:	9304      	str	r3, [sp, #16]
     db2:	e008      	b.n	dc6 <controls_communcation_rx_task+0xb6>
				if ( control_rx_buffer[ 1 ] > 0 && control_rx_buffer[ 1 ] < NUMBER_OF_SLATS + 1 ) {	// 0 < ss < 72 (in this case)
					current_slat = control_rx_buffer[1];	// Initialize the current slat counter/variable
					
					// Iterate on the number of slats to be affected
					if ( control_rx_buffer[ 2 ] < 2 ) subsequent_slats = 1;
					else subsequent_slats = control_rx_buffer[ 2 ];
     db4:	4b65      	ldr	r3, [pc, #404]	; (f4c <controls_communcation_rx_task+0x23c>)
     db6:	58eb      	ldr	r3, [r5, r3]
     db8:	9303      	str	r3, [sp, #12]
     dba:	789b      	ldrb	r3, [r3, #2]
     dbc:	b2db      	uxtb	r3, r3
     dbe:	4698      	mov	r8, r3
					
					for ( i=0; i < subsequent_slats; i++ ) {
     dc0:	2b00      	cmp	r3, #0
     dc2:	d1e6      	bne.n	d92 <controls_communcation_rx_task+0x82>
     dc4:	e08e      	b.n	ee4 <controls_communcation_rx_task+0x1d4>
						current_slat = current_slat + i;	// Fix the slat to be operated on
     dc6:	1900      	adds	r0, r0, r4
     dc8:	b2c0      	uxtb	r0, r0
						
							// Modulate the number of the slat if needed
						if ( current_slat > NUMBER_OF_SLATS ) current_slat = current_slat % NUMBER_OF_SLATS;
     dca:	2848      	cmp	r0, #72	; 0x48
     dcc:	d904      	bls.n	dd8 <controls_communcation_rx_task+0xc8>
     dce:	4b63      	ldr	r3, [pc, #396]	; (f5c <controls_communcation_rx_task+0x24c>)
     dd0:	58eb      	ldr	r3, [r5, r3]
     dd2:	2148      	movs	r1, #72	; 0x48
     dd4:	4798      	blx	r3
     dd6:	b2c8      	uxtb	r0, r1
						
							// Check the case if the job number is zero (deleting record)
						if ( control_rx_buffer[3] == 0 && 
     dd8:	9e04      	ldr	r6, [sp, #16]
     dda:	78f3      	ldrb	r3, [r6, #3]
     ddc:	2b00      	cmp	r3, #0
     dde:	d10e      	bne.n	dfe <controls_communcation_rx_task+0xee>
							job_lookup_table[current_slat][0] > 0 ) {	// Spend very little time clearing
     de0:	4b5f      	ldr	r3, [pc, #380]	; (f60 <controls_communcation_rx_task+0x250>)
     de2:	58eb      	ldr	r3, [r5, r3]
     de4:	9303      	str	r3, [sp, #12]
     de6:	00c3      	lsls	r3, r0, #3
     de8:	9903      	ldr	r1, [sp, #12]
     dea:	5c5b      	ldrb	r3, [r3, r1]
						
							// Modulate the number of the slat if needed
						if ( current_slat > NUMBER_OF_SLATS ) current_slat = current_slat % NUMBER_OF_SLATS;
						
							// Check the case if the job number is zero (deleting record)
						if ( control_rx_buffer[3] == 0 && 
     dec:	2b00      	cmp	r3, #0
     dee:	d006      	beq.n	dfe <controls_communcation_rx_task+0xee>
							job_lookup_table[current_slat][0] > 0 ) {	// Spend very little time clearing
							job_lookup_table[current_slat][0] = 0;	// Record has been cleared as per request
     df0:	4b5b      	ldr	r3, [pc, #364]	; (f60 <controls_communcation_rx_task+0x250>)
     df2:	58eb      	ldr	r3, [r5, r3]
     df4:	9303      	str	r3, [sp, #12]
     df6:	00c3      	lsls	r3, r0, #3
     df8:	9a03      	ldr	r2, [sp, #12]
     dfa:	549f      	strb	r7, [r3, r2]
     dfc:	e061      	b.n	ec2 <controls_communcation_rx_task+0x1b2>
						} else {
							// Start parsing the necessary data
							job_lookup_table[current_slat][0] = control_rx_buffer[ 3 ];	// Parsing the Job Number
     dfe:	4683      	mov	fp, r0
     e00:	4b52      	ldr	r3, [pc, #328]	; (f4c <controls_communcation_rx_task+0x23c>)
     e02:	58eb      	ldr	r3, [r5, r3]
     e04:	78da      	ldrb	r2, [r3, #3]
     e06:	b2d2      	uxtb	r2, r2
     e08:	4694      	mov	ip, r2
     e0a:	4a55      	ldr	r2, [pc, #340]	; (f60 <controls_communcation_rx_task+0x250>)
     e0c:	58aa      	ldr	r2, [r5, r2]
     e0e:	9203      	str	r2, [sp, #12]
     e10:	00c1      	lsls	r1, r0, #3
     e12:	4666      	mov	r6, ip
     e14:	548e      	strb	r6, [r1, r2]
							job_lookup_table[current_slat][7] = control_rx_buffer[ 4 ];	// Parsing the Job Power
     e16:	791a      	ldrb	r2, [r3, #4]
     e18:	b2d2      	uxtb	r2, r2
     e1a:	4694      	mov	ip, r2
     e1c:	9e03      	ldr	r6, [sp, #12]
     e1e:	1872      	adds	r2, r6, r1
     e20:	4661      	mov	r1, ip
     e22:	71d1      	strb	r1, [r2, #7]
							
							job_lookup_table[current_slat][1] = control_rx_buffer[ 5 ];	// Parsing the HSB for Delay
     e24:	7959      	ldrb	r1, [r3, #5]
     e26:	b2c9      	uxtb	r1, r1
     e28:	7051      	strb	r1, [r2, #1]
							job_lookup_table[current_slat][2] = control_rx_buffer[ 6 ] & 0xF0;	// Parsing the LSB for Delay
     e2a:	7999      	ldrb	r1, [r3, #6]
     e2c:	260f      	movs	r6, #15
     e2e:	43b1      	bics	r1, r6
     e30:	7091      	strb	r1, [r2, #2]
							
							job_lookup_table[current_slat][4] = control_rx_buffer[ 9 ];	// Parsing the HSB for Duration
     e32:	7a59      	ldrb	r1, [r3, #9]
     e34:	b2c9      	uxtb	r1, r1
     e36:	7111      	strb	r1, [r2, #4]
							job_lookup_table[current_slat][5] = control_rx_buffer[ 10 ] & 0xF0;	// Parsing the LSB for Duration
     e38:	7a99      	ldrb	r1, [r3, #10]
     e3a:	43b1      	bics	r1, r6
     e3c:	7151      	strb	r1, [r2, #5]
							
							temp_16bit_variable = (uint16_t) control_rx_buffer[7];
     e3e:	79d9      	ldrb	r1, [r3, #7]
							temp_16bit_variable = temp_16bit_variable << 8;
							temp_16bit_variable = temp_16bit_variable | (uint16_t) control_rx_buffer[8];
     e40:	7a1a      	ldrb	r2, [r3, #8]
							
							job_lookup_table[current_slat][4] = control_rx_buffer[ 9 ];	// Parsing the HSB for Duration
							job_lookup_table[current_slat][5] = control_rx_buffer[ 10 ] & 0xF0;	// Parsing the LSB for Duration
							
							temp_16bit_variable = (uint16_t) control_rx_buffer[7];
							temp_16bit_variable = temp_16bit_variable << 8;
     e42:	020b      	lsls	r3, r1, #8
							temp_16bit_variable = temp_16bit_variable | (uint16_t) control_rx_buffer[8];
     e44:	4313      	orrs	r3, r2
							if ( temp_16bit_variable == 0 ) {	// If zero, send minimum
     e46:	d108      	bne.n	e5a <controls_communcation_rx_task+0x14a>
								job_lookup_table[current_slat][3] = 0x01;
     e48:	4b45      	ldr	r3, [pc, #276]	; (f60 <controls_communcation_rx_task+0x250>)
     e4a:	58eb      	ldr	r3, [r5, r3]
     e4c:	9303      	str	r3, [sp, #12]
     e4e:	00c3      	lsls	r3, r0, #3
     e50:	9903      	ldr	r1, [sp, #12]
     e52:	18cb      	adds	r3, r1, r3
     e54:	2201      	movs	r2, #1
     e56:	70da      	strb	r2, [r3, #3]
     e58:	e00f      	b.n	e7a <controls_communcation_rx_task+0x16a>
							} else {
								temp_delay = temp_16bit_variable;
								temp_16bit_variable = temp_16bit_variable >> 4;
     e5a:	091b      	lsrs	r3, r3, #4
								temp_16bit_variable = temp_16bit_variable & 0x00FF;
     e5c:	26ff      	movs	r6, #255	; 0xff
     e5e:	4033      	ands	r3, r6
								job_lookup_table[current_slat][3] = (uint8_t) temp_16bit_variable;
     e60:	b2d9      	uxtb	r1, r3
     e62:	4a3f      	ldr	r2, [pc, #252]	; (f60 <controls_communcation_rx_task+0x250>)
     e64:	58aa      	ldr	r2, [r5, r2]
     e66:	9203      	str	r2, [sp, #12]
     e68:	00c2      	lsls	r2, r0, #3
     e6a:	9e03      	ldr	r6, [sp, #12]
     e6c:	18b2      	adds	r2, r6, r2
     e6e:	70d1      	strb	r1, [r2, #3]
								temp_delay = temp_16bit_variable;
								temp_16bit_variable = temp_16bit_variable >> 8;
								temp_16bit_variable = temp_16bit_variable & 0x000F;
								temp_8bit_variable_A = (uint8_t) temp_16bit_variable;
								job_lookup_table[current_slat][2] = job_lookup_table[current_slat][2] | temp_8bit_variable_A;
     e70:	7891      	ldrb	r1, [r2, #2]
     e72:	b2c9      	uxtb	r1, r1
     e74:	7091      	strb	r1, [r2, #2]
							} else {
								temp_delay = temp_16bit_variable;
								temp_16bit_variable = temp_16bit_variable >> 4;
								temp_16bit_variable = temp_16bit_variable & 0x00FF;
								job_lookup_table[current_slat][3] = (uint8_t) temp_16bit_variable;
								temp_delay = temp_16bit_variable;
     e76:	4699      	mov	r9, r3
								temp_16bit_variable = temp_16bit_variable >> 8;
								temp_16bit_variable = temp_16bit_variable & 0x000F;
								temp_8bit_variable_A = (uint8_t) temp_16bit_variable;
     e78:	9705      	str	r7, [sp, #20]
								job_lookup_table[current_slat][2] = job_lookup_table[current_slat][2] | temp_8bit_variable_A;
							}
							
							temp_16bit_variable = (uint16_t) control_rx_buffer[11];
     e7a:	4b34      	ldr	r3, [pc, #208]	; (f4c <controls_communcation_rx_task+0x23c>)
     e7c:	58eb      	ldr	r3, [r5, r3]
     e7e:	7ad9      	ldrb	r1, [r3, #11]
							temp_16bit_variable = temp_16bit_variable << 8;
							temp_16bit_variable = temp_16bit_variable | (uint16_t) control_rx_buffer[12];
     e80:	7b1a      	ldrb	r2, [r3, #12]
								temp_8bit_variable_A = (uint8_t) temp_16bit_variable;
								job_lookup_table[current_slat][2] = job_lookup_table[current_slat][2] | temp_8bit_variable_A;
							}
							
							temp_16bit_variable = (uint16_t) control_rx_buffer[11];
							temp_16bit_variable = temp_16bit_variable << 8;
     e82:	020b      	lsls	r3, r1, #8
							temp_16bit_variable = temp_16bit_variable | (uint16_t) control_rx_buffer[12];
     e84:	4313      	orrs	r3, r2
							if ( temp_16bit_variable == 0 ) {	// If zero, send minimum
     e86:	d10a      	bne.n	e9e <controls_communcation_rx_task+0x18e>
								job_lookup_table[current_slat][6] = 0x01;
     e88:	4b35      	ldr	r3, [pc, #212]	; (f60 <controls_communcation_rx_task+0x250>)
     e8a:	58eb      	ldr	r3, [r5, r3]
     e8c:	9303      	str	r3, [sp, #12]
     e8e:	4659      	mov	r1, fp
     e90:	00cb      	lsls	r3, r1, #3
     e92:	9a03      	ldr	r2, [sp, #12]
     e94:	18d3      	adds	r3, r2, r3
     e96:	2601      	movs	r6, #1
     e98:	719e      	strb	r6, [r3, #6]
								job_lookup_table[current_slat][2] = job_lookup_table[current_slat][2] | temp_8bit_variable_A;
							}
							
							temp_16bit_variable = (uint16_t) control_rx_buffer[11];
							temp_16bit_variable = temp_16bit_variable << 8;
							temp_16bit_variable = temp_16bit_variable | (uint16_t) control_rx_buffer[12];
     e9a:	46bb      	mov	fp, r7
     e9c:	e011      	b.n	ec2 <controls_communcation_rx_task+0x1b2>
							if ( temp_16bit_variable == 0 ) {	// If zero, send minimum
								job_lookup_table[current_slat][6] = 0x01;
							} else {
								temp_delay = temp_16bit_variable;
								temp_16bit_variable = temp_16bit_variable >> 4;
     e9e:	091b      	lsrs	r3, r3, #4
								temp_16bit_variable = temp_16bit_variable & 0x00FF;
     ea0:	21ff      	movs	r1, #255	; 0xff
     ea2:	400b      	ands	r3, r1
								job_lookup_table[current_slat][6] = (uint8_t) temp_16bit_variable;
     ea4:	b2d9      	uxtb	r1, r3
     ea6:	4a2e      	ldr	r2, [pc, #184]	; (f60 <controls_communcation_rx_task+0x250>)
     ea8:	58aa      	ldr	r2, [r5, r2]
     eaa:	9203      	str	r2, [sp, #12]
     eac:	465e      	mov	r6, fp
     eae:	00f2      	lsls	r2, r6, #3
     eb0:	9e03      	ldr	r6, [sp, #12]
     eb2:	18b2      	adds	r2, r6, r2
     eb4:	7191      	strb	r1, [r2, #6]
								temp_delay = temp_16bit_variable;
								temp_16bit_variable = temp_16bit_variable >> 8;
								temp_16bit_variable = temp_16bit_variable & 0x000F;
								temp_8bit_variable_A = (uint8_t) temp_16bit_variable;
								job_lookup_table[current_slat][5] = job_lookup_table[current_slat][5] | temp_8bit_variable_A;
     eb6:	7951      	ldrb	r1, [r2, #5]
     eb8:	b2c9      	uxtb	r1, r1
     eba:	7151      	strb	r1, [r2, #5]
							} else {
								temp_delay = temp_16bit_variable;
								temp_16bit_variable = temp_16bit_variable >> 4;
								temp_16bit_variable = temp_16bit_variable & 0x00FF;
								job_lookup_table[current_slat][6] = (uint8_t) temp_16bit_variable;
								temp_delay = temp_16bit_variable;
     ebc:	4699      	mov	r9, r3
								temp_16bit_variable = temp_16bit_variable >> 8;
								temp_16bit_variable = temp_16bit_variable & 0x000F;
								temp_8bit_variable_A = (uint8_t) temp_16bit_variable;
     ebe:	9705      	str	r7, [sp, #20]
								temp_delay = temp_16bit_variable;
								temp_16bit_variable = temp_16bit_variable >> 4;
								temp_16bit_variable = temp_16bit_variable & 0x00FF;
								job_lookup_table[current_slat][6] = (uint8_t) temp_16bit_variable;
								temp_delay = temp_16bit_variable;
								temp_16bit_variable = temp_16bit_variable >> 8;
     ec0:	46bb      	mov	fp, r7
					
					// Iterate on the number of slats to be affected
					if ( control_rx_buffer[ 2 ] < 2 ) subsequent_slats = 1;
					else subsequent_slats = control_rx_buffer[ 2 ];
					
					for ( i=0; i < subsequent_slats; i++ ) {
     ec2:	3401      	adds	r4, #1
     ec4:	b2e4      	uxtb	r4, r4
     ec6:	45a0      	cmp	r8, r4
     ec8:	d900      	bls.n	ecc <controls_communcation_rx_task+0x1bc>
     eca:	e77c      	b.n	dc6 <controls_communcation_rx_task+0xb6>
     ecc:	4b20      	ldr	r3, [pc, #128]	; (f50 <controls_communcation_rx_task+0x240>)
     ece:	58eb      	ldr	r3, [r5, r3]
     ed0:	465a      	mov	r2, fp
     ed2:	801a      	strh	r2, [r3, #0]
     ed4:	4b1f      	ldr	r3, [pc, #124]	; (f54 <controls_communcation_rx_task+0x244>)
     ed6:	58eb      	ldr	r3, [r5, r3]
     ed8:	464c      	mov	r4, r9
     eda:	801c      	strh	r4, [r3, #0]
     edc:	4b1e      	ldr	r3, [pc, #120]	; (f58 <controls_communcation_rx_task+0x248>)
     ede:	58eb      	ldr	r3, [r5, r3]
     ee0:	9e05      	ldr	r6, [sp, #20]
     ee2:	701e      	strb	r6, [r3, #0]
						}
					}
				}
				
					// Set the table control to false after table has been modified
				table_access_busy = false;
     ee4:	4b18      	ldr	r3, [pc, #96]	; (f48 <controls_communcation_rx_task+0x238>)
     ee6:	58eb      	ldr	r3, [r5, r3]
     ee8:	701f      	strb	r7, [r3, #0]
				control_rx_buffer[14] = control_rx_buffer[13];
     eea:	4b18      	ldr	r3, [pc, #96]	; (f4c <controls_communcation_rx_task+0x23c>)
     eec:	58eb      	ldr	r3, [r5, r3]
     eee:	7b5a      	ldrb	r2, [r3, #13]
     ef0:	b2d2      	uxtb	r2, r2
     ef2:	739a      	strb	r2, [r3, #14]
				
				control_rx_status = CONTROL_RX_GETTING_FB;
     ef4:	4b13      	ldr	r3, [pc, #76]	; (f44 <controls_communcation_rx_task+0x234>)
     ef6:	58eb      	ldr	r3, [r5, r3]
     ef8:	9303      	str	r3, [sp, #12]
     efa:	2301      	movs	r3, #1
     efc:	9903      	ldr	r1, [sp, #12]
     efe:	700b      	strb	r3, [r1, #0]
			case CONTROL_RX_GETTING_FB:
				// Reset the timer for this byte reception
				xTimerReset( control_rx_timer, 0 );
     f00:	4b18      	ldr	r3, [pc, #96]	; (f64 <controls_communcation_rx_task+0x254>)
     f02:	58eb      	ldr	r3, [r5, r3]
     f04:	681c      	ldr	r4, [r3, #0]
     f06:	4b18      	ldr	r3, [pc, #96]	; (f68 <controls_communcation_rx_task+0x258>)
     f08:	58eb      	ldr	r3, [r5, r3]
     f0a:	4798      	blx	r3
     f0c:	1c02      	adds	r2, r0, #0
     f0e:	9700      	str	r7, [sp, #0]
     f10:	1c20      	adds	r0, r4, #0
     f12:	2102      	movs	r1, #2
     f14:	1c3b      	adds	r3, r7, #0
     f16:	4c15      	ldr	r4, [pc, #84]	; (f6c <controls_communcation_rx_task+0x25c>)
     f18:	592c      	ldr	r4, [r5, r4]
     f1a:	47a0      	blx	r4
			
				// Queue the job of getting that first byte
				usart_read_buffer_job( &control_serial, control_rx_buffer, 1);	// Get one byte	
     f1c:	4b14      	ldr	r3, [pc, #80]	; (f70 <controls_communcation_rx_task+0x260>)
     f1e:	58eb      	ldr	r3, [r5, r3]
     f20:	9303      	str	r3, [sp, #12]
     f22:	4b0a      	ldr	r3, [pc, #40]	; (f4c <controls_communcation_rx_task+0x23c>)
     f24:	58eb      	ldr	r3, [r5, r3]
     f26:	9304      	str	r3, [sp, #16]
     f28:	9803      	ldr	r0, [sp, #12]
     f2a:	1c19      	adds	r1, r3, #0
     f2c:	2201      	movs	r2, #1
     f2e:	4b11      	ldr	r3, [pc, #68]	; (f74 <controls_communcation_rx_task+0x264>)
     f30:	58eb      	ldr	r3, [r5, r3]
     f32:	4798      	blx	r3
			break;
		}
		
		// we have to try to do two things at the same time: 1] Send the ping back every 20ms 2] Receive data from controls ASYNC
		vTaskSuspend( NULL );	// Suspend myself right now!
     f34:	1c38      	adds	r0, r7, #0
     f36:	4b10      	ldr	r3, [pc, #64]	; (f78 <controls_communcation_rx_task+0x268>)
     f38:	58eb      	ldr	r3, [r5, r3]
     f3a:	4798      	blx	r3
	}
     f3c:	e701      	b.n	d42 <controls_communcation_rx_task+0x32>
     f3e:	46c0      	nop			; (mov r8, r8)
     f40:	00003a08 	.word	0x00003a08
     f44:	00000194 	.word	0x00000194
     f48:	000001cc 	.word	0x000001cc
     f4c:	00000170 	.word	0x00000170
     f50:	000001f4 	.word	0x000001f4
     f54:	00000038 	.word	0x00000038
     f58:	000000e4 	.word	0x000000e4
     f5c:	000001dc 	.word	0x000001dc
     f60:	00000180 	.word	0x00000180
     f64:	000001fc 	.word	0x000001fc
     f68:	000000c0 	.word	0x000000c0
     f6c:	00000138 	.word	0x00000138
     f70:	00000128 	.word	0x00000128
     f74:	000001ac 	.word	0x000001ac
     f78:	00000140 	.word	0x00000140

00000f7c <control_tx_timer_callback>:
}

void control_tx_timer_callback( TimerHandle_t pxTimer ) {
     f7c:	b500      	push	{lr}
     f7e:	b083      	sub	sp, #12
     f80:	4b07      	ldr	r3, [pc, #28]	; (fa0 <control_tx_timer_callback+0x24>)
     f82:	447b      	add	r3, pc
	configASSERT( pxTimer );
     f84:	2800      	cmp	r0, #0
     f86:	d101      	bne.n	f8c <control_tx_timer_callback+0x10>
     f88:	b672      	cpsid	i
     f8a:	e7fe      	b.n	f8a <control_tx_timer_callback+0xe>
	
	// Execute the following if the timer for the TX task expires
	vTaskResume( control_tx_task_handler );	
     f8c:	4a05      	ldr	r2, [pc, #20]	; (fa4 <control_tx_timer_callback+0x28>)
     f8e:	589a      	ldr	r2, [r3, r2]
     f90:	6810      	ldr	r0, [r2, #0]
     f92:	4a05      	ldr	r2, [pc, #20]	; (fa8 <control_tx_timer_callback+0x2c>)
     f94:	589a      	ldr	r2, [r3, r2]
     f96:	9201      	str	r2, [sp, #4]
     f98:	4790      	blx	r2
}
     f9a:	b003      	add	sp, #12
     f9c:	bd00      	pop	{pc}
     f9e:	46c0      	nop			; (mov r8, r8)
     fa0:	000037a6 	.word	0x000037a6
     fa4:	0000005c 	.word	0x0000005c
     fa8:	00000120 	.word	0x00000120

00000fac <control_rx_timer_callback>:

void control_rx_timer_callback( TimerHandle_t pxTimer ) {
     fac:	b500      	push	{lr}
     fae:	b083      	sub	sp, #12
     fb0:	4b0e      	ldr	r3, [pc, #56]	; (fec <control_rx_timer_callback+0x40>)
     fb2:	447b      	add	r3, pc
	configASSERT( pxTimer );
     fb4:	2800      	cmp	r0, #0
     fb6:	d101      	bne.n	fbc <control_rx_timer_callback+0x10>
     fb8:	b672      	cpsid	i
     fba:	e7fe      	b.n	fba <control_rx_timer_callback+0xe>
	
	// Execute the following when the timer for the RX task has expired
	switch ( control_rx_status ) {
     fbc:	4a0c      	ldr	r2, [pc, #48]	; (ff0 <control_rx_timer_callback+0x44>)
     fbe:	589a      	ldr	r2, [r3, r2]
     fc0:	9201      	str	r2, [sp, #4]
     fc2:	7812      	ldrb	r2, [r2, #0]
     fc4:	b2d2      	uxtb	r2, r2
     fc6:	2a01      	cmp	r2, #1
     fc8:	d007      	beq.n	fda <control_rx_timer_callback+0x2e>
     fca:	2a02      	cmp	r2, #2
     fcc:	d10c      	bne.n	fe8 <control_rx_timer_callback+0x3c>
		case CONTROL_RX_FB_CONTENT:
			control_rx_status = CONTROL_RX_GETTING_FB;	// Change status to getting the header
     fce:	4a08      	ldr	r2, [pc, #32]	; (ff0 <control_rx_timer_callback+0x44>)
     fd0:	589a      	ldr	r2, [r3, r2]
     fd2:	9201      	str	r2, [sp, #4]
     fd4:	2201      	movs	r2, #1
     fd6:	9901      	ldr	r1, [sp, #4]
     fd8:	700a      	strb	r2, [r1, #0]
		case CONTROL_RX_GETTING_FB:
			vTaskResume( control_rx_task_handler );	// Resume the Rx Task
     fda:	4a06      	ldr	r2, [pc, #24]	; (ff4 <control_rx_timer_callback+0x48>)
     fdc:	589a      	ldr	r2, [r3, r2]
     fde:	6810      	ldr	r0, [r2, #0]
     fe0:	4a05      	ldr	r2, [pc, #20]	; (ff8 <control_rx_timer_callback+0x4c>)
     fe2:	589a      	ldr	r2, [r3, r2]
     fe4:	9201      	str	r2, [sp, #4]
     fe6:	4790      	blx	r2
		break;
	}
}
     fe8:	b003      	add	sp, #12
     fea:	bd00      	pop	{pc}
     fec:	00003776 	.word	0x00003776
     ff0:	00000194 	.word	0x00000194
     ff4:	00000118 	.word	0x00000118
     ff8:	00000120 	.word	0x00000120

00000ffc <control_callback_received>:
//////////////////////////////////////////////////////////////////////////
////////////////////// IrDA CALLBACK FUNCTIONS ////////////////////////////
//////////////////////////////////////////////////////////////////////////
//////////////////////////////////////////////////////////////////////////
// IrDA Rx Callback Function
static void control_callback_received(const struct usart_module *const module) {
     ffc:	b530      	push	{r4, r5, lr}
     ffe:	b085      	sub	sp, #20
    1000:	4c20      	ldr	r4, [pc, #128]	; (1084 <control_callback_received+0x88>)
    1002:	447c      	add	r4, pc
	
	switch ( control_rx_status ) {
    1004:	4b20      	ldr	r3, [pc, #128]	; (1088 <control_callback_received+0x8c>)
    1006:	58e3      	ldr	r3, [r4, r3]
    1008:	9302      	str	r3, [sp, #8]
    100a:	781b      	ldrb	r3, [r3, #0]
    100c:	b2db      	uxtb	r3, r3
    100e:	2b01      	cmp	r3, #1
    1010:	d002      	beq.n	1018 <control_callback_received+0x1c>
    1012:	2b02      	cmp	r3, #2
    1014:	d028      	beq.n	1068 <control_callback_received+0x6c>
    1016:	e033      	b.n	1080 <control_callback_received+0x84>
		case CONTROL_RX_GETTING_FB:
			// Check if the first byte is the correct header
			if ( control_rx_buffer[0] == 0xFB ) {
    1018:	4b1c      	ldr	r3, [pc, #112]	; (108c <control_callback_received+0x90>)
    101a:	58e3      	ldr	r3, [r4, r3]
    101c:	9302      	str	r3, [sp, #8]
    101e:	781b      	ldrb	r3, [r3, #0]
    1020:	b2db      	uxtb	r3, r3
    1022:	2bfb      	cmp	r3, #251	; 0xfb
    1024:	d12c      	bne.n	1080 <control_callback_received+0x84>
					// We have received the very first byte of the packet
						// Change the status of the rx module
				control_rx_status = CONTROL_RX_FB_CONTENT;
    1026:	4b18      	ldr	r3, [pc, #96]	; (1088 <control_callback_received+0x8c>)
    1028:	58e3      	ldr	r3, [r4, r3]
    102a:	9302      	str	r3, [sp, #8]
    102c:	2302      	movs	r3, #2
    102e:	9a02      	ldr	r2, [sp, #8]
    1030:	7013      	strb	r3, [r2, #0]
				
						// Go ahead and queue the reception of the rest of the message
				xTimerResetFromISR( control_rx_timer, 0 );
    1032:	4b17      	ldr	r3, [pc, #92]	; (1090 <control_callback_received+0x94>)
    1034:	58e3      	ldr	r3, [r4, r3]
    1036:	681d      	ldr	r5, [r3, #0]
    1038:	4b16      	ldr	r3, [pc, #88]	; (1094 <control_callback_received+0x98>)
    103a:	58e3      	ldr	r3, [r4, r3]
    103c:	4798      	blx	r3
    103e:	1c02      	adds	r2, r0, #0
    1040:	2300      	movs	r3, #0
    1042:	9300      	str	r3, [sp, #0]
    1044:	1c28      	adds	r0, r5, #0
    1046:	2107      	movs	r1, #7
    1048:	4d13      	ldr	r5, [pc, #76]	; (1098 <control_callback_received+0x9c>)
    104a:	5965      	ldr	r5, [r4, r5]
    104c:	47a8      	blx	r5
				usart_read_buffer_job( &control_serial, control_rx_buffer + 1, 12);	// Receive the next 12 bytes of the message
    104e:	4b13      	ldr	r3, [pc, #76]	; (109c <control_callback_received+0xa0>)
    1050:	58e3      	ldr	r3, [r4, r3]
    1052:	9302      	str	r3, [sp, #8]
    1054:	4b0d      	ldr	r3, [pc, #52]	; (108c <control_callback_received+0x90>)
    1056:	58e3      	ldr	r3, [r4, r3]
    1058:	1c19      	adds	r1, r3, #0
    105a:	3101      	adds	r1, #1
    105c:	9802      	ldr	r0, [sp, #8]
    105e:	220c      	movs	r2, #12
    1060:	4b0f      	ldr	r3, [pc, #60]	; (10a0 <control_callback_received+0xa4>)
    1062:	58e3      	ldr	r3, [r4, r3]
    1064:	4798      	blx	r3
    1066:	e00b      	b.n	1080 <control_callback_received+0x84>
			}
		break;
		case CONTROL_RX_FB_CONTENT:
			control_rx_status = CONTROL_RX_PROCESSING_PACKAGE;
    1068:	4b07      	ldr	r3, [pc, #28]	; (1088 <control_callback_received+0x8c>)
    106a:	58e3      	ldr	r3, [r4, r3]
    106c:	9302      	str	r3, [sp, #8]
    106e:	2310      	movs	r3, #16
    1070:	9d02      	ldr	r5, [sp, #8]
    1072:	702b      	strb	r3, [r5, #0]
			
			xTaskResumeFromISR( control_rx_task_handler );
    1074:	4b0b      	ldr	r3, [pc, #44]	; (10a4 <control_callback_received+0xa8>)
    1076:	58e3      	ldr	r3, [r4, r3]
    1078:	6818      	ldr	r0, [r3, #0]
    107a:	4b0b      	ldr	r3, [pc, #44]	; (10a8 <control_callback_received+0xac>)
    107c:	58e3      	ldr	r3, [r4, r3]
    107e:	4798      	blx	r3
		break;
	}	
}
    1080:	b005      	add	sp, #20
    1082:	bd30      	pop	{r4, r5, pc}
    1084:	00003726 	.word	0x00003726
    1088:	00000194 	.word	0x00000194
    108c:	00000170 	.word	0x00000170
    1090:	000001fc 	.word	0x000001fc
    1094:	00000100 	.word	0x00000100
    1098:	00000138 	.word	0x00000138
    109c:	00000128 	.word	0x00000128
    10a0:	000001ac 	.word	0x000001ac
    10a4:	00000118 	.word	0x00000118
    10a8:	0000008c 	.word	0x0000008c

000010ac <bastian_control_configuration>:
	}
}

//////////////////////////////////////////////////////////////////////////
// IrDA Port COnfiguration
void bastian_control_configuration (void){
    10ac:	b5f0      	push	{r4, r5, r6, r7, lr}
    10ae:	b093      	sub	sp, #76	; 0x4c
    10b0:	4d31      	ldr	r5, [pc, #196]	; (1178 <bastian_control_configuration+0xcc>)
    10b2:	447d      	add	r5, pc
{
	/* Sanity check arguments */
	Assert(config);

	/* Set default config in the config struct */
	config->data_order       = USART_DATAORDER_LSB;
    10b4:	2380      	movs	r3, #128	; 0x80
    10b6:	05db      	lsls	r3, r3, #23
    10b8:	9302      	str	r3, [sp, #8]
	config->transfer_mode    = USART_TRANSFER_ASYNCHRONOUSLY;
    10ba:	2300      	movs	r3, #0
    10bc:	aa02      	add	r2, sp, #8
    10be:	6053      	str	r3, [r2, #4]
	config->parity           = USART_PARITY_NONE;
	config->stopbits         = USART_STOPBITS_1;
    10c0:	2100      	movs	r1, #0
    10c2:	7293      	strb	r3, [r2, #10]
	config->character_size   = USART_CHARACTER_SIZE_8BIT;
    10c4:	72d3      	strb	r3, [r2, #11]
	config->baudrate         = 9600;
	config->receiver_enable  = true;
    10c6:	2701      	movs	r7, #1
    10c8:	2024      	movs	r0, #36	; 0x24
    10ca:	5417      	strb	r7, [r2, r0]
	config->transmitter_enable = true;
    10cc:	2025      	movs	r0, #37	; 0x25
    10ce:	5417      	strb	r7, [r2, r0]
	config->clock_polarity_inverted = false;
    10d0:	2026      	movs	r0, #38	; 0x26
    10d2:	5413      	strb	r3, [r2, r0]
	config->use_external_clock = false;
    10d4:	2027      	movs	r0, #39	; 0x27
    10d6:	5413      	strb	r3, [r2, r0]
	config->ext_clock_freq   = 0;
    10d8:	6293      	str	r3, [r2, #40]	; 0x28
	config->mux_setting      = USART_RX_1_TX_2_XCK_3;
	config->run_in_standby   = false;
    10da:	202c      	movs	r0, #44	; 0x2c
    10dc:	5413      	strb	r3, [r2, r0]
	config->generator_source = GCLK_GENERATOR_0;
    10de:	202d      	movs	r0, #45	; 0x2d
    10e0:	5413      	strb	r3, [r2, r0]
	config->pinmux_pad0      = PINMUX_DEFAULT;
	config->pinmux_pad1      = PINMUX_DEFAULT;
	config->pinmux_pad2      = PINMUX_DEFAULT;
	config->pinmux_pad3      = PINMUX_DEFAULT;
#ifdef FEATURE_USART_OVER_SAMPLE
	config->sample_adjustment     = USART_SAMPLE_ADJUSTMENT_7_8_9;
    10e2:	6153      	str	r3, [r2, #20]
	config->sample_rate           = USART_SAMPLE_RATE_16X_ARITHMETIC;
    10e4:	8213      	strh	r3, [r2, #16]
#endif
#ifdef FEATURE_USART_LIN_SLAVE
	config->lin_slave_enable      = false;
    10e6:	2000      	movs	r0, #0
    10e8:	76d0      	strb	r0, [r2, #27]
	config->lin_header_delay = LIN_MASTER_HEADER_DELAY_0;
	config->lin_break_length = LIN_MASTER_BREAK_LENGTH_13_BIT;
#endif

#ifdef FEATURE_USART_IMMEDIATE_BUFFER_OVERFLOW_NOTIFICATION
	config->immediate_buffer_overflow_notification  = false;
    10ea:	7611      	strb	r1, [r2, #24]
#endif
#ifdef FEATURE_USART_START_FRAME_DECTION
	config->start_frame_detection_enable            = false;
    10ec:	7711      	strb	r1, [r2, #28]
#endif
#ifdef FEATURE_USART_IRDA
	config->encoding_format_enable                  = false;
    10ee:	7651      	strb	r1, [r2, #25]
	config->receive_pulse_length                    = 19;
    10f0:	2013      	movs	r0, #19
    10f2:	7690      	strb	r0, [r2, #26]
	config->iso7816_config.inhibit_nack             = ISO7816_INHIBIT_NACK_DISABLE;
	config->iso7816_config.successive_recv_nack     = ISO7816_SUCCESSIVE_RECV_NACK_DISABLE;
	config->iso7816_config.max_iterations           = 7;
#endif
#ifdef FEATURE_USART_COLLISION_DECTION
	config->collision_detection_enable              = false;
    10f4:	7751      	strb	r1, [r2, #29]
	usart_get_config_defaults(&control_conf);
	
	// Port Configuration
	control_conf.transfer_mode = USART_TRANSFER_ASYNCHRONOUSLY;	// Asynchronous Communication Mode
	control_conf.generator_source = GCLK_GENERATOR_0;				// Use the Generic Clock 0 as source
	control_conf.baudrate = 115200;								// IrDA Baudrate
    10f6:	21e1      	movs	r1, #225	; 0xe1
    10f8:	0249      	lsls	r1, r1, #9
    10fa:	6211      	str	r1, [r2, #32]
	control_conf.character_size = USART_CHARACTER_SIZE_8BIT;
	control_conf.stopbits = USART_STOPBITS_1;
	control_conf.parity = USART_PARITY_EVEN;
    10fc:	8113      	strh	r3, [r2, #8]
	
	// Pin Multiplexer Settings
	control_conf.mux_setting = USART_RX_1_TX_0_XCK_1;
    10fe:	2380      	movs	r3, #128	; 0x80
    1100:	035b      	lsls	r3, r3, #13
    1102:	60d3      	str	r3, [r2, #12]
	control_conf.pinmux_pad0 = PINMUX_PA16C_SERCOM1_PAD0;	// S1P0
    1104:	4b1d      	ldr	r3, [pc, #116]	; (117c <bastian_control_configuration+0xd0>)
    1106:	6313      	str	r3, [r2, #48]	; 0x30
	control_conf.pinmux_pad1 = PINMUX_PA17C_SERCOM1_PAD1;	// S1P1
    1108:	4b1d      	ldr	r3, [pc, #116]	; (1180 <bastian_control_configuration+0xd4>)
    110a:	6353      	str	r3, [r2, #52]	; 0x34
	control_conf.pinmux_pad2 = PINMUX_UNUSED;
    110c:	2301      	movs	r3, #1
    110e:	425b      	negs	r3, r3
    1110:	6393      	str	r3, [r2, #56]	; 0x38
	control_conf.pinmux_pad3 = PINMUX_UNUSED;
    1112:	63d3      	str	r3, [r2, #60]	; 0x3c

	// Initialize the previous settings
	usart_init((struct usart_module*) &control_serial, SERCOM1, &control_conf);
    1114:	4b1b      	ldr	r3, [pc, #108]	; (1184 <bastian_control_configuration+0xd8>)
    1116:	58ee      	ldr	r6, [r5, r3]
    1118:	1c30      	adds	r0, r6, #0
    111a:	491b      	ldr	r1, [pc, #108]	; (1188 <bastian_control_configuration+0xdc>)
    111c:	4b1b      	ldr	r3, [pc, #108]	; (118c <bastian_control_configuration+0xe0>)
    111e:	58eb      	ldr	r3, [r5, r3]
    1120:	4798      	blx	r3
	/* Sanity check arguments */
	Assert(module);
	Assert(module->hw);

	/* Get a pointer to the hardware module instance */
	SercomUsart *const usart_hw = &(module->hw->USART);
    1122:	6834      	ldr	r4, [r6, #0]

#if USART_CALLBACK_MODE == true
	/* Enable Global interrupt for module */
	system_interrupt_enable(_sercom_get_interrupt_vector(module->hw));
    1124:	1c20      	adds	r0, r4, #0
    1126:	4b1a      	ldr	r3, [pc, #104]	; (1190 <bastian_control_configuration+0xe4>)
    1128:	58eb      	ldr	r3, [r5, r3]
    112a:	4798      	blx	r3
    112c:	231f      	movs	r3, #31
    112e:	4018      	ands	r0, r3
    1130:	4087      	lsls	r7, r0
    1132:	4b18      	ldr	r3, [pc, #96]	; (1194 <bastian_control_configuration+0xe8>)
    1134:	601f      	str	r7, [r3, #0]
{
	/* Sanity check arguments */
	Assert(module);
	Assert(module->hw);

	SercomUsart *const usart_hw = &(module->hw->USART);
    1136:	6832      	ldr	r2, [r6, #0]

#ifdef FEATURE_USART_SYNC_SCHEME_V2
	return (usart_hw->SYNCBUSY.reg);
    1138:	69d3      	ldr	r3, [r2, #28]
		const struct usart_module *const module)
{
	/* Sanity check */
	Assert(module);

	while (usart_is_syncing(module)) {
    113a:	2b00      	cmp	r3, #0
    113c:	d1fc      	bne.n	1138 <bastian_control_configuration+0x8c>

	/* Wait until synchronization is complete */
	_usart_wait_for_sync(module);

	/* Enable USART module */
	usart_hw->CTRLA.reg |= SERCOM_USART_CTRLA_ENABLE;
    113e:	6822      	ldr	r2, [r4, #0]
    1140:	2302      	movs	r3, #2
    1142:	4313      	orrs	r3, r2
    1144:	6023      	str	r3, [r4, #0]

	// Enable the module
	usart_enable((struct usart_module*) &control_serial);

	// ******** Callback setup
	usart_register_callback((struct usart_module*) &control_serial, (usart_callback_t)control_callback_received, USART_CALLBACK_BUFFER_RECEIVED);
    1146:	4b0f      	ldr	r3, [pc, #60]	; (1184 <bastian_control_configuration+0xd8>)
    1148:	58ec      	ldr	r4, [r5, r3]
    114a:	1c20      	adds	r0, r4, #0
    114c:	4912      	ldr	r1, [pc, #72]	; (1198 <bastian_control_configuration+0xec>)
    114e:	4479      	add	r1, pc
    1150:	2201      	movs	r2, #1
    1152:	4b12      	ldr	r3, [pc, #72]	; (119c <bastian_control_configuration+0xf0>)
    1154:	58ee      	ldr	r6, [r5, r3]
    1156:	47b0      	blx	r6
    1158:	2531      	movs	r5, #49	; 0x31
    115a:	5d62      	ldrb	r2, [r4, r5]
    115c:	2302      	movs	r3, #2
    115e:	4313      	orrs	r3, r2
    1160:	5563      	strb	r3, [r4, r5]
	usart_enable_callback((struct usart_module*) &control_serial, USART_CALLBACK_BUFFER_RECEIVED);

	usart_register_callback((struct usart_module*) &control_serial, (usart_callback_t)control_callback_transmitted, USART_CALLBACK_BUFFER_TRANSMITTED);
    1162:	1c20      	adds	r0, r4, #0
    1164:	490e      	ldr	r1, [pc, #56]	; (11a0 <bastian_control_configuration+0xf4>)
    1166:	4479      	add	r1, pc
    1168:	2200      	movs	r2, #0
    116a:	47b0      	blx	r6
    116c:	5d62      	ldrb	r2, [r4, r5]
    116e:	2301      	movs	r3, #1
    1170:	4313      	orrs	r3, r2
    1172:	5563      	strb	r3, [r4, r5]
	usart_enable_callback((struct usart_module*) &control_serial, USART_CALLBACK_BUFFER_TRANSMITTED);
}
    1174:	b013      	add	sp, #76	; 0x4c
    1176:	bdf0      	pop	{r4, r5, r6, r7, pc}
    1178:	00003676 	.word	0x00003676
    117c:	00100002 	.word	0x00100002
    1180:	00110002 	.word	0x00110002
    1184:	00000128 	.word	0x00000128
    1188:	42000c00 	.word	0x42000c00
    118c:	00000150 	.word	0x00000150
    1190:	00000068 	.word	0x00000068
    1194:	e000e100 	.word	0xe000e100
    1198:	fffffeab 	.word	0xfffffeab
    119c:	00000008 	.word	0x00000008
    11a0:	fffffa83 	.word	0xfffffa83

000011a4 <control_serial_setup>:
uint16_t temp_delay;
uint16_t temp_ramp;
uint16_t temp_speed;
uint16_t temp_duration;

void control_serial_setup( void ) {
    11a4:	b5f0      	push	{r4, r5, r6, r7, lr}
    11a6:	b087      	sub	sp, #28
    11a8:	4c34      	ldr	r4, [pc, #208]	; (127c <control_serial_setup+0xd8>)
    11aa:	447c      	add	r4, pc
	int i, j;
		// At this point, we set-up the module
	bastian_control_configuration();
    11ac:	4b34      	ldr	r3, [pc, #208]	; (1280 <control_serial_setup+0xdc>)
    11ae:	58e3      	ldr	r3, [r4, r3]
    11b0:	4798      	blx	r3
	
		// Create the TX necessary task
	xTaskCreate( controls_communcation_tx_task,
    11b2:	4b34      	ldr	r3, [pc, #208]	; (1284 <control_serial_setup+0xe0>)
    11b4:	58e3      	ldr	r3, [r4, r3]
    11b6:	9304      	str	r3, [sp, #16]
    11b8:	2702      	movs	r7, #2
    11ba:	9700      	str	r7, [sp, #0]
    11bc:	4b32      	ldr	r3, [pc, #200]	; (1288 <control_serial_setup+0xe4>)
    11be:	58e3      	ldr	r3, [r4, r3]
    11c0:	9301      	str	r3, [sp, #4]
    11c2:	2600      	movs	r6, #0
    11c4:	9602      	str	r6, [sp, #8]
    11c6:	9603      	str	r6, [sp, #12]
    11c8:	9804      	ldr	r0, [sp, #16]
    11ca:	4930      	ldr	r1, [pc, #192]	; (128c <control_serial_setup+0xe8>)
    11cc:	4479      	add	r1, pc
    11ce:	228c      	movs	r2, #140	; 0x8c
    11d0:	2300      	movs	r3, #0
    11d2:	4d2f      	ldr	r5, [pc, #188]	; (1290 <control_serial_setup+0xec>)
    11d4:	5965      	ldr	r5, [r4, r5]
    11d6:	47a8      	blx	r5
				 NULL, 
				 2,
				 &control_tx_task_handler );
				 
		// Create the TX necessary task
	xTaskCreate( controls_communcation_rx_task,
    11d8:	4b2e      	ldr	r3, [pc, #184]	; (1294 <control_serial_setup+0xf0>)
    11da:	58e3      	ldr	r3, [r4, r3]
    11dc:	9304      	str	r3, [sp, #16]
    11de:	9700      	str	r7, [sp, #0]
    11e0:	4b2d      	ldr	r3, [pc, #180]	; (1298 <control_serial_setup+0xf4>)
    11e2:	58e3      	ldr	r3, [r4, r3]
    11e4:	9301      	str	r3, [sp, #4]
    11e6:	9602      	str	r6, [sp, #8]
    11e8:	9603      	str	r6, [sp, #12]
    11ea:	9804      	ldr	r0, [sp, #16]
    11ec:	492b      	ldr	r1, [pc, #172]	; (129c <control_serial_setup+0xf8>)
    11ee:	4479      	add	r1, pc
    11f0:	228c      	movs	r2, #140	; 0x8c
    11f2:	2300      	movs	r3, #0
    11f4:	47a8      	blx	r5
				configMINIMAL_STACK_SIZE,
				NULL,
				2,
				&control_rx_task_handler );
				 
	control_rx_timer = xTimerCreate("Crx", 200, pdFALSE, 2, control_rx_timer_callback );
    11f6:	4b2a      	ldr	r3, [pc, #168]	; (12a0 <control_serial_setup+0xfc>)
    11f8:	58e3      	ldr	r3, [r4, r3]
    11fa:	9300      	str	r3, [sp, #0]
    11fc:	4829      	ldr	r0, [pc, #164]	; (12a4 <control_serial_setup+0x100>)
    11fe:	4478      	add	r0, pc
    1200:	21c8      	movs	r1, #200	; 0xc8
    1202:	2200      	movs	r2, #0
    1204:	2302      	movs	r3, #2
    1206:	4d28      	ldr	r5, [pc, #160]	; (12a8 <control_serial_setup+0x104>)
    1208:	5967      	ldr	r7, [r4, r5]
    120a:	47b8      	blx	r7
    120c:	1c05      	adds	r5, r0, #0
    120e:	4b27      	ldr	r3, [pc, #156]	; (12ac <control_serial_setup+0x108>)
    1210:	58e3      	ldr	r3, [r4, r3]
    1212:	6018      	str	r0, [r3, #0]
	xTimerStart(control_rx_timer, 0);
    1214:	4b26      	ldr	r3, [pc, #152]	; (12b0 <control_serial_setup+0x10c>)
    1216:	58e3      	ldr	r3, [r4, r3]
    1218:	9304      	str	r3, [sp, #16]
    121a:	4798      	blx	r3
    121c:	1c02      	adds	r2, r0, #0
    121e:	9600      	str	r6, [sp, #0]
    1220:	1c28      	adds	r0, r5, #0
    1222:	2101      	movs	r1, #1
    1224:	2300      	movs	r3, #0
    1226:	4d23      	ldr	r5, [pc, #140]	; (12b4 <control_serial_setup+0x110>)
    1228:	5965      	ldr	r5, [r4, r5]
    122a:	47a8      	blx	r5
	
	control_tx_timer = xTimerCreate("Ctx", 20, pdFALSE, 2, control_tx_timer_callback );
    122c:	4b22      	ldr	r3, [pc, #136]	; (12b8 <control_serial_setup+0x114>)
    122e:	58e3      	ldr	r3, [r4, r3]
    1230:	9300      	str	r3, [sp, #0]
    1232:	4822      	ldr	r0, [pc, #136]	; (12bc <control_serial_setup+0x118>)
    1234:	4478      	add	r0, pc
    1236:	2114      	movs	r1, #20
    1238:	2200      	movs	r2, #0
    123a:	2302      	movs	r3, #2
    123c:	47b8      	blx	r7
    123e:	1c07      	adds	r7, r0, #0
    1240:	4b1f      	ldr	r3, [pc, #124]	; (12c0 <control_serial_setup+0x11c>)
    1242:	58e3      	ldr	r3, [r4, r3]
    1244:	6018      	str	r0, [r3, #0]
	xTimerStart(control_tx_timer, 0);
    1246:	9b04      	ldr	r3, [sp, #16]
    1248:	4798      	blx	r3
    124a:	1c02      	adds	r2, r0, #0
    124c:	9600      	str	r6, [sp, #0]
    124e:	1c38      	adds	r0, r7, #0
    1250:	2101      	movs	r1, #1
    1252:	2300      	movs	r3, #0
    1254:	47a8      	blx	r5
	
	// Initialize all the database to zero
	for (i=0; i<NUMBER_OF_SLATS + 1; i++)
    1256:	2500      	movs	r5, #0
uint16_t temp_delay;
uint16_t temp_ramp;
uint16_t temp_speed;
uint16_t temp_duration;

void control_serial_setup( void ) {
    1258:	2100      	movs	r1, #0
	control_tx_timer = xTimerCreate("Ctx", 20, pdFALSE, 2, control_tx_timer_callback );
	xTimerStart(control_tx_timer, 0);
	
	// Initialize all the database to zero
	for (i=0; i<NUMBER_OF_SLATS + 1; i++)
		for ( j=0; j<8; j++ ) job_lookup_table[i][j] = 0;	// Initialize entry to zero
    125a:	4b1a      	ldr	r3, [pc, #104]	; (12c4 <control_serial_setup+0x120>)
    125c:	58e4      	ldr	r4, [r4, r3]
    125e:	e007      	b.n	1270 <control_serial_setup+0xcc>
    1260:	18c2      	adds	r2, r0, r3
    1262:	5511      	strb	r1, [r2, r4]
    1264:	3301      	adds	r3, #1
    1266:	2b08      	cmp	r3, #8
    1268:	d1fa      	bne.n	1260 <control_serial_setup+0xbc>
	
	control_tx_timer = xTimerCreate("Ctx", 20, pdFALSE, 2, control_tx_timer_callback );
	xTimerStart(control_tx_timer, 0);
	
	// Initialize all the database to zero
	for (i=0; i<NUMBER_OF_SLATS + 1; i++)
    126a:	3501      	adds	r5, #1
    126c:	2d49      	cmp	r5, #73	; 0x49
    126e:	d002      	beq.n	1276 <control_serial_setup+0xd2>
uint16_t temp_delay;
uint16_t temp_ramp;
uint16_t temp_speed;
uint16_t temp_duration;

void control_serial_setup( void ) {
    1270:	1c0b      	adds	r3, r1, #0
	control_tx_timer = xTimerCreate("Ctx", 20, pdFALSE, 2, control_tx_timer_callback );
	xTimerStart(control_tx_timer, 0);
	
	// Initialize all the database to zero
	for (i=0; i<NUMBER_OF_SLATS + 1; i++)
		for ( j=0; j<8; j++ ) job_lookup_table[i][j] = 0;	// Initialize entry to zero
    1272:	00e8      	lsls	r0, r5, #3
    1274:	e7f4      	b.n	1260 <control_serial_setup+0xbc>
}
    1276:	b007      	add	sp, #28
    1278:	bdf0      	pop	{r4, r5, r6, r7, pc}
    127a:	46c0      	nop			; (mov r8, r8)
    127c:	0000357e 	.word	0x0000357e
    1280:	0000010c 	.word	0x0000010c
    1284:	00000044 	.word	0x00000044
    1288:	0000005c 	.word	0x0000005c
    128c:	00003504 	.word	0x00003504
    1290:	00000058 	.word	0x00000058
    1294:	0000001c 	.word	0x0000001c
    1298:	00000118 	.word	0x00000118
    129c:	000034ea 	.word	0x000034ea
    12a0:	000000c8 	.word	0x000000c8
    12a4:	000034e2 	.word	0x000034e2
    12a8:	00000010 	.word	0x00000010
    12ac:	000001fc 	.word	0x000001fc
    12b0:	000000c0 	.word	0x000000c0
    12b4:	00000138 	.word	0x00000138
    12b8:	000000e8 	.word	0x000000e8
    12bc:	000034b0 	.word	0x000034b0
    12c0:	000001c4 	.word	0x000001c4
    12c4:	00000180 	.word	0x00000180

000012c8 <crc_check>:
#include "asf.h"
#include "bastian_sercom.h"

// This is the function that will check the validity of the crc byte as received
BaseType_t crc_check( uint8_t* data, uint8_t size ) {
    12c8:	b530      	push	{r4, r5, lr}
	uint8_t i;
	uint8_t crc_result = 0;
	
		// Add all the contents of the packet
	for( i=0; i<size; i++) crc_result += *( data + i );		
    12ca:	2900      	cmp	r1, #0
    12cc:	d00c      	beq.n	12e8 <crc_check+0x20>
    12ce:	1c03      	adds	r3, r0, #0
    12d0:	1c42      	adds	r2, r0, #1
    12d2:	1e4c      	subs	r4, r1, #1
    12d4:	b2e4      	uxtb	r4, r4
    12d6:	1915      	adds	r5, r2, r4
#include "bastian_sercom.h"

// This is the function that will check the validity of the crc byte as received
BaseType_t crc_check( uint8_t* data, uint8_t size ) {
	uint8_t i;
	uint8_t crc_result = 0;
    12d8:	2200      	movs	r2, #0
	
		// Add all the contents of the packet
	for( i=0; i<size; i++) crc_result += *( data + i );		
    12da:	781c      	ldrb	r4, [r3, #0]
    12dc:	1912      	adds	r2, r2, r4
    12de:	b2d2      	uxtb	r2, r2
    12e0:	3301      	adds	r3, #1
    12e2:	42ab      	cmp	r3, r5
    12e4:	d1f9      	bne.n	12da <crc_check+0x12>
    12e6:	e000      	b.n	12ea <crc_check+0x22>
#include "bastian_sercom.h"

// This is the function that will check the validity of the crc byte as received
BaseType_t crc_check( uint8_t* data, uint8_t size ) {
	uint8_t i;
	uint8_t crc_result = 0;
    12e8:	2200      	movs	r2, #0
	crc_result |= 0x55;	// OR the result and get our crc
	
		// Return result as boolean
			// pdTRUE  -> CRC Checks Out
			// pdFALSE -> CRC does NOT check out
	if ( crc_result == *(data + size) ) return pdTRUE;
    12ea:	5c43      	ldrb	r3, [r0, r1]
    12ec:	2055      	movs	r0, #85	; 0x55
    12ee:	4302      	orrs	r2, r0
    12f0:	1a98      	subs	r0, r3, r2
    12f2:	4242      	negs	r2, r0
    12f4:	4150      	adcs	r0, r2
	else return pdFALSE;
}
    12f6:	bd30      	pop	{r4, r5, pc}

000012f8 <crc_generate>:

// This is the function that generates the CRC byte
	// The size does not include the spot for the CRC byte
void crc_generate( uint8_t* data, uint8_t size ) {
    12f8:	b510      	push	{r4, lr}
	uint8_t i;
	*( data + size ) = 0;
    12fa:	1842      	adds	r2, r0, r1
    12fc:	2300      	movs	r3, #0
    12fe:	7013      	strb	r3, [r2, #0]
	
		// Add all the contents of the packet
	for( i=0; i<size; i++) *( data + size ) += *( data + i );
    1300:	2900      	cmp	r1, #0
    1302:	d00b      	beq.n	131c <crc_generate+0x24>
    1304:	1c03      	adds	r3, r0, #0
    1306:	3001      	adds	r0, #1
    1308:	3901      	subs	r1, #1
    130a:	b2c9      	uxtb	r1, r1
    130c:	1840      	adds	r0, r0, r1
    130e:	781c      	ldrb	r4, [r3, #0]
    1310:	7811      	ldrb	r1, [r2, #0]
    1312:	1861      	adds	r1, r4, r1
    1314:	7011      	strb	r1, [r2, #0]
    1316:	3301      	adds	r3, #1
    1318:	4283      	cmp	r3, r0
    131a:	d1f8      	bne.n	130e <crc_generate+0x16>
	
	*( data + size ) |= 0x55;	// OR the CRC byte
    131c:	7811      	ldrb	r1, [r2, #0]
    131e:	2355      	movs	r3, #85	; 0x55
    1320:	430b      	orrs	r3, r1
    1322:	7013      	strb	r3, [r2, #0]
    1324:	bd10      	pop	{r4, pc}
    1326:	46c0      	nop			; (mov r8, r8)

00001328 <_sercom_default_handler>:
 */
static void _sercom_default_handler(
		const uint8_t instance)
{
	Assert(false);
}
    1328:	4770      	bx	lr
    132a:	46c0      	nop			; (mov r8, r8)

0000132c <_sercom_set_handler>:
 * \param[in]  interrupt_handler  Pointer to instance callback handler.
 */
void _sercom_set_handler(
		const uint8_t instance,
		const sercom_handler_t interrupt_handler)
{
    132c:	b530      	push	{r4, r5, lr}
    132e:	4a0f      	ldr	r2, [pc, #60]	; (136c <_sercom_set_handler+0x40>)
    1330:	447a      	add	r2, pc
	/* Initialize handlers with default handler and device instances with 0 */
	if (_handler_table_initialized == false) {
    1332:	4b0f      	ldr	r3, [pc, #60]	; (1370 <_sercom_set_handler+0x44>)
    1334:	447b      	add	r3, pc
    1336:	781b      	ldrb	r3, [r3, #0]
    1338:	2b00      	cmp	r3, #0
    133a:	d110      	bne.n	135e <_sercom_set_handler+0x32>
		for (uint32_t i = 0; i < SERCOM_INST_NUM; i++) {
			_sercom_interrupt_handlers[i] = &_sercom_default_handler;
    133c:	4b0d      	ldr	r3, [pc, #52]	; (1374 <_sercom_set_handler+0x48>)
    133e:	447b      	add	r3, pc
    1340:	4d0d      	ldr	r5, [pc, #52]	; (1378 <_sercom_set_handler+0x4c>)
    1342:	447d      	add	r5, pc
    1344:	605d      	str	r5, [r3, #4]
			_sercom_instances[i] = NULL;
    1346:	4c0d      	ldr	r4, [pc, #52]	; (137c <_sercom_set_handler+0x50>)
    1348:	5912      	ldr	r2, [r2, r4]
    134a:	2400      	movs	r4, #0
    134c:	6014      	str	r4, [r2, #0]
		const sercom_handler_t interrupt_handler)
{
	/* Initialize handlers with default handler and device instances with 0 */
	if (_handler_table_initialized == false) {
		for (uint32_t i = 0; i < SERCOM_INST_NUM; i++) {
			_sercom_interrupt_handlers[i] = &_sercom_default_handler;
    134e:	609d      	str	r5, [r3, #8]
			_sercom_instances[i] = NULL;
    1350:	6054      	str	r4, [r2, #4]
		const sercom_handler_t interrupt_handler)
{
	/* Initialize handlers with default handler and device instances with 0 */
	if (_handler_table_initialized == false) {
		for (uint32_t i = 0; i < SERCOM_INST_NUM; i++) {
			_sercom_interrupt_handlers[i] = &_sercom_default_handler;
    1352:	60dd      	str	r5, [r3, #12]
			_sercom_instances[i] = NULL;
    1354:	6094      	str	r4, [r2, #8]
		const sercom_handler_t interrupt_handler)
{
	/* Initialize handlers with default handler and device instances with 0 */
	if (_handler_table_initialized == false) {
		for (uint32_t i = 0; i < SERCOM_INST_NUM; i++) {
			_sercom_interrupt_handlers[i] = &_sercom_default_handler;
    1356:	611d      	str	r5, [r3, #16]
			_sercom_instances[i] = NULL;
    1358:	60d4      	str	r4, [r2, #12]
		}

		_handler_table_initialized = true;
    135a:	2201      	movs	r2, #1
    135c:	701a      	strb	r2, [r3, #0]
	}

	/* Save interrupt handler */
	_sercom_interrupt_handlers[instance] = interrupt_handler;
    135e:	0080      	lsls	r0, r0, #2
    1360:	4b07      	ldr	r3, [pc, #28]	; (1380 <_sercom_set_handler+0x54>)
    1362:	447b      	add	r3, pc
    1364:	1818      	adds	r0, r3, r0
    1366:	6041      	str	r1, [r0, #4]
}
    1368:	bd30      	pop	{r4, r5, pc}
    136a:	46c0      	nop			; (mov r8, r8)
    136c:	000033f8 	.word	0x000033f8
    1370:	1ffff138 	.word	0x1ffff138
    1374:	1ffff12e 	.word	0x1ffff12e
    1378:	ffffffe3 	.word	0xffffffe3
    137c:	000000e0 	.word	0x000000e0
    1380:	1ffff10a 	.word	0x1ffff10a

00001384 <_sercom_get_interrupt_vector>:
 * \retval SYSTEM_INTERRUPT_MODULE_SERCOM6
 * \retval SYSTEM_INTERRUPT_MODULE_SERCOM7
 */
enum system_interrupt_vector _sercom_get_interrupt_vector(
		Sercom *const sercom_instance)
{
    1384:	b570      	push	{r4, r5, r6, lr}
    1386:	b084      	sub	sp, #16
    1388:	1c06      	adds	r6, r0, #0
    138a:	4c08      	ldr	r4, [pc, #32]	; (13ac <_sercom_get_interrupt_vector+0x28>)
    138c:	447c      	add	r4, pc
	const uint8_t sercom_int_vectors[SERCOM_INST_NUM] =
    138e:	ad03      	add	r5, sp, #12
    1390:	1c28      	adds	r0, r5, #0
    1392:	4907      	ldr	r1, [pc, #28]	; (13b0 <_sercom_get_interrupt_vector+0x2c>)
    1394:	4479      	add	r1, pc
    1396:	2204      	movs	r2, #4
    1398:	4b06      	ldr	r3, [pc, #24]	; (13b4 <_sercom_get_interrupt_vector+0x30>)
    139a:	58e3      	ldr	r3, [r4, r3]
    139c:	4798      	blx	r3
		{
			MREPEAT(SERCOM_INST_NUM, _SERCOM_INTERRUPT_VECT_NUM, ~)
		};

	/* Retrieve the index of the SERCOM being requested */
	uint8_t instance_index = _sercom_get_sercom_inst_index(sercom_instance);
    139e:	1c30      	adds	r0, r6, #0
    13a0:	4b05      	ldr	r3, [pc, #20]	; (13b8 <_sercom_get_interrupt_vector+0x34>)
    13a2:	58e3      	ldr	r3, [r4, r3]
    13a4:	4798      	blx	r3

	/* Get the vector number from the lookup table for the requested SERCOM */
	return (enum system_interrupt_vector)sercom_int_vectors[instance_index];
    13a6:	5628      	ldrsb	r0, [r5, r0]
}
    13a8:	b004      	add	sp, #16
    13aa:	bd70      	pop	{r4, r5, r6, pc}
    13ac:	0000339c 	.word	0x0000339c
    13b0:	00003354 	.word	0x00003354
    13b4:	00000050 	.word	0x00000050
    13b8:	00000204 	.word	0x00000204

000013bc <SERCOM0_Handler>:

/** Auto-generate a set of interrupt handlers for each SERCOM in the device */
MREPEAT(SERCOM_INST_NUM, _SERCOM_INTERRUPT_HANDLER, ~)
    13bc:	b508      	push	{r3, lr}
    13be:	4b03      	ldr	r3, [pc, #12]	; (13cc <SERCOM0_Handler+0x10>)
    13c0:	447b      	add	r3, pc
    13c2:	685b      	ldr	r3, [r3, #4]
    13c4:	2000      	movs	r0, #0
    13c6:	4798      	blx	r3
    13c8:	bd08      	pop	{r3, pc}
    13ca:	46c0      	nop			; (mov r8, r8)
    13cc:	1ffff0ac 	.word	0x1ffff0ac

000013d0 <SERCOM1_Handler>:
    13d0:	b508      	push	{r3, lr}
    13d2:	4b03      	ldr	r3, [pc, #12]	; (13e0 <SERCOM1_Handler+0x10>)
    13d4:	447b      	add	r3, pc
    13d6:	689b      	ldr	r3, [r3, #8]
    13d8:	2001      	movs	r0, #1
    13da:	4798      	blx	r3
    13dc:	bd08      	pop	{r3, pc}
    13de:	46c0      	nop			; (mov r8, r8)
    13e0:	1ffff098 	.word	0x1ffff098

000013e4 <SERCOM2_Handler>:
    13e4:	b508      	push	{r3, lr}
    13e6:	4b03      	ldr	r3, [pc, #12]	; (13f4 <SERCOM2_Handler+0x10>)
    13e8:	447b      	add	r3, pc
    13ea:	68db      	ldr	r3, [r3, #12]
    13ec:	2002      	movs	r0, #2
    13ee:	4798      	blx	r3
    13f0:	bd08      	pop	{r3, pc}
    13f2:	46c0      	nop			; (mov r8, r8)
    13f4:	1ffff084 	.word	0x1ffff084

000013f8 <SERCOM3_Handler>:
    13f8:	b508      	push	{r3, lr}
    13fa:	4b03      	ldr	r3, [pc, #12]	; (1408 <SERCOM3_Handler+0x10>)
    13fc:	447b      	add	r3, pc
    13fe:	691b      	ldr	r3, [r3, #16]
    1400:	2003      	movs	r0, #3
    1402:	4798      	blx	r3
    1404:	bd08      	pop	{r3, pc}
    1406:	46c0      	nop			; (mov r8, r8)
    1408:	1ffff070 	.word	0x1ffff070

0000140c <usart_init>:
 */
enum status_code usart_init(
		struct usart_module *const module,
		Sercom *const hw,
		const struct usart_config *const config)
{
    140c:	b5f0      	push	{r4, r5, r6, r7, lr}
    140e:	465f      	mov	r7, fp
    1410:	4656      	mov	r6, sl
    1412:	464d      	mov	r5, r9
    1414:	4644      	mov	r4, r8
    1416:	b4f0      	push	{r4, r5, r6, r7}
    1418:	b09b      	sub	sp, #108	; 0x6c
    141a:	1c06      	adds	r6, r0, #0
    141c:	1c0c      	adds	r4, r1, #0
    141e:	9208      	str	r2, [sp, #32]
    1420:	4dc6      	ldr	r5, [pc, #792]	; (173c <usart_init+0x330>)
    1422:	447d      	add	r5, pc
    1424:	9509      	str	r5, [sp, #36]	; 0x24
	Assert(config);

	enum status_code status_code = STATUS_OK;

	/* Assign module pointer to software instance struct */
	module->hw = hw;
    1426:	6031      	str	r1, [r6, #0]

	/* Get a pointer to the hardware module instance */
	SercomUsart *const usart_hw = &(module->hw->USART);

	uint32_t sercom_index = _sercom_get_sercom_inst_index(module->hw);
    1428:	1c08      	adds	r0, r1, #0
    142a:	4bc5      	ldr	r3, [pc, #788]	; (1740 <usart_init+0x334>)
    142c:	58eb      	ldr	r3, [r5, r3]
    142e:	4798      	blx	r3
    1430:	1c02      	adds	r2, r0, #0
#else
	pm_index     = sercom_index + PM_APBCMASK_SERCOM0_Pos;
	gclk_index   = sercom_index + SERCOM0_GCLK_ID_CORE;
#endif

	if (usart_hw->CTRLA.reg & SERCOM_USART_CTRLA_SWRST) {
    1432:	6823      	ldr	r3, [r4, #0]
		/* The module is busy resetting itself */
		return STATUS_BUSY;
    1434:	2005      	movs	r0, #5
#else
	pm_index     = sercom_index + PM_APBCMASK_SERCOM0_Pos;
	gclk_index   = sercom_index + SERCOM0_GCLK_ID_CORE;
#endif

	if (usart_hw->CTRLA.reg & SERCOM_USART_CTRLA_SWRST) {
    1436:	07df      	lsls	r7, r3, #31
    1438:	d500      	bpl.n	143c <usart_init+0x30>
    143a:	e177      	b.n	172c <usart_init+0x320>
		/* The module is busy resetting itself */
		return STATUS_BUSY;
	}

	if (usart_hw->CTRLA.reg & SERCOM_USART_CTRLA_ENABLE) {
    143c:	6823      	ldr	r3, [r4, #0]
		/* Check the module is enabled */
		return STATUS_ERR_DENIED;
    143e:	201c      	movs	r0, #28
	if (usart_hw->CTRLA.reg & SERCOM_USART_CTRLA_SWRST) {
		/* The module is busy resetting itself */
		return STATUS_BUSY;
	}

	if (usart_hw->CTRLA.reg & SERCOM_USART_CTRLA_ENABLE) {
    1440:	0799      	lsls	r1, r3, #30
    1442:	d500      	bpl.n	1446 <usart_init+0x3a>
    1444:	e172      	b.n	172c <usart_init+0x320>
		case SYSTEM_CLOCK_APB_APBB:
			PM->APBBMASK.reg |= mask;
			break;

		case SYSTEM_CLOCK_APB_APBC:
			PM->APBCMASK.reg |= mask;
    1446:	4bbf      	ldr	r3, [pc, #764]	; (1744 <usart_init+0x338>)
    1448:	6a18      	ldr	r0, [r3, #32]
#else
	pm_index     = sercom_index + MCLK_APBCMASK_SERCOM0_Pos;
	gclk_index   = sercom_index + SERCOM0_GCLK_ID_CORE;
#endif
#else
	pm_index     = sercom_index + PM_APBCMASK_SERCOM0_Pos;
    144a:	1c95      	adds	r5, r2, #2
		system_apb_clock_set_mask(SYSTEM_CLOCK_APB_APBD, 1 << pm_index);
	} else {
		system_apb_clock_set_mask(SYSTEM_CLOCK_APB_APBC, 1 << pm_index);	
	}
#else
	system_apb_clock_set_mask(SYSTEM_CLOCK_APB_APBC, 1 << pm_index);
    144c:	2701      	movs	r7, #1
    144e:	1c39      	adds	r1, r7, #0
    1450:	40a9      	lsls	r1, r5
    1452:	4301      	orrs	r1, r0
    1454:	6219      	str	r1, [r3, #32]
#endif

	/* Set up the GCLK for the module */
	struct system_gclk_chan_config gclk_chan_conf;
	system_gclk_chan_get_config_defaults(&gclk_chan_conf);
	gclk_chan_conf.source_generator = config->generator_source;
    1456:	232d      	movs	r3, #45	; 0x2d
    1458:	9d08      	ldr	r5, [sp, #32]
    145a:	1c1f      	adds	r7, r3, #0
    145c:	5ceb      	ldrb	r3, [r5, r3]
    145e:	a919      	add	r1, sp, #100	; 0x64
    1460:	700b      	strb	r3, [r1, #0]
	pm_index     = sercom_index + MCLK_APBCMASK_SERCOM0_Pos;
	gclk_index   = sercom_index + SERCOM0_GCLK_ID_CORE;
#endif
#else
	pm_index     = sercom_index + PM_APBCMASK_SERCOM0_Pos;
	gclk_index   = sercom_index + SERCOM0_GCLK_ID_CORE;
    1462:	3214      	adds	r2, #20

	/* Set up the GCLK for the module */
	struct system_gclk_chan_config gclk_chan_conf;
	system_gclk_chan_get_config_defaults(&gclk_chan_conf);
	gclk_chan_conf.source_generator = config->generator_source;
	system_gclk_chan_set_config(gclk_index, &gclk_chan_conf);
    1464:	b2d2      	uxtb	r2, r2
    1466:	4691      	mov	r9, r2
    1468:	1c10      	adds	r0, r2, #0
    146a:	4bb7      	ldr	r3, [pc, #732]	; (1748 <usart_init+0x33c>)
    146c:	9d09      	ldr	r5, [sp, #36]	; 0x24
    146e:	58eb      	ldr	r3, [r5, r3]
    1470:	4798      	blx	r3
	system_gclk_chan_enable(gclk_index);
    1472:	4648      	mov	r0, r9
    1474:	4bb5      	ldr	r3, [pc, #724]	; (174c <usart_init+0x340>)
    1476:	58eb      	ldr	r3, [r5, r3]
    1478:	4798      	blx	r3
	sercom_set_gclk_generator(config->generator_source, false);
    147a:	9d08      	ldr	r5, [sp, #32]
    147c:	5de8      	ldrb	r0, [r5, r7]
    147e:	2100      	movs	r1, #0
    1480:	4bb3      	ldr	r3, [pc, #716]	; (1750 <usart_init+0x344>)
    1482:	9d09      	ldr	r5, [sp, #36]	; 0x24
    1484:	58eb      	ldr	r3, [r5, r3]
    1486:	4798      	blx	r3

	/* Set character size */
	module->character_size = config->character_size;
    1488:	9d08      	ldr	r5, [sp, #32]
    148a:	7aeb      	ldrb	r3, [r5, #11]
    148c:	7173      	strb	r3, [r6, #5]

	/* Set transmitter and receiver status */
	module->receiver_enabled = config->receiver_enable;
    148e:	2324      	movs	r3, #36	; 0x24
    1490:	5ceb      	ldrb	r3, [r5, r3]
    1492:	71b3      	strb	r3, [r6, #6]
	module->transmitter_enabled = config->transmitter_enable;
    1494:	2325      	movs	r3, #37	; 0x25
    1496:	5ceb      	ldrb	r3, [r5, r3]
    1498:	71f3      	strb	r3, [r6, #7]

#ifdef FEATURE_USART_LIN_SLAVE
	module->lin_slave_enabled = config->lin_slave_enable;
    149a:	7eeb      	ldrb	r3, [r5, #27]
    149c:	7233      	strb	r3, [r6, #8]
#endif
#ifdef FEATURE_USART_START_FRAME_DECTION
	module->start_frame_detection_enabled = config->start_frame_detection_enable;
    149e:	7f2b      	ldrb	r3, [r5, #28]
    14a0:	7273      	strb	r3, [r6, #9]
	/* Sanity check arguments */
	Assert(module);
	Assert(module->hw);

	/* Get a pointer to the hardware module instance */
	SercomUsart *const usart_hw = &(module->hw->USART);
    14a2:	6837      	ldr	r7, [r6, #0]
    14a4:	46b9      	mov	r9, r7

	/* Index for generic clock */
	uint32_t sercom_index = _sercom_get_sercom_inst_index(module->hw);
    14a6:	1c38      	adds	r0, r7, #0
    14a8:	4ba5      	ldr	r3, [pc, #660]	; (1740 <usart_init+0x334>)
    14aa:	9d09      	ldr	r5, [sp, #36]	; 0x24
    14ac:	58eb      	ldr	r3, [r5, r3]
    14ae:	4798      	blx	r3
	uint32_t gclk_index   = sercom_index + SERCOM0_GCLK_ID_CORE;
    14b0:	3014      	adds	r0, #20
	uint32_t ctrla = 0;
	uint32_t ctrlb = 0;
#ifdef FEATURE_USART_ISO7816
	uint32_t ctrlc = 0;
#endif
	uint16_t baud  = 0;
    14b2:	2200      	movs	r2, #0
    14b4:	466b      	mov	r3, sp
    14b6:	334e      	adds	r3, #78	; 0x4e
    14b8:	801a      	strh	r2, [r3, #0]

	enum sercom_asynchronous_operation_mode mode = SERCOM_ASYNC_OPERATION_MODE_ARITHMETIC;
	enum sercom_asynchronous_sample_num sample_num = SERCOM_ASYNC_SAMPLE_NUM_16;

#ifdef FEATURE_USART_OVER_SAMPLE
	switch (config->sample_rate) {
    14ba:	9d08      	ldr	r5, [sp, #32]
    14bc:	8a2d      	ldrh	r5, [r5, #16]
    14be:	46a8      	mov	r8, r5
    14c0:	2380      	movs	r3, #128	; 0x80
    14c2:	01db      	lsls	r3, r3, #7
    14c4:	429d      	cmp	r5, r3
    14c6:	d01c      	beq.n	1502 <usart_init+0xf6>
    14c8:	2380      	movs	r3, #128	; 0x80
    14ca:	01db      	lsls	r3, r3, #7
    14cc:	429d      	cmp	r5, r3
    14ce:	d804      	bhi.n	14da <usart_init+0xce>
    14d0:	2380      	movs	r3, #128	; 0x80
    14d2:	019b      	lsls	r3, r3, #6
    14d4:	429d      	cmp	r5, r3
    14d6:	d00e      	beq.n	14f6 <usart_init+0xea>
    14d8:	e007      	b.n	14ea <usart_init+0xde>
    14da:	23c0      	movs	r3, #192	; 0xc0
    14dc:	01db      	lsls	r3, r3, #7
    14de:	429d      	cmp	r5, r3
    14e0:	d00c      	beq.n	14fc <usart_init+0xf0>
    14e2:	2380      	movs	r3, #128	; 0x80
    14e4:	021b      	lsls	r3, r3, #8
    14e6:	429d      	cmp	r5, r3
    14e8:	d002      	beq.n	14f0 <usart_init+0xe4>
#endif
	uint16_t baud  = 0;
	uint32_t transfer_mode;

	enum sercom_asynchronous_operation_mode mode = SERCOM_ASYNC_OPERATION_MODE_ARITHMETIC;
	enum sercom_asynchronous_sample_num sample_num = SERCOM_ASYNC_SAMPLE_NUM_16;
    14ea:	2710      	movs	r7, #16
	uint32_t ctrlc = 0;
#endif
	uint16_t baud  = 0;
	uint32_t transfer_mode;

	enum sercom_asynchronous_operation_mode mode = SERCOM_ASYNC_OPERATION_MODE_ARITHMETIC;
    14ec:	2500      	movs	r5, #0
    14ee:	e00a      	b.n	1506 <usart_init+0xfa>
			mode = SERCOM_ASYNC_OPERATION_MODE_ARITHMETIC;
			sample_num = SERCOM_ASYNC_SAMPLE_NUM_8;
			break;
		case USART_SAMPLE_RATE_3X_ARITHMETIC:
			mode = SERCOM_ASYNC_OPERATION_MODE_ARITHMETIC;
			sample_num = SERCOM_ASYNC_SAMPLE_NUM_3;
    14f0:	2703      	movs	r7, #3
		case USART_SAMPLE_RATE_8X_ARITHMETIC:
			mode = SERCOM_ASYNC_OPERATION_MODE_ARITHMETIC;
			sample_num = SERCOM_ASYNC_SAMPLE_NUM_8;
			break;
		case USART_SAMPLE_RATE_3X_ARITHMETIC:
			mode = SERCOM_ASYNC_OPERATION_MODE_ARITHMETIC;
    14f2:	2500      	movs	r5, #0
    14f4:	e007      	b.n	1506 <usart_init+0xfa>
			sample_num = SERCOM_ASYNC_SAMPLE_NUM_3;
			break;
		case USART_SAMPLE_RATE_16X_FRACTIONAL:
			mode = SERCOM_ASYNC_OPERATION_MODE_FRACTIONAL;
			sample_num = SERCOM_ASYNC_SAMPLE_NUM_16;
    14f6:	2710      	movs	r7, #16
		case USART_SAMPLE_RATE_3X_ARITHMETIC:
			mode = SERCOM_ASYNC_OPERATION_MODE_ARITHMETIC;
			sample_num = SERCOM_ASYNC_SAMPLE_NUM_3;
			break;
		case USART_SAMPLE_RATE_16X_FRACTIONAL:
			mode = SERCOM_ASYNC_OPERATION_MODE_FRACTIONAL;
    14f8:	2501      	movs	r5, #1
    14fa:	e004      	b.n	1506 <usart_init+0xfa>
			sample_num = SERCOM_ASYNC_SAMPLE_NUM_16;
			break;
		case USART_SAMPLE_RATE_8X_FRACTIONAL:
			mode = SERCOM_ASYNC_OPERATION_MODE_FRACTIONAL;
			sample_num = SERCOM_ASYNC_SAMPLE_NUM_8;
    14fc:	2708      	movs	r7, #8
		case USART_SAMPLE_RATE_16X_FRACTIONAL:
			mode = SERCOM_ASYNC_OPERATION_MODE_FRACTIONAL;
			sample_num = SERCOM_ASYNC_SAMPLE_NUM_16;
			break;
		case USART_SAMPLE_RATE_8X_FRACTIONAL:
			mode = SERCOM_ASYNC_OPERATION_MODE_FRACTIONAL;
    14fe:	2501      	movs	r5, #1
    1500:	e001      	b.n	1506 <usart_init+0xfa>
			mode = SERCOM_ASYNC_OPERATION_MODE_ARITHMETIC;
			sample_num = SERCOM_ASYNC_SAMPLE_NUM_16;
			break;
		case USART_SAMPLE_RATE_8X_ARITHMETIC:
			mode = SERCOM_ASYNC_OPERATION_MODE_ARITHMETIC;
			sample_num = SERCOM_ASYNC_SAMPLE_NUM_8;
    1502:	2708      	movs	r7, #8
		case USART_SAMPLE_RATE_16X_ARITHMETIC:
			mode = SERCOM_ASYNC_OPERATION_MODE_ARITHMETIC;
			sample_num = SERCOM_ASYNC_SAMPLE_NUM_16;
			break;
		case USART_SAMPLE_RATE_8X_ARITHMETIC:
			mode = SERCOM_ASYNC_OPERATION_MODE_ARITHMETIC;
    1504:	2500      	movs	r5, #0
			break;
	}
#endif

	/* Set data order, internal muxing, and clock polarity */
	ctrla = (uint32_t)config->data_order |
    1506:	9908      	ldr	r1, [sp, #32]
    1508:	6809      	ldr	r1, [r1, #0]
    150a:	910a      	str	r1, [sp, #40]	; 0x28
		(uint32_t)config->mux_setting |
    150c:	9a08      	ldr	r2, [sp, #32]
    150e:	68d2      	ldr	r2, [r2, #12]
    1510:	920c      	str	r2, [sp, #48]	; 0x30
	#ifdef FEATURE_USART_OVER_SAMPLE
		config->sample_adjustment |
    1512:	9b08      	ldr	r3, [sp, #32]
    1514:	695b      	ldr	r3, [r3, #20]
    1516:	930d      	str	r3, [sp, #52]	; 0x34
		config->sample_rate |
	#endif
	#ifdef FEATURE_USART_IMMEDIATE_BUFFER_OVERFLOW_NOTIFICATION
		(config->immediate_buffer_overflow_notification << SERCOM_USART_CTRLA_IBON_Pos) |
    1518:	9908      	ldr	r1, [sp, #32]
    151a:	7e09      	ldrb	r1, [r1, #24]
    151c:	910e      	str	r1, [sp, #56]	; 0x38
	#endif
		(config->clock_polarity_inverted << SERCOM_USART_CTRLA_CPOL_Pos);
    151e:	2326      	movs	r3, #38	; 0x26
    1520:	9a08      	ldr	r2, [sp, #32]
    1522:	5cd3      	ldrb	r3, [r2, r3]
    1524:	469b      	mov	fp, r3

	enum status_code status_code = STATUS_OK;

	transfer_mode = (uint32_t)config->transfer_mode;
    1526:	6853      	ldr	r3, [r2, #4]
    1528:	469a      	mov	sl, r3
#ifdef FEATURE_USART_ISO7816
	if(config->iso7816_config.enabled) {
		baud = config->baudrate;
	} else {
#endif
	switch (transfer_mode)
    152a:	2b00      	cmp	r3, #0
    152c:	d017      	beq.n	155e <usart_init+0x152>
    152e:	2380      	movs	r3, #128	; 0x80
    1530:	055b      	lsls	r3, r3, #21
    1532:	459a      	cmp	sl, r3
    1534:	d13c      	bne.n	15b0 <usart_init+0x1a4>
	{
		case USART_TRANSFER_SYNCHRONOUSLY:
			if (!config->use_external_clock) {
    1536:	2327      	movs	r3, #39	; 0x27
    1538:	5cd3      	ldrb	r3, [r2, r3]
    153a:	2b00      	cmp	r3, #0
    153c:	d13c      	bne.n	15b8 <usart_init+0x1ac>
				status_code = _sercom_get_sync_baud_val(config->baudrate,
    153e:	6a15      	ldr	r5, [r2, #32]
    1540:	b2c0      	uxtb	r0, r0
    1542:	4b84      	ldr	r3, [pc, #528]	; (1754 <usart_init+0x348>)
    1544:	9a09      	ldr	r2, [sp, #36]	; 0x24
    1546:	58d3      	ldr	r3, [r2, r3]
    1548:	4798      	blx	r3
    154a:	1c01      	adds	r1, r0, #0
    154c:	1c28      	adds	r0, r5, #0
    154e:	466a      	mov	r2, sp
    1550:	324e      	adds	r2, #78	; 0x4e
    1552:	4b81      	ldr	r3, [pc, #516]	; (1758 <usart_init+0x34c>)
    1554:	9d09      	ldr	r5, [sp, #36]	; 0x24
    1556:	58eb      	ldr	r3, [r5, r3]
    1558:	4798      	blx	r3
    155a:	1c03      	adds	r3, r0, #0
    155c:	e029      	b.n	15b2 <usart_init+0x1a6>
			}

			break;

		case USART_TRANSFER_ASYNCHRONOUSLY:
			if (config->use_external_clock) {
    155e:	2327      	movs	r3, #39	; 0x27
    1560:	9908      	ldr	r1, [sp, #32]
    1562:	5ccb      	ldrb	r3, [r1, r3]
    1564:	2b00      	cmp	r3, #0
    1566:	d00f      	beq.n	1588 <usart_init+0x17c>
				status_code =
    1568:	6a0a      	ldr	r2, [r1, #32]
    156a:	9207      	str	r2, [sp, #28]
    156c:	6a8b      	ldr	r3, [r1, #40]	; 0x28
    156e:	9306      	str	r3, [sp, #24]
    1570:	9700      	str	r7, [sp, #0]
    1572:	1c10      	adds	r0, r2, #0
    1574:	1c19      	adds	r1, r3, #0
    1576:	466a      	mov	r2, sp
    1578:	324e      	adds	r2, #78	; 0x4e
    157a:	1c2b      	adds	r3, r5, #0
    157c:	4d77      	ldr	r5, [pc, #476]	; (175c <usart_init+0x350>)
    157e:	9f09      	ldr	r7, [sp, #36]	; 0x24
    1580:	597f      	ldr	r7, [r7, r5]
    1582:	47b8      	blx	r7
    1584:	1c03      	adds	r3, r0, #0
    1586:	e014      	b.n	15b2 <usart_init+0x1a6>
						_sercom_get_async_baud_val(config->baudrate,
							config->ext_clock_freq, &baud, mode, sample_num);
			} else {
				status_code =
						_sercom_get_async_baud_val(config->baudrate,
    1588:	9908      	ldr	r1, [sp, #32]
    158a:	6a09      	ldr	r1, [r1, #32]
    158c:	9110      	str	r1, [sp, #64]	; 0x40
    158e:	b2c0      	uxtb	r0, r0
    1590:	4b70      	ldr	r3, [pc, #448]	; (1754 <usart_init+0x348>)
    1592:	9a09      	ldr	r2, [sp, #36]	; 0x24
    1594:	58d3      	ldr	r3, [r2, r3]
    1596:	4798      	blx	r3
    1598:	1c01      	adds	r1, r0, #0
			if (config->use_external_clock) {
				status_code =
						_sercom_get_async_baud_val(config->baudrate,
							config->ext_clock_freq, &baud, mode, sample_num);
			} else {
				status_code =
    159a:	9700      	str	r7, [sp, #0]
    159c:	9810      	ldr	r0, [sp, #64]	; 0x40
    159e:	466a      	mov	r2, sp
    15a0:	324e      	adds	r2, #78	; 0x4e
    15a2:	1c2b      	adds	r3, r5, #0
    15a4:	4d6d      	ldr	r5, [pc, #436]	; (175c <usart_init+0x350>)
    15a6:	9f09      	ldr	r7, [sp, #36]	; 0x24
    15a8:	597f      	ldr	r7, [r7, r5]
    15aa:	47b8      	blx	r7
    15ac:	1c03      	adds	r3, r0, #0
    15ae:	e000      	b.n	15b2 <usart_init+0x1a6>
	#ifdef FEATURE_USART_IMMEDIATE_BUFFER_OVERFLOW_NOTIFICATION
		(config->immediate_buffer_overflow_notification << SERCOM_USART_CTRLA_IBON_Pos) |
	#endif
		(config->clock_polarity_inverted << SERCOM_USART_CTRLA_CPOL_Pos);

	enum status_code status_code = STATUS_OK;
    15b0:	2300      	movs	r3, #0
    15b2:	1e18      	subs	r0, r3, #0

			break;
	}

	/* Check if calculating the baudrate failed */
	if (status_code != STATUS_OK) {
    15b4:	d000      	beq.n	15b8 <usart_init+0x1ac>
    15b6:	e0b9      	b.n	172c <usart_init+0x320>
#ifdef FEATURE_USART_ISO7816
	}
#endif

#ifdef FEATURE_USART_IRDA
	if(config->encoding_format_enable) {
    15b8:	9d08      	ldr	r5, [sp, #32]
    15ba:	7e6b      	ldrb	r3, [r5, #25]
    15bc:	2b00      	cmp	r3, #0
    15be:	d002      	beq.n	15c6 <usart_init+0x1ba>
		usart_hw->RXPL.reg = config->receive_pulse_length;
    15c0:	7eab      	ldrb	r3, [r5, #26]
    15c2:	464f      	mov	r7, r9
    15c4:	73bb      	strb	r3, [r7, #14]
{
	/* Sanity check arguments */
	Assert(module);
	Assert(module->hw);

	SercomUsart *const usart_hw = &(module->hw->USART);
    15c6:	6832      	ldr	r2, [r6, #0]
    15c8:	9f08      	ldr	r7, [sp, #32]
    15ca:	9d09      	ldr	r5, [sp, #36]	; 0x24

#ifdef FEATURE_USART_SYNC_SCHEME_V2
	return (usart_hw->SYNCBUSY.reg);
    15cc:	69d3      	ldr	r3, [r2, #28]
		const struct usart_module *const module)
{
	/* Sanity check */
	Assert(module);

	while (usart_is_syncing(module)) {
    15ce:	2b00      	cmp	r3, #0
    15d0:	d1fc      	bne.n	15cc <usart_init+0x1c0>
    15d2:	9708      	str	r7, [sp, #32]
    15d4:	9509      	str	r5, [sp, #36]	; 0x24

	/* Wait until synchronization is complete */
	_usart_wait_for_sync(module);

	/*Set baud val */
	usart_hw->BAUD.reg = baud;
    15d6:	466b      	mov	r3, sp
    15d8:	334e      	adds	r3, #78	; 0x4e
    15da:	881b      	ldrh	r3, [r3, #0]
    15dc:	4648      	mov	r0, r9
    15de:	8183      	strh	r3, [r0, #12]
			break;
	}
#endif

	/* Set data order, internal muxing, and clock polarity */
	ctrla = (uint32_t)config->data_order |
    15e0:	990c      	ldr	r1, [sp, #48]	; 0x30
    15e2:	9d0a      	ldr	r5, [sp, #40]	; 0x28
    15e4:	4329      	orrs	r1, r5
		(uint32_t)config->mux_setting |
    15e6:	9f0d      	ldr	r7, [sp, #52]	; 0x34
    15e8:	4339      	orrs	r1, r7
	#ifdef FEATURE_USART_OVER_SAMPLE
		config->sample_adjustment |
    15ea:	4650      	mov	r0, sl
    15ec:	4301      	orrs	r1, r0
		config->sample_rate |
    15ee:	4642      	mov	r2, r8
    15f0:	4311      	orrs	r1, r2
	#endif
	#ifdef FEATURE_USART_IMMEDIATE_BUFFER_OVERFLOW_NOTIFICATION
		(config->immediate_buffer_overflow_notification << SERCOM_USART_CTRLA_IBON_Pos) |
    15f2:	9d0e      	ldr	r5, [sp, #56]	; 0x38
    15f4:	022b      	lsls	r3, r5, #8
			break;
	}
#endif

	/* Set data order, internal muxing, and clock polarity */
	ctrla = (uint32_t)config->data_order |
    15f6:	4319      	orrs	r1, r3
		config->sample_rate |
	#endif
	#ifdef FEATURE_USART_IMMEDIATE_BUFFER_OVERFLOW_NOTIFICATION
		(config->immediate_buffer_overflow_notification << SERCOM_USART_CTRLA_IBON_Pos) |
	#endif
		(config->clock_polarity_inverted << SERCOM_USART_CTRLA_CPOL_Pos);
    15f8:	465f      	mov	r7, fp
    15fa:	077b      	lsls	r3, r7, #29

	/*Set baud val */
	usart_hw->BAUD.reg = baud;

	/* Set sample mode */
	ctrla |= transfer_mode;
    15fc:	4319      	orrs	r1, r3

	if (config->use_external_clock == false) {
    15fe:	2327      	movs	r3, #39	; 0x27
    1600:	9d08      	ldr	r5, [sp, #32]
    1602:	5ceb      	ldrb	r3, [r5, r3]
    1604:	2b00      	cmp	r3, #0
    1606:	d101      	bne.n	160c <usart_init+0x200>
		ctrla |= SERCOM_USART_CTRLA_MODE(0x1);
    1608:	2304      	movs	r3, #4
    160a:	4319      	orrs	r1, r3
	ctrlb =  
		#ifdef FEATURE_USART_IRDA
			(config->encoding_format_enable << SERCOM_USART_CTRLB_ENC_Pos) |
		#endif
		#ifdef FEATURE_USART_START_FRAME_DECTION
			(config->start_frame_detection_enable << SERCOM_USART_CTRLB_SFDE_Pos) |
    160c:	9d08      	ldr	r5, [sp, #32]
    160e:	7f28      	ldrb	r0, [r5, #28]
    1610:	0240      	lsls	r0, r0, #9
	}

	/* Set stopbits and enable transceivers */
	ctrlb =  
		#ifdef FEATURE_USART_IRDA
			(config->encoding_format_enable << SERCOM_USART_CTRLB_ENC_Pos) |
    1612:	7e6b      	ldrb	r3, [r5, #25]
    1614:	029b      	lsls	r3, r3, #10
    1616:	4318      	orrs	r0, r3
		#endif
		#ifdef FEATURE_USART_START_FRAME_DECTION
			(config->start_frame_detection_enable << SERCOM_USART_CTRLB_SFDE_Pos) |
		#endif
		#ifdef FEATURE_USART_COLLISION_DECTION
			(config->collision_detection_enable << SERCOM_USART_CTRLB_COLDEN_Pos) |
    1618:	7f6b      	ldrb	r3, [r5, #29]
    161a:	021b      	lsls	r3, r3, #8
	ctrlb =  
		#ifdef FEATURE_USART_IRDA
			(config->encoding_format_enable << SERCOM_USART_CTRLB_ENC_Pos) |
		#endif
		#ifdef FEATURE_USART_START_FRAME_DECTION
			(config->start_frame_detection_enable << SERCOM_USART_CTRLB_SFDE_Pos) |
    161c:	4318      	orrs	r0, r3
		#endif
		#ifdef FEATURE_USART_COLLISION_DECTION
			(config->collision_detection_enable << SERCOM_USART_CTRLB_COLDEN_Pos) |
		#endif
			(config->receiver_enable << SERCOM_USART_CTRLB_RXEN_Pos) |
    161e:	2324      	movs	r3, #36	; 0x24
    1620:	5ceb      	ldrb	r3, [r5, r3]
    1622:	045b      	lsls	r3, r3, #17
		#endif
		#ifdef FEATURE_USART_START_FRAME_DECTION
			(config->start_frame_detection_enable << SERCOM_USART_CTRLB_SFDE_Pos) |
		#endif
		#ifdef FEATURE_USART_COLLISION_DECTION
			(config->collision_detection_enable << SERCOM_USART_CTRLB_COLDEN_Pos) |
    1624:	4318      	orrs	r0, r3
		#endif
			(config->receiver_enable << SERCOM_USART_CTRLB_RXEN_Pos) |
			(config->transmitter_enable << SERCOM_USART_CTRLB_TXEN_Pos);
    1626:	2325      	movs	r3, #37	; 0x25
    1628:	5ceb      	ldrb	r3, [r5, r3]
    162a:	041b      	lsls	r3, r3, #16
			(config->start_frame_detection_enable << SERCOM_USART_CTRLB_SFDE_Pos) |
		#endif
		#ifdef FEATURE_USART_COLLISION_DECTION
			(config->collision_detection_enable << SERCOM_USART_CTRLB_COLDEN_Pos) |
		#endif
			(config->receiver_enable << SERCOM_USART_CTRLB_RXEN_Pos) |
    162c:	4318      	orrs	r0, r3
				ctrlb |= USART_STOPBITS_1;
				break;		
		}
	} else {
#endif
	ctrlb |= (uint32_t)config->character_size;
    162e:	7aeb      	ldrb	r3, [r5, #11]
    1630:	4318      	orrs	r0, r3
	/* Check parity mode bits */
	if (config->parity != USART_PARITY_NONE) {
    1632:	892b      	ldrh	r3, [r5, #8]
    1634:	2bff      	cmp	r3, #255	; 0xff
    1636:	d004      	beq.n	1642 <usart_init+0x236>
		ctrla |= SERCOM_USART_CTRLA_FORM(1);
    1638:	2280      	movs	r2, #128	; 0x80
    163a:	0452      	lsls	r2, r2, #17
    163c:	4311      	orrs	r1, r2
		ctrlb |= config->parity;
    163e:	4318      	orrs	r0, r3
    1640:	e006      	b.n	1650 <usart_init+0x244>
	} else {
#ifdef FEATURE_USART_LIN_SLAVE
		if(config->lin_slave_enable) {
    1642:	9d08      	ldr	r5, [sp, #32]
    1644:	7eeb      	ldrb	r3, [r5, #27]
    1646:	2b00      	cmp	r3, #0
    1648:	d002      	beq.n	1650 <usart_init+0x244>
			ctrla |= SERCOM_USART_CTRLA_FORM(0x4);
    164a:	2380      	movs	r3, #128	; 0x80
    164c:	04db      	lsls	r3, r3, #19
    164e:	4319      	orrs	r1, r3
		ctrla |= config->lin_node;
	}
#endif

	/* Set whether module should run in standby. */
	if (config->run_in_standby || system_is_debugger_present()) {
    1650:	232c      	movs	r3, #44	; 0x2c
    1652:	9d08      	ldr	r5, [sp, #32]
    1654:	5ceb      	ldrb	r3, [r5, r3]
    1656:	2b00      	cmp	r3, #0
    1658:	d103      	bne.n	1662 <usart_init+0x256>
 * \retval false Debugger is not connected to the system
 *
 */
static inline bool system_is_debugger_present(void)
{
	return DSU->STATUSB.reg & DSU_STATUSB_DBGPRES;
    165a:	4b41      	ldr	r3, [pc, #260]	; (1760 <usart_init+0x354>)
    165c:	789b      	ldrb	r3, [r3, #2]
    165e:	079f      	lsls	r7, r3, #30
    1660:	d501      	bpl.n	1666 <usart_init+0x25a>
		ctrla |= SERCOM_USART_CTRLA_RUNSTDBY;
    1662:	2380      	movs	r3, #128	; 0x80
    1664:	4319      	orrs	r1, r3
{
	/* Sanity check arguments */
	Assert(module);
	Assert(module->hw);

	SercomUsart *const usart_hw = &(module->hw->USART);
    1666:	6832      	ldr	r2, [r6, #0]
    1668:	9f08      	ldr	r7, [sp, #32]
    166a:	9d09      	ldr	r5, [sp, #36]	; 0x24

#ifdef FEATURE_USART_SYNC_SCHEME_V2
	return (usart_hw->SYNCBUSY.reg);
    166c:	69d3      	ldr	r3, [r2, #28]
		const struct usart_module *const module)
{
	/* Sanity check */
	Assert(module);

	while (usart_is_syncing(module)) {
    166e:	2b00      	cmp	r3, #0
    1670:	d1fc      	bne.n	166c <usart_init+0x260>
    1672:	9708      	str	r7, [sp, #32]
    1674:	9509      	str	r5, [sp, #36]	; 0x24

	/* Wait until synchronization is complete */
	_usart_wait_for_sync(module);

	/* Write configuration to CTRLB */
	usart_hw->CTRLB.reg = ctrlb;
    1676:	464a      	mov	r2, r9
    1678:	6050      	str	r0, [r2, #4]
{
	/* Sanity check arguments */
	Assert(module);
	Assert(module->hw);

	SercomUsart *const usart_hw = &(module->hw->USART);
    167a:	6832      	ldr	r2, [r6, #0]

#ifdef FEATURE_USART_SYNC_SCHEME_V2
	return (usart_hw->SYNCBUSY.reg);
    167c:	69d3      	ldr	r3, [r2, #28]
		const struct usart_module *const module)
{
	/* Sanity check */
	Assert(module);

	while (usart_is_syncing(module)) {
    167e:	2b00      	cmp	r3, #0
    1680:	d1fc      	bne.n	167c <usart_init+0x270>
    1682:	9708      	str	r7, [sp, #32]
    1684:	9509      	str	r5, [sp, #36]	; 0x24

	/* Wait until synchronization is complete */
	_usart_wait_for_sync(module);

	/* Write configuration to CTRLA */
	usart_hw->CTRLA.reg = ctrla;
    1686:	464b      	mov	r3, r9
    1688:	6019      	str	r1, [r3, #0]
{
	/* Sanity check arguments */
	Assert(config);

	/* Default configuration values */
	config->mux_position = SYSTEM_PINMUX_GPIO;
    168a:	2280      	movs	r2, #128	; 0x80
    168c:	ab18      	add	r3, sp, #96	; 0x60
    168e:	701a      	strb	r2, [r3, #0]
	config->direction    = SYSTEM_PINMUX_PIN_DIR_INPUT;
    1690:	2200      	movs	r2, #0
    1692:	705a      	strb	r2, [r3, #1]
	config->input_pull   = SYSTEM_PINMUX_PIN_PULL_UP;
	config->powersave    = false;
    1694:	70da      	strb	r2, [r3, #3]
	}

	struct system_pinmux_config pin_conf;
	system_pinmux_get_config_defaults(&pin_conf);
	pin_conf.direction = SYSTEM_PINMUX_PIN_DIR_INPUT;
	pin_conf.input_pull = SYSTEM_PINMUX_PIN_PULL_NONE;
    1696:	709a      	strb	r2, [r3, #2]

	uint32_t pad_pinmuxes[] = {
    1698:	6b3d      	ldr	r5, [r7, #48]	; 0x30
    169a:	9514      	str	r5, [sp, #80]	; 0x50
    169c:	6b7f      	ldr	r7, [r7, #52]	; 0x34
    169e:	9715      	str	r7, [sp, #84]	; 0x54
    16a0:	9808      	ldr	r0, [sp, #32]
    16a2:	6b80      	ldr	r0, [r0, #56]	; 0x38
    16a4:	9016      	str	r0, [sp, #88]	; 0x58
    16a6:	9908      	ldr	r1, [sp, #32]
    16a8:	6bc9      	ldr	r1, [r1, #60]	; 0x3c
    16aa:	9117      	str	r1, [sp, #92]	; 0x5c
    16ac:	2700      	movs	r7, #0
		if (current_pinmux == PINMUX_DEFAULT) {
			current_pinmux = _sercom_get_default_pad(hw, pad);
		}

		if (current_pinmux != PINMUX_UNUSED) {
			pin_conf.mux_position = current_pinmux & 0xFFFF;
    16ae:	aa18      	add	r2, sp, #96	; 0x60
    16b0:	9d09      	ldr	r5, [sp, #36]	; 0x24
    16b2:	46a0      	mov	r8, r4
    16b4:	1c14      	adds	r4, r2, #0
    16b6:	b2f9      	uxtb	r1, r7
    16b8:	00bb      	lsls	r3, r7, #2
			config->pinmux_pad2, config->pinmux_pad3
		};

	/* Configure the SERCOM pins according to the user configuration */
	for (uint8_t pad = 0; pad < 4; pad++) {
		uint32_t current_pinmux = pad_pinmuxes[pad];
    16ba:	aa14      	add	r2, sp, #80	; 0x50
    16bc:	5898      	ldr	r0, [r3, r2]

		if (current_pinmux == PINMUX_DEFAULT) {
    16be:	2800      	cmp	r0, #0
    16c0:	d103      	bne.n	16ca <usart_init+0x2be>
			current_pinmux = _sercom_get_default_pad(hw, pad);
    16c2:	4640      	mov	r0, r8
    16c4:	4b27      	ldr	r3, [pc, #156]	; (1764 <usart_init+0x358>)
    16c6:	58eb      	ldr	r3, [r5, r3]
    16c8:	4798      	blx	r3
		}

		if (current_pinmux != PINMUX_UNUSED) {
    16ca:	1c43      	adds	r3, r0, #1
    16cc:	d006      	beq.n	16dc <usart_init+0x2d0>
			pin_conf.mux_position = current_pinmux & 0xFFFF;
    16ce:	7020      	strb	r0, [r4, #0]
			system_pinmux_pin_set_config(current_pinmux >> 16, &pin_conf);
    16d0:	0c00      	lsrs	r0, r0, #16
    16d2:	b2c0      	uxtb	r0, r0
    16d4:	1c21      	adds	r1, r4, #0
    16d6:	4b24      	ldr	r3, [pc, #144]	; (1768 <usart_init+0x35c>)
    16d8:	58eb      	ldr	r3, [r5, r3]
    16da:	4798      	blx	r3
    16dc:	3701      	adds	r7, #1
			config->pinmux_pad0, config->pinmux_pad1,
			config->pinmux_pad2, config->pinmux_pad3
		};

	/* Configure the SERCOM pins according to the user configuration */
	for (uint8_t pad = 0; pad < 4; pad++) {
    16de:	2f04      	cmp	r7, #4
    16e0:	d1e9      	bne.n	16b6 <usart_init+0x2aa>
	}

#if USART_CALLBACK_MODE == true
	/* Initialize parameters */
	for (uint32_t i = 0; i < USART_CALLBACK_N; i++) {
		module->callback[i]            = NULL;
    16e2:	2300      	movs	r3, #0
    16e4:	60f3      	str	r3, [r6, #12]
    16e6:	6133      	str	r3, [r6, #16]
    16e8:	6173      	str	r3, [r6, #20]
    16ea:	61b3      	str	r3, [r6, #24]
    16ec:	61f3      	str	r3, [r6, #28]
    16ee:	6233      	str	r3, [r6, #32]
	}

	module->tx_buffer_ptr              = NULL;
    16f0:	62b3      	str	r3, [r6, #40]	; 0x28
	module->rx_buffer_ptr              = NULL;
    16f2:	6273      	str	r3, [r6, #36]	; 0x24
	module->remaining_tx_buffer_length = 0x0000;
    16f4:	2200      	movs	r2, #0
    16f6:	85f3      	strh	r3, [r6, #46]	; 0x2e
	module->remaining_rx_buffer_length = 0x0000;
    16f8:	85b3      	strh	r3, [r6, #44]	; 0x2c
	module->callback_reg_mask          = 0x00;
    16fa:	2330      	movs	r3, #48	; 0x30
    16fc:	54f2      	strb	r2, [r6, r3]
	module->callback_enable_mask       = 0x00;
    16fe:	2331      	movs	r3, #49	; 0x31
    1700:	54f2      	strb	r2, [r6, r3]
	module->rx_status                  = STATUS_OK;
    1702:	2332      	movs	r3, #50	; 0x32
    1704:	54f2      	strb	r2, [r6, r3]
	module->tx_status                  = STATUS_OK;
    1706:	2333      	movs	r3, #51	; 0x33
    1708:	54f2      	strb	r2, [r6, r3]

	/* Set interrupt handler and register USART software module struct in
	 * look-up table */
	uint8_t instance_index = _sercom_get_sercom_inst_index(module->hw);
    170a:	6830      	ldr	r0, [r6, #0]
    170c:	4b0c      	ldr	r3, [pc, #48]	; (1740 <usart_init+0x334>)
    170e:	58eb      	ldr	r3, [r5, r3]
    1710:	4798      	blx	r3
    1712:	1c04      	adds	r4, r0, #0
	_sercom_set_handler(instance_index, _usart_interrupt_handler);
    1714:	4b15      	ldr	r3, [pc, #84]	; (176c <usart_init+0x360>)
    1716:	58eb      	ldr	r3, [r5, r3]
    1718:	930a      	str	r3, [sp, #40]	; 0x28
    171a:	1c19      	adds	r1, r3, #0
    171c:	4b14      	ldr	r3, [pc, #80]	; (1770 <usart_init+0x364>)
    171e:	58eb      	ldr	r3, [r5, r3]
    1720:	4798      	blx	r3
	_sercom_instances[instance_index] = module;
    1722:	4b14      	ldr	r3, [pc, #80]	; (1774 <usart_init+0x368>)
    1724:	58eb      	ldr	r3, [r5, r3]
    1726:	00a4      	lsls	r4, r4, #2
    1728:	50e6      	str	r6, [r4, r3]
#endif

	return status_code;
    172a:	2000      	movs	r0, #0
}
    172c:	b01b      	add	sp, #108	; 0x6c
    172e:	bc3c      	pop	{r2, r3, r4, r5}
    1730:	4690      	mov	r8, r2
    1732:	4699      	mov	r9, r3
    1734:	46a2      	mov	sl, r4
    1736:	46ab      	mov	fp, r5
    1738:	bdf0      	pop	{r4, r5, r6, r7, pc}
    173a:	46c0      	nop			; (mov r8, r8)
    173c:	00003306 	.word	0x00003306
    1740:	00000204 	.word	0x00000204
    1744:	40000400 	.word	0x40000400
    1748:	00000070 	.word	0x00000070
    174c:	0000018c 	.word	0x0000018c
    1750:	00000188 	.word	0x00000188
    1754:	00000114 	.word	0x00000114
    1758:	000000b4 	.word	0x000000b4
    175c:	00000018 	.word	0x00000018
    1760:	41002000 	.word	0x41002000
    1764:	00000218 	.word	0x00000218
    1768:	0000020c 	.word	0x0000020c
    176c:	0000019c 	.word	0x0000019c
    1770:	000000ec 	.word	0x000000ec
    1774:	000000e0 	.word	0x000000e0

00001778 <_usart_write_buffer>:
 */
enum status_code _usart_write_buffer(
		struct usart_module *const module,
		uint8_t *tx_data,
		uint16_t length)
{
    1778:	b5f0      	push	{r4, r5, r6, r7, lr}
    177a:	4647      	mov	r7, r8
    177c:	b480      	push	{r7}
    177e:	b082      	sub	sp, #8
    1780:	1c05      	adds	r5, r0, #0
    1782:	1c0f      	adds	r7, r1, #0
    1784:	4690      	mov	r8, r2
    1786:	4c0f      	ldr	r4, [pc, #60]	; (17c4 <_usart_write_buffer+0x4c>)
    1788:	447c      	add	r4, pc
	Assert(module);
	Assert(module->hw);
	Assert(tx_data);

	/* Get a pointer to the hardware module instance */
	SercomUsart *const usart_hw = &(module->hw->USART);
    178a:	6806      	ldr	r6, [r0, #0]
 * are only re-enabled upon leaving the outermost nested critical section.
 *
 */
static inline void system_interrupt_enter_critical_section(void)
{
	cpu_irq_enter_critical();
    178c:	4b0e      	ldr	r3, [pc, #56]	; (17c8 <_usart_write_buffer+0x50>)
    178e:	58e3      	ldr	r3, [r4, r3]
    1790:	4798      	blx	r3

	system_interrupt_enter_critical_section();

	/* Check if the USART transmitter is busy */
	if (module->remaining_tx_buffer_length > 0) {
    1792:	8deb      	ldrh	r3, [r5, #46]	; 0x2e
    1794:	b29b      	uxth	r3, r3
    1796:	2b00      	cmp	r3, #0
    1798:	d004      	beq.n	17a4 <_usart_write_buffer+0x2c>
 * are only re-enabled upon leaving the outermost nested critical section.
 *
 */
static inline void system_interrupt_leave_critical_section(void)
{
	cpu_irq_leave_critical();
    179a:	4b0c      	ldr	r3, [pc, #48]	; (17cc <_usart_write_buffer+0x54>)
    179c:	58e3      	ldr	r3, [r4, r3]
    179e:	4798      	blx	r3
		system_interrupt_leave_critical_section();
		return STATUS_BUSY;
    17a0:	2005      	movs	r0, #5
    17a2:	e00b      	b.n	17bc <_usart_write_buffer+0x44>
	}

	/* Write parameters to the device instance */
	module->remaining_tx_buffer_length = length;
    17a4:	4643      	mov	r3, r8
    17a6:	85eb      	strh	r3, [r5, #46]	; 0x2e
    17a8:	4b08      	ldr	r3, [pc, #32]	; (17cc <_usart_write_buffer+0x54>)
    17aa:	58e3      	ldr	r3, [r4, r3]
    17ac:	4798      	blx	r3

	system_interrupt_leave_critical_section();

	module->tx_buffer_ptr              = tx_data;
    17ae:	62af      	str	r7, [r5, #40]	; 0x28
	module->tx_status                  = STATUS_BUSY;
    17b0:	2205      	movs	r2, #5
    17b2:	2333      	movs	r3, #51	; 0x33
    17b4:	54ea      	strb	r2, [r5, r3]

	/* Enable the Data Register Empty Interrupt */
	usart_hw->INTENSET.reg = SERCOM_USART_INTFLAG_DRE;
    17b6:	2301      	movs	r3, #1
    17b8:	75b3      	strb	r3, [r6, #22]

	return STATUS_OK;
    17ba:	2000      	movs	r0, #0
}
    17bc:	b002      	add	sp, #8
    17be:	bc04      	pop	{r2}
    17c0:	4690      	mov	r8, r2
    17c2:	bdf0      	pop	{r4, r5, r6, r7, pc}
    17c4:	00002fa0 	.word	0x00002fa0
    17c8:	00000084 	.word	0x00000084
    17cc:	00000004 	.word	0x00000004

000017d0 <_usart_read_buffer>:
 */
enum status_code _usart_read_buffer(
		struct usart_module *const module,
		uint8_t *rx_data,
		uint16_t length)
{
    17d0:	b5f0      	push	{r4, r5, r6, r7, lr}
    17d2:	4647      	mov	r7, r8
    17d4:	b480      	push	{r7}
    17d6:	b082      	sub	sp, #8
    17d8:	1c04      	adds	r4, r0, #0
    17da:	1c0f      	adds	r7, r1, #0
    17dc:	4690      	mov	r8, r2
    17de:	4d14      	ldr	r5, [pc, #80]	; (1830 <_usart_read_buffer+0x60>)
    17e0:	447d      	add	r5, pc
	Assert(module);
	Assert(module->hw);
	Assert(rx_data);

	/* Get a pointer to the hardware module instance */
	SercomUsart *const usart_hw = &(module->hw->USART);
    17e2:	6806      	ldr	r6, [r0, #0]
 * are only re-enabled upon leaving the outermost nested critical section.
 *
 */
static inline void system_interrupt_enter_critical_section(void)
{
	cpu_irq_enter_critical();
    17e4:	4b13      	ldr	r3, [pc, #76]	; (1834 <_usart_read_buffer+0x64>)
    17e6:	58eb      	ldr	r3, [r5, r3]
    17e8:	4798      	blx	r3

	system_interrupt_enter_critical_section();

	/* Check if the USART receiver is busy */
	if (module->remaining_rx_buffer_length > 0) {
    17ea:	8da3      	ldrh	r3, [r4, #44]	; 0x2c
    17ec:	b29b      	uxth	r3, r3
    17ee:	2b00      	cmp	r3, #0
    17f0:	d004      	beq.n	17fc <_usart_read_buffer+0x2c>
 * are only re-enabled upon leaving the outermost nested critical section.
 *
 */
static inline void system_interrupt_leave_critical_section(void)
{
	cpu_irq_leave_critical();
    17f2:	4b11      	ldr	r3, [pc, #68]	; (1838 <_usart_read_buffer+0x68>)
    17f4:	58eb      	ldr	r3, [r5, r3]
    17f6:	4798      	blx	r3
		system_interrupt_leave_critical_section();
		return STATUS_BUSY;
    17f8:	2005      	movs	r0, #5
    17fa:	e015      	b.n	1828 <_usart_read_buffer+0x58>
	}

	/* Set length for the buffer and the pointer, and let
	 * the interrupt handler do the rest */
	module->remaining_rx_buffer_length = length;
    17fc:	4643      	mov	r3, r8
    17fe:	85a3      	strh	r3, [r4, #44]	; 0x2c
    1800:	4b0d      	ldr	r3, [pc, #52]	; (1838 <_usart_read_buffer+0x68>)
    1802:	58eb      	ldr	r3, [r5, r3]
    1804:	4798      	blx	r3

	system_interrupt_leave_critical_section();

	module->rx_buffer_ptr              = rx_data;
    1806:	6267      	str	r7, [r4, #36]	; 0x24
	module->rx_status                  = STATUS_BUSY;
    1808:	2205      	movs	r2, #5
    180a:	2332      	movs	r3, #50	; 0x32
    180c:	54e2      	strb	r2, [r4, r3]

	/* Enable the RX Complete Interrupt */
	usart_hw->INTENSET.reg = SERCOM_USART_INTFLAG_RXC;
    180e:	2304      	movs	r3, #4
    1810:	75b3      	strb	r3, [r6, #22]

#ifdef FEATURE_USART_LIN_SLAVE
	/* Enable the break character is received Interrupt */
	if(module->lin_slave_enabled) {
    1812:	7a23      	ldrb	r3, [r4, #8]
    1814:	2b00      	cmp	r3, #0
    1816:	d001      	beq.n	181c <_usart_read_buffer+0x4c>
		usart_hw->INTENSET.reg = SERCOM_USART_INTFLAG_RXBRK;
    1818:	2320      	movs	r3, #32
    181a:	75b3      	strb	r3, [r6, #22]
	}
#endif

#ifdef FEATURE_USART_START_FRAME_DECTION
	/* Enable a start condition is detected Interrupt */
	if(module->start_frame_detection_enabled) {
    181c:	7a63      	ldrb	r3, [r4, #9]
		usart_hw->INTENSET.reg = SERCOM_USART_INTFLAG_RXS;
	}
#endif

	return STATUS_OK;
    181e:	2000      	movs	r0, #0
	}
#endif

#ifdef FEATURE_USART_START_FRAME_DECTION
	/* Enable a start condition is detected Interrupt */
	if(module->start_frame_detection_enabled) {
    1820:	2b00      	cmp	r3, #0
    1822:	d001      	beq.n	1828 <_usart_read_buffer+0x58>
		usart_hw->INTENSET.reg = SERCOM_USART_INTFLAG_RXS;
    1824:	2308      	movs	r3, #8
    1826:	75b3      	strb	r3, [r6, #22]
	}
#endif

	return STATUS_OK;
}
    1828:	b002      	add	sp, #8
    182a:	bc04      	pop	{r2}
    182c:	4690      	mov	r8, r2
    182e:	bdf0      	pop	{r4, r5, r6, r7, pc}
    1830:	00002f48 	.word	0x00002f48
    1834:	00000084 	.word	0x00000084
    1838:	00000004 	.word	0x00000004

0000183c <usart_register_callback>:
	/* Sanity check arguments */
	Assert(module);
	Assert(callback_func);

	/* Register callback function */
	module->callback[callback_type] = callback_func;
    183c:	1c93      	adds	r3, r2, #2
    183e:	009b      	lsls	r3, r3, #2
    1840:	18c3      	adds	r3, r0, r3
    1842:	6059      	str	r1, [r3, #4]

	/* Set the bit corresponding to the callback_type */
	module->callback_reg_mask |= (1 << callback_type);
    1844:	2301      	movs	r3, #1
    1846:	4093      	lsls	r3, r2
    1848:	1c1a      	adds	r2, r3, #0
    184a:	2330      	movs	r3, #48	; 0x30
    184c:	5cc1      	ldrb	r1, [r0, r3]
    184e:	430a      	orrs	r2, r1
    1850:	54c2      	strb	r2, [r0, r3]
}
    1852:	4770      	bx	lr

00001854 <usart_write_buffer_job>:
 */
enum status_code usart_write_buffer_job(
		struct usart_module *const module,
		uint8_t *tx_data,
		uint16_t length)
{
    1854:	b530      	push	{r4, r5, lr}
    1856:	b083      	sub	sp, #12
    1858:	4c07      	ldr	r4, [pc, #28]	; (1878 <usart_write_buffer_job+0x24>)
    185a:	447c      	add	r4, pc
	/* Sanity check arguments */
	Assert(module);
	Assert(tx_data);

	if (length == 0) {
		return STATUS_ERR_INVALID_ARG;
    185c:	2317      	movs	r3, #23
{
	/* Sanity check arguments */
	Assert(module);
	Assert(tx_data);

	if (length == 0) {
    185e:	2a00      	cmp	r2, #0
    1860:	d007      	beq.n	1872 <usart_write_buffer_job+0x1e>
		return STATUS_ERR_INVALID_ARG;
	}

	/* Check that the receiver is enabled */
	if (!(module->transmitter_enabled)) {
    1862:	79c5      	ldrb	r5, [r0, #7]
		return STATUS_ERR_DENIED;
    1864:	231c      	movs	r3, #28
	if (length == 0) {
		return STATUS_ERR_INVALID_ARG;
	}

	/* Check that the receiver is enabled */
	if (!(module->transmitter_enabled)) {
    1866:	2d00      	cmp	r5, #0
    1868:	d003      	beq.n	1872 <usart_write_buffer_job+0x1e>
		return STATUS_ERR_DENIED;
	}

	/* Issue internal asynchronous write */
	return _usart_write_buffer(module, tx_data, length);
    186a:	4b04      	ldr	r3, [pc, #16]	; (187c <usart_write_buffer_job+0x28>)
    186c:	58e3      	ldr	r3, [r4, r3]
    186e:	4798      	blx	r3
    1870:	1c03      	adds	r3, r0, #0
}
    1872:	1c18      	adds	r0, r3, #0
    1874:	b003      	add	sp, #12
    1876:	bd30      	pop	{r4, r5, pc}
    1878:	00002ece 	.word	0x00002ece
    187c:	00000098 	.word	0x00000098

00001880 <usart_read_buffer_job>:
 */
enum status_code usart_read_buffer_job(
		struct usart_module *const module,
		uint8_t *rx_data,
		uint16_t length)
{
    1880:	b530      	push	{r4, r5, lr}
    1882:	b083      	sub	sp, #12
    1884:	4c07      	ldr	r4, [pc, #28]	; (18a4 <usart_read_buffer_job+0x24>)
    1886:	447c      	add	r4, pc
	/* Sanity check arguments */
	Assert(module);
	Assert(rx_data);

	if (length == 0) {
		return STATUS_ERR_INVALID_ARG;
    1888:	2317      	movs	r3, #23
{
	/* Sanity check arguments */
	Assert(module);
	Assert(rx_data);

	if (length == 0) {
    188a:	2a00      	cmp	r2, #0
    188c:	d007      	beq.n	189e <usart_read_buffer_job+0x1e>
		return STATUS_ERR_INVALID_ARG;
	}

	/* Check that the receiver is enabled */
	if (!(module->receiver_enabled)) {
    188e:	7985      	ldrb	r5, [r0, #6]
		return STATUS_ERR_DENIED;
    1890:	231c      	movs	r3, #28
	if (length == 0) {
		return STATUS_ERR_INVALID_ARG;
	}

	/* Check that the receiver is enabled */
	if (!(module->receiver_enabled)) {
    1892:	2d00      	cmp	r5, #0
    1894:	d003      	beq.n	189e <usart_read_buffer_job+0x1e>
		return STATUS_ERR_DENIED;
	}

	/* Issue internal asynchronous read */
	return _usart_read_buffer(module, rx_data, length);
    1896:	4b04      	ldr	r3, [pc, #16]	; (18a8 <usart_read_buffer_job+0x28>)
    1898:	58e3      	ldr	r3, [r4, r3]
    189a:	4798      	blx	r3
    189c:	1c03      	adds	r3, r0, #0
}
    189e:	1c18      	adds	r0, r3, #0
    18a0:	b003      	add	sp, #12
    18a2:	bd30      	pop	{r4, r5, pc}
    18a4:	00002ea2 	.word	0x00002ea2
    18a8:	000000ac 	.word	0x000000ac

000018ac <usart_abort_job>:
	/* Sanity check arguments */
	Assert(module);
	Assert(module->hw);

	/* Get a pointer to the hardware module instance */
	SercomUsart *const usart_hw = &(module->hw->USART);
    18ac:	6803      	ldr	r3, [r0, #0]

	switch(transceiver_type) {
    18ae:	2900      	cmp	r1, #0
    18b0:	d002      	beq.n	18b8 <usart_abort_job+0xc>
    18b2:	2901      	cmp	r1, #1
    18b4:	d005      	beq.n	18c2 <usart_abort_job+0x16>
    18b6:	e008      	b.n	18ca <usart_abort_job+0x1e>
		case USART_TRANSCEIVER_RX:
			/* Clear the interrupt flag in order to prevent the receive
			 * complete callback to fire */
			usart_hw->INTFLAG.reg = SERCOM_USART_INTFLAG_RXC;
    18b8:	2204      	movs	r2, #4
    18ba:	761a      	strb	r2, [r3, #24]

			/* Clear the software reception buffer */
			module->remaining_rx_buffer_length = 0;
    18bc:	2300      	movs	r3, #0
    18be:	8583      	strh	r3, [r0, #44]	; 0x2c

			break;
    18c0:	e003      	b.n	18ca <usart_abort_job+0x1e>

		case USART_TRANSCEIVER_TX:
			/* Clear the interrupt flag in order to prevent the receive
			 * complete callback to fire */
			usart_hw->INTFLAG.reg = SERCOM_USART_INTFLAG_TXC;
    18c2:	2202      	movs	r2, #2
    18c4:	761a      	strb	r2, [r3, #24]

			/* Clear the software reception buffer */
			module->remaining_tx_buffer_length = 0;
    18c6:	2300      	movs	r3, #0
    18c8:	85c3      	strh	r3, [r0, #46]	; 0x2e

			break;
	}
}
    18ca:	4770      	bx	lr

000018cc <_usart_interrupt_handler>:
 * \param[in]  instance  ID of the SERCOM instance calling the interrupt
 *                       handler.
 */
void _usart_interrupt_handler(
		uint8_t instance)
{
    18cc:	b5f0      	push	{r4, r5, r6, r7, lr}
    18ce:	b083      	sub	sp, #12
    18d0:	4b66      	ldr	r3, [pc, #408]	; (1a6c <_usart_interrupt_handler+0x1a0>)
    18d2:	447b      	add	r3, pc
	uint16_t callback_status;
	uint8_t error_code;


	/* Get device instance from the look-up table */
	struct usart_module *module
    18d4:	4a66      	ldr	r2, [pc, #408]	; (1a70 <_usart_interrupt_handler+0x1a4>)
    18d6:	589a      	ldr	r2, [r3, r2]
    18d8:	0080      	lsls	r0, r0, #2
    18da:	5885      	ldr	r5, [r0, r2]
		= (struct usart_module *)_sercom_instances[instance];

	/* Pointer to the hardware module instance */
	SercomUsart *const usart_hw
		= &(module->hw->USART);
    18dc:	682c      	ldr	r4, [r5, #0]
	Assert(module->hw);

	SercomUsart *const usart_hw = &(module->hw->USART);

#ifdef FEATURE_USART_SYNC_SCHEME_V2
	return (usart_hw->SYNCBUSY.reg);
    18de:	69e3      	ldr	r3, [r4, #28]
		const struct usart_module *const module)
{
	/* Sanity check */
	Assert(module);

	while (usart_is_syncing(module)) {
    18e0:	2b00      	cmp	r3, #0
    18e2:	d1fc      	bne.n	18de <_usart_interrupt_handler+0x12>

	/* Wait for the synchronization to complete */
	_usart_wait_for_sync(module);

	/* Read and mask interrupt flag register */
	interrupt_status = usart_hw->INTFLAG.reg;
    18e4:	7e23      	ldrb	r3, [r4, #24]
	interrupt_status &= usart_hw->INTENSET.reg;
    18e6:	7da6      	ldrb	r6, [r4, #22]
    18e8:	401e      	ands	r6, r3
	callback_status = module->callback_reg_mask &
			module->callback_enable_mask;
    18ea:	2331      	movs	r3, #49	; 0x31
	_usart_wait_for_sync(module);

	/* Read and mask interrupt flag register */
	interrupt_status = usart_hw->INTFLAG.reg;
	interrupt_status &= usart_hw->INTENSET.reg;
	callback_status = module->callback_reg_mask &
    18ec:	5ceb      	ldrb	r3, [r5, r3]
    18ee:	2230      	movs	r2, #48	; 0x30
    18f0:	5caf      	ldrb	r7, [r5, r2]
    18f2:	401f      	ands	r7, r3
			module->callback_enable_mask;

	/* Check if a DATA READY interrupt has occurred,
	 * and if there is more to transfer */
	if (interrupt_status & SERCOM_USART_INTFLAG_DRE) {
    18f4:	07f1      	lsls	r1, r6, #31
    18f6:	d520      	bpl.n	193a <_usart_interrupt_handler+0x6e>
		if (module->remaining_tx_buffer_length) {
    18f8:	8deb      	ldrh	r3, [r5, #46]	; 0x2e
    18fa:	b29b      	uxth	r3, r3
    18fc:	2b00      	cmp	r3, #0
    18fe:	d01a      	beq.n	1936 <_usart_interrupt_handler+0x6a>
			/* Write value will be at least 8-bits long */
			uint16_t data_to_send = *(module->tx_buffer_ptr);
    1900:	6aab      	ldr	r3, [r5, #40]	; 0x28
    1902:	781a      	ldrb	r2, [r3, #0]
    1904:	b2d2      	uxtb	r2, r2
			/* Increment 8-bit pointer */
			(module->tx_buffer_ptr)++;
    1906:	1c59      	adds	r1, r3, #1
    1908:	62a9      	str	r1, [r5, #40]	; 0x28

			if (module->character_size == USART_CHARACTER_SIZE_9BIT) {
    190a:	7969      	ldrb	r1, [r5, #5]
    190c:	2901      	cmp	r1, #1
    190e:	d104      	bne.n	191a <_usart_interrupt_handler+0x4e>
				data_to_send |= (*(module->tx_buffer_ptr) << 8);
    1910:	7859      	ldrb	r1, [r3, #1]
    1912:	0209      	lsls	r1, r1, #8
    1914:	430a      	orrs	r2, r1
				/* Increment 8-bit pointer */
				(module->tx_buffer_ptr)++;
    1916:	3302      	adds	r3, #2
    1918:	62ab      	str	r3, [r5, #40]	; 0x28
			}
			/* Write the data to send */
			usart_hw->DATA.reg = (data_to_send & SERCOM_USART_DATA_MASK);
    191a:	05d3      	lsls	r3, r2, #23
    191c:	0ddb      	lsrs	r3, r3, #23
    191e:	8523      	strh	r3, [r4, #40]	; 0x28

			if (--(module->remaining_tx_buffer_length) == 0) {
    1920:	8deb      	ldrh	r3, [r5, #46]	; 0x2e
    1922:	3b01      	subs	r3, #1
    1924:	b29b      	uxth	r3, r3
    1926:	85eb      	strh	r3, [r5, #46]	; 0x2e
    1928:	2b00      	cmp	r3, #0
    192a:	d106      	bne.n	193a <_usart_interrupt_handler+0x6e>
				/* Disable the Data Register Empty Interrupt */
				usart_hw->INTENCLR.reg = SERCOM_USART_INTFLAG_DRE;
    192c:	2301      	movs	r3, #1
    192e:	7523      	strb	r3, [r4, #20]
				/* Enable Transmission Complete interrupt */
				usart_hw->INTENSET.reg = SERCOM_USART_INTFLAG_TXC;
    1930:	2302      	movs	r3, #2
    1932:	75a3      	strb	r3, [r4, #22]
    1934:	e001      	b.n	193a <_usart_interrupt_handler+0x6e>

			}
		} else {
			usart_hw->INTENCLR.reg = SERCOM_USART_INTFLAG_DRE;
    1936:	2301      	movs	r3, #1
    1938:	7523      	strb	r3, [r4, #20]

	/* Check if the Transmission Complete interrupt has occurred and
	 * that the transmit buffer is empty */
	}

	if (interrupt_status & SERCOM_USART_INTFLAG_TXC) {
    193a:	07b2      	lsls	r2, r6, #30
    193c:	d509      	bpl.n	1952 <_usart_interrupt_handler+0x86>

		/* Disable TX Complete Interrupt, and set STATUS_OK */
		usart_hw->INTENCLR.reg = SERCOM_USART_INTFLAG_TXC;
    193e:	2302      	movs	r3, #2
    1940:	7523      	strb	r3, [r4, #20]
		module->tx_status = STATUS_OK;
    1942:	2200      	movs	r2, #0
    1944:	2333      	movs	r3, #51	; 0x33
    1946:	54ea      	strb	r2, [r5, r3]

		/* Run callback if registered and enabled */
		if (callback_status & (1 << USART_CALLBACK_BUFFER_TRANSMITTED)) {
    1948:	07fb      	lsls	r3, r7, #31
    194a:	d502      	bpl.n	1952 <_usart_interrupt_handler+0x86>
			(*(module->callback[USART_CALLBACK_BUFFER_TRANSMITTED]))(module);
    194c:	1c28      	adds	r0, r5, #0
    194e:	68e9      	ldr	r1, [r5, #12]
    1950:	4788      	blx	r1

	/* Check if the Receive Complete interrupt has occurred, and that
	 * there's more data to receive */
	}

	if (interrupt_status & SERCOM_USART_INTFLAG_RXC) {
    1952:	0772      	lsls	r2, r6, #29
    1954:	d56a      	bpl.n	1a2c <_usart_interrupt_handler+0x160>

		if (module->remaining_rx_buffer_length) {
    1956:	8dab      	ldrh	r3, [r5, #44]	; 0x2c
    1958:	b29b      	uxth	r3, r3
    195a:	2b00      	cmp	r3, #0
    195c:	d064      	beq.n	1a28 <_usart_interrupt_handler+0x15c>
			/* Read out the status code and mask away all but the 4 LSBs*/
			error_code = (uint8_t)(usart_hw->STATUS.reg & SERCOM_USART_STATUS_MASK);
    195e:	8b63      	ldrh	r3, [r4, #26]
    1960:	b2db      	uxtb	r3, r3
#if !SAMD20
			/* CTS status should not be considered as an error */
			if(error_code & SERCOM_USART_STATUS_CTS) {
    1962:	0719      	lsls	r1, r3, #28
    1964:	d402      	bmi.n	196c <_usart_interrupt_handler+0xa0>

	if (interrupt_status & SERCOM_USART_INTFLAG_RXC) {

		if (module->remaining_rx_buffer_length) {
			/* Read out the status code and mask away all but the 4 LSBs*/
			error_code = (uint8_t)(usart_hw->STATUS.reg & SERCOM_USART_STATUS_MASK);
    1966:	223f      	movs	r2, #63	; 0x3f
    1968:	4013      	ands	r3, r2
    196a:	e001      	b.n	1970 <_usart_interrupt_handler+0xa4>
#if !SAMD20
			/* CTS status should not be considered as an error */
			if(error_code & SERCOM_USART_STATUS_CTS) {
				error_code &= ~SERCOM_USART_STATUS_CTS;
    196c:	2237      	movs	r2, #55	; 0x37
    196e:	4013      	ands	r3, r2
			if(error_code & SERCOM_USART_STATUS_TXE) {
				error_code &= ~SERCOM_USART_STATUS_TXE;
			}
#endif
			/* Check if an error has occurred during the receiving */
			if (error_code) {
    1970:	2b00      	cmp	r3, #0
    1972:	d037      	beq.n	19e4 <_usart_interrupt_handler+0x118>
				/* Check which error occurred */
				if (error_code & SERCOM_USART_STATUS_FERR) {
    1974:	079a      	lsls	r2, r3, #30
    1976:	d507      	bpl.n	1988 <_usart_interrupt_handler+0xbc>
					/* Store the error code and clear flag by writing 1 to it */
					module->rx_status = STATUS_ERR_BAD_FORMAT;
    1978:	221a      	movs	r2, #26
    197a:	2332      	movs	r3, #50	; 0x32
    197c:	54ea      	strb	r2, [r5, r3]
					usart_hw->STATUS.reg |= SERCOM_USART_STATUS_FERR;
    197e:	8b62      	ldrh	r2, [r4, #26]
    1980:	2302      	movs	r3, #2
    1982:	4313      	orrs	r3, r2
    1984:	8363      	strh	r3, [r4, #26]
    1986:	e027      	b.n	19d8 <_usart_interrupt_handler+0x10c>
				} else if (error_code & SERCOM_USART_STATUS_BUFOVF) {
    1988:	0759      	lsls	r1, r3, #29
    198a:	d507      	bpl.n	199c <_usart_interrupt_handler+0xd0>
					/* Store the error code and clear flag by writing 1 to it */
					module->rx_status = STATUS_ERR_OVERFLOW;
    198c:	221e      	movs	r2, #30
    198e:	2332      	movs	r3, #50	; 0x32
    1990:	54ea      	strb	r2, [r5, r3]
					usart_hw->STATUS.reg |= SERCOM_USART_STATUS_BUFOVF;
    1992:	8b62      	ldrh	r2, [r4, #26]
    1994:	2304      	movs	r3, #4
    1996:	4313      	orrs	r3, r2
    1998:	8363      	strh	r3, [r4, #26]
    199a:	e01d      	b.n	19d8 <_usart_interrupt_handler+0x10c>
				} else if (error_code & SERCOM_USART_STATUS_PERR) {
    199c:	07da      	lsls	r2, r3, #31
    199e:	d507      	bpl.n	19b0 <_usart_interrupt_handler+0xe4>
					/* Store the error code and clear flag by writing 1 to it */
					module->rx_status = STATUS_ERR_BAD_DATA;
    19a0:	2213      	movs	r2, #19
    19a2:	2332      	movs	r3, #50	; 0x32
    19a4:	54ea      	strb	r2, [r5, r3]
					usart_hw->STATUS.reg |= SERCOM_USART_STATUS_PERR;
    19a6:	8b62      	ldrh	r2, [r4, #26]
    19a8:	2301      	movs	r3, #1
    19aa:	4313      	orrs	r3, r2
    19ac:	8363      	strh	r3, [r4, #26]
    19ae:	e013      	b.n	19d8 <_usart_interrupt_handler+0x10c>
				}
#ifdef FEATURE_USART_LIN_SLAVE
				else if (error_code & SERCOM_USART_STATUS_ISF) {
    19b0:	06d9      	lsls	r1, r3, #27
    19b2:	d507      	bpl.n	19c4 <_usart_interrupt_handler+0xf8>
					/* Store the error code and clear flag by writing 1 to it */
					module->rx_status = STATUS_ERR_PROTOCOL;
    19b4:	2242      	movs	r2, #66	; 0x42
    19b6:	2332      	movs	r3, #50	; 0x32
    19b8:	54ea      	strb	r2, [r5, r3]
					usart_hw->STATUS.reg |= SERCOM_USART_STATUS_ISF;
    19ba:	8b62      	ldrh	r2, [r4, #26]
    19bc:	2310      	movs	r3, #16
    19be:	4313      	orrs	r3, r2
    19c0:	8363      	strh	r3, [r4, #26]
    19c2:	e009      	b.n	19d8 <_usart_interrupt_handler+0x10c>
				}
#endif
#ifdef FEATURE_USART_COLLISION_DECTION
				else if (error_code & SERCOM_USART_STATUS_COLL) {
    19c4:	2220      	movs	r2, #32
    19c6:	421a      	tst	r2, r3
    19c8:	d006      	beq.n	19d8 <_usart_interrupt_handler+0x10c>
					/* Store the error code and clear flag by writing 1 to it */
					module->rx_status = STATUS_ERR_PACKET_COLLISION;
    19ca:	2241      	movs	r2, #65	; 0x41
    19cc:	2332      	movs	r3, #50	; 0x32
    19ce:	54ea      	strb	r2, [r5, r3]
					usart_hw->STATUS.reg |= SERCOM_USART_STATUS_COLL;
    19d0:	8b62      	ldrh	r2, [r4, #26]
    19d2:	2320      	movs	r3, #32
    19d4:	4313      	orrs	r3, r2
    19d6:	8363      	strh	r3, [r4, #26]
				}
#endif

				/* Run callback if registered and enabled */
				if (callback_status
    19d8:	077a      	lsls	r2, r7, #29
    19da:	d527      	bpl.n	1a2c <_usart_interrupt_handler+0x160>
						& (1 << USART_CALLBACK_ERROR)) {
					(*(module->callback[USART_CALLBACK_ERROR]))(module);
    19dc:	1c28      	adds	r0, r5, #0
    19de:	696b      	ldr	r3, [r5, #20]
    19e0:	4798      	blx	r3
    19e2:	e023      	b.n	1a2c <_usart_interrupt_handler+0x160>

			} else {

				/* Read current packet from DATA register,
				 * increment buffer pointer and decrement buffer length */
				uint16_t received_data = (usart_hw->DATA.reg & SERCOM_USART_DATA_MASK);
    19e4:	8d22      	ldrh	r2, [r4, #40]	; 0x28
    19e6:	05d2      	lsls	r2, r2, #23
    19e8:	0dd2      	lsrs	r2, r2, #23

				/* Read value will be at least 8-bits long */
				*(module->rx_buffer_ptr) = received_data;
    19ea:	b2d3      	uxtb	r3, r2
    19ec:	6a69      	ldr	r1, [r5, #36]	; 0x24
    19ee:	700b      	strb	r3, [r1, #0]
				/* Increment 8-bit pointer */
				module->rx_buffer_ptr += 1;
    19f0:	6a6b      	ldr	r3, [r5, #36]	; 0x24
    19f2:	1c59      	adds	r1, r3, #1
    19f4:	6269      	str	r1, [r5, #36]	; 0x24

				if (module->character_size == USART_CHARACTER_SIZE_9BIT) {
    19f6:	7969      	ldrb	r1, [r5, #5]
    19f8:	2901      	cmp	r1, #1
    19fa:	d104      	bne.n	1a06 <_usart_interrupt_handler+0x13a>
					/* 9-bit data, write next received byte to the buffer */
					*(module->rx_buffer_ptr) = (received_data >> 8);
    19fc:	0a12      	lsrs	r2, r2, #8
    19fe:	705a      	strb	r2, [r3, #1]
					/* Increment 8-bit pointer */
					module->rx_buffer_ptr += 1;
    1a00:	6a6b      	ldr	r3, [r5, #36]	; 0x24
    1a02:	3301      	adds	r3, #1
    1a04:	626b      	str	r3, [r5, #36]	; 0x24
				}

				/* Check if the last character have been received */
				if(--(module->remaining_rx_buffer_length) == 0) {
    1a06:	8dab      	ldrh	r3, [r5, #44]	; 0x2c
    1a08:	3b01      	subs	r3, #1
    1a0a:	b29b      	uxth	r3, r3
    1a0c:	85ab      	strh	r3, [r5, #44]	; 0x2c
    1a0e:	2b00      	cmp	r3, #0
    1a10:	d10c      	bne.n	1a2c <_usart_interrupt_handler+0x160>
					/* Disable RX Complete Interrupt,
					 * and set STATUS_OK */
					usart_hw->INTENCLR.reg = SERCOM_USART_INTFLAG_RXC;
    1a12:	2304      	movs	r3, #4
    1a14:	7523      	strb	r3, [r4, #20]
					module->rx_status = STATUS_OK;
    1a16:	2200      	movs	r2, #0
    1a18:	2332      	movs	r3, #50	; 0x32
    1a1a:	54ea      	strb	r2, [r5, r3]

					/* Run callback if registered and enabled */
					if (callback_status
    1a1c:	07ba      	lsls	r2, r7, #30
    1a1e:	d505      	bpl.n	1a2c <_usart_interrupt_handler+0x160>
							& (1 << USART_CALLBACK_BUFFER_RECEIVED)) {
						(*(module->callback[USART_CALLBACK_BUFFER_RECEIVED]))(module);
    1a20:	1c28      	adds	r0, r5, #0
    1a22:	692b      	ldr	r3, [r5, #16]
    1a24:	4798      	blx	r3
    1a26:	e001      	b.n	1a2c <_usart_interrupt_handler+0x160>
					}
				}
			}
		} else {
			/* This should not happen. Disable Receive Complete interrupt. */
			usart_hw->INTENCLR.reg = SERCOM_USART_INTFLAG_RXC;
    1a28:	2304      	movs	r3, #4
    1a2a:	7523      	strb	r3, [r4, #20]
		}
	}

#ifdef FEATURE_USART_HARDWARE_FLOW_CONTROL
	if (interrupt_status & SERCOM_USART_INTFLAG_CTSIC) {
    1a2c:	06f1      	lsls	r1, r6, #27
    1a2e:	d507      	bpl.n	1a40 <_usart_interrupt_handler+0x174>
		/* Disable interrupts */
		usart_hw->INTENCLR.reg = SERCOM_USART_INTENCLR_CTSIC;
    1a30:	2310      	movs	r3, #16
    1a32:	7523      	strb	r3, [r4, #20]
		/* Clear interrupt flag */
		usart_hw->INTFLAG.reg = SERCOM_USART_INTFLAG_CTSIC;
    1a34:	7623      	strb	r3, [r4, #24]

		/* Run callback if registered and enabled */
		if (callback_status & (1 << USART_CALLBACK_CTS_INPUT_CHANGE)) {
    1a36:	06fa      	lsls	r2, r7, #27
    1a38:	d502      	bpl.n	1a40 <_usart_interrupt_handler+0x174>
			(*(module->callback[USART_CALLBACK_CTS_INPUT_CHANGE]))(module);
    1a3a:	1c28      	adds	r0, r5, #0
    1a3c:	69eb      	ldr	r3, [r5, #28]
    1a3e:	4798      	blx	r3
		}
	}
#endif

#ifdef FEATURE_USART_LIN_SLAVE
	if (interrupt_status & SERCOM_USART_INTFLAG_RXBRK) {
    1a40:	06b1      	lsls	r1, r6, #26
    1a42:	d507      	bpl.n	1a54 <_usart_interrupt_handler+0x188>
		/* Disable interrupts */
		usart_hw->INTENCLR.reg = SERCOM_USART_INTENCLR_RXBRK;
    1a44:	2320      	movs	r3, #32
    1a46:	7523      	strb	r3, [r4, #20]
		/* Clear interrupt flag */
		usart_hw->INTFLAG.reg = SERCOM_USART_INTFLAG_RXBRK;
    1a48:	7623      	strb	r3, [r4, #24]

		/* Run callback if registered and enabled */
		if (callback_status & (1 << USART_CALLBACK_BREAK_RECEIVED)) {
    1a4a:	073a      	lsls	r2, r7, #28
    1a4c:	d502      	bpl.n	1a54 <_usart_interrupt_handler+0x188>
			(*(module->callback[USART_CALLBACK_BREAK_RECEIVED]))(module);
    1a4e:	1c28      	adds	r0, r5, #0
    1a50:	69ab      	ldr	r3, [r5, #24]
    1a52:	4798      	blx	r3
		}
	}
#endif

#ifdef FEATURE_USART_START_FRAME_DECTION
	if (interrupt_status & SERCOM_USART_INTFLAG_RXS) {
    1a54:	0731      	lsls	r1, r6, #28
    1a56:	d507      	bpl.n	1a68 <_usart_interrupt_handler+0x19c>
		/* Disable interrupts */
		usart_hw->INTENCLR.reg = SERCOM_USART_INTENCLR_RXS;
    1a58:	2308      	movs	r3, #8
    1a5a:	7523      	strb	r3, [r4, #20]
		/* Clear interrupt flag */
		usart_hw->INTFLAG.reg = SERCOM_USART_INTFLAG_RXS;
    1a5c:	7623      	strb	r3, [r4, #24]

		/* Run callback if registered and enabled */
		if (callback_status & (1 << USART_CALLBACK_START_RECEIVED)) {
    1a5e:	06ba      	lsls	r2, r7, #26
    1a60:	d502      	bpl.n	1a68 <_usart_interrupt_handler+0x19c>
			(*(module->callback[USART_CALLBACK_START_RECEIVED]))(module);
    1a62:	6a2b      	ldr	r3, [r5, #32]
    1a64:	1c28      	adds	r0, r5, #0
    1a66:	4798      	blx	r3
		}
	}
#endif
}
    1a68:	b003      	add	sp, #12
    1a6a:	bdf0      	pop	{r4, r5, r6, r7, pc}
    1a6c:	00002e56 	.word	0x00002e56
    1a70:	000000e0 	.word	0x000000e0

00001a74 <vListInitialise>:
void vListInitialise( List_t * const pxList )
{
	/* The list structure contains a list item which is used to mark the
	end of the list.  To initialise the list the list end is inserted
	as the only list entry. */
	pxList->pxIndex = ( ListItem_t * ) &( pxList->xListEnd );			/*lint !e826 !e740 The mini list structure is used as the list end to save RAM.  This is checked and valid. */
    1a74:	1c03      	adds	r3, r0, #0
    1a76:	3308      	adds	r3, #8
    1a78:	6043      	str	r3, [r0, #4]

	/* The list end value is the highest possible value in the list to
	ensure it remains at the end of the list. */
	pxList->xListEnd.xItemValue = portMAX_DELAY;
    1a7a:	2201      	movs	r2, #1
    1a7c:	4252      	negs	r2, r2
    1a7e:	6082      	str	r2, [r0, #8]

	/* The list end next and previous pointers point to itself so we know
	when the list is empty. */
	pxList->xListEnd.pxNext = ( ListItem_t * ) &( pxList->xListEnd );	/*lint !e826 !e740 The mini list structure is used as the list end to save RAM.  This is checked and valid. */
    1a80:	60c3      	str	r3, [r0, #12]
	pxList->xListEnd.pxPrevious = ( ListItem_t * ) &( pxList->xListEnd );/*lint !e826 !e740 The mini list structure is used as the list end to save RAM.  This is checked and valid. */
    1a82:	6103      	str	r3, [r0, #16]

	pxList->uxNumberOfItems = ( UBaseType_t ) 0U;
    1a84:	2300      	movs	r3, #0
    1a86:	6003      	str	r3, [r0, #0]
}
    1a88:	4770      	bx	lr
    1a8a:	46c0      	nop			; (mov r8, r8)

00001a8c <vListInitialiseItem>:
/*-----------------------------------------------------------*/

void vListInitialiseItem( ListItem_t * const pxItem )
{
	/* Make sure the list item is not recorded as being on a list. */
	pxItem->pvContainer = NULL;
    1a8c:	2300      	movs	r3, #0
    1a8e:	6103      	str	r3, [r0, #16]
}
    1a90:	4770      	bx	lr
    1a92:	46c0      	nop			; (mov r8, r8)

00001a94 <vListInsertEnd>:
/*-----------------------------------------------------------*/

void vListInsertEnd( List_t * const pxList, ListItem_t * const pxNewListItem )
{
ListItem_t * const pxIndex = pxList->pxIndex;
    1a94:	6843      	ldr	r3, [r0, #4]

	/* Insert a new list item into pxList, but rather than sort the list,
	makes the new list item the last item to be removed by a call to
	listGET_OWNER_OF_NEXT_ENTRY(). */
	pxNewListItem->pxNext = pxIndex;
    1a96:	604b      	str	r3, [r1, #4]
	pxNewListItem->pxPrevious = pxIndex->pxPrevious;
    1a98:	689a      	ldr	r2, [r3, #8]
    1a9a:	608a      	str	r2, [r1, #8]
	pxIndex->pxPrevious->pxNext = pxNewListItem;
    1a9c:	689a      	ldr	r2, [r3, #8]
    1a9e:	6051      	str	r1, [r2, #4]
	pxIndex->pxPrevious = pxNewListItem;
    1aa0:	6099      	str	r1, [r3, #8]

	/* Remember which list the item is in. */
	pxNewListItem->pvContainer = ( void * ) pxList;
    1aa2:	6108      	str	r0, [r1, #16]

	( pxList->uxNumberOfItems )++;
    1aa4:	6803      	ldr	r3, [r0, #0]
    1aa6:	3301      	adds	r3, #1
    1aa8:	6003      	str	r3, [r0, #0]
}
    1aaa:	4770      	bx	lr

00001aac <vListInsert>:
/*-----------------------------------------------------------*/

void vListInsert( List_t * const pxList, ListItem_t * const pxNewListItem )
{
    1aac:	b530      	push	{r4, r5, lr}
ListItem_t *pxIterator;
const TickType_t xValueOfInsertion = pxNewListItem->xItemValue;
    1aae:	680c      	ldr	r4, [r1, #0]
			   before vTaskStartScheduler() has been called?).
		See http://www.freertos.org/FAQHelp.html for more tips, and ensure
		configASSERT() is defined!  http://www.freertos.org/a00110.html#configASSERT
		**********************************************************************/

		for( pxIterator = ( ListItem_t * ) &( pxList->xListEnd ); pxIterator->pxNext->xItemValue <= xValueOfInsertion; pxIterator = pxIterator->pxNext ) /*lint !e826 !e740 The mini list structure is used as the list end to save RAM.  This is checked and valid. */
    1ab0:	1c02      	adds	r2, r0, #0
    1ab2:	3208      	adds	r2, #8
	are stored in ready lists (all of which have the same xItemValue value)
	get an equal share of the CPU.  However, if the xItemValue is the same as
	the back marker the iteration loop below will not end.  This means we need
	to guard against this by checking the value first and modifying the
	algorithm slightly if necessary. */
	if( xValueOfInsertion == portMAX_DELAY )
    1ab4:	1c63      	adds	r3, r4, #1
    1ab6:	d101      	bne.n	1abc <vListInsert+0x10>
	{
		pxIterator = pxList->xListEnd.pxPrevious;
    1ab8:	6902      	ldr	r2, [r0, #16]
    1aba:	e005      	b.n	1ac8 <vListInsert+0x1c>
			   before vTaskStartScheduler() has been called?).
		See http://www.freertos.org/FAQHelp.html for more tips, and ensure
		configASSERT() is defined!  http://www.freertos.org/a00110.html#configASSERT
		**********************************************************************/

		for( pxIterator = ( ListItem_t * ) &( pxList->xListEnd ); pxIterator->pxNext->xItemValue <= xValueOfInsertion; pxIterator = pxIterator->pxNext ) /*lint !e826 !e740 The mini list structure is used as the list end to save RAM.  This is checked and valid. */
    1abc:	6853      	ldr	r3, [r2, #4]
    1abe:	681d      	ldr	r5, [r3, #0]
    1ac0:	42ac      	cmp	r4, r5
    1ac2:	d301      	bcc.n	1ac8 <vListInsert+0x1c>
    1ac4:	1c1a      	adds	r2, r3, #0
    1ac6:	e7f9      	b.n	1abc <vListInsert+0x10>
			/* There is nothing to do here, we are just iterating to the
			wanted insertion position. */
		}
	}

	pxNewListItem->pxNext = pxIterator->pxNext;
    1ac8:	6853      	ldr	r3, [r2, #4]
    1aca:	604b      	str	r3, [r1, #4]
	pxNewListItem->pxNext->pxPrevious = pxNewListItem;
    1acc:	6099      	str	r1, [r3, #8]
	pxNewListItem->pxPrevious = pxIterator;
    1ace:	608a      	str	r2, [r1, #8]
	pxIterator->pxNext = pxNewListItem;
    1ad0:	6051      	str	r1, [r2, #4]

	/* Remember which list the item is in.  This allows fast removal of the
	item later. */
	pxNewListItem->pvContainer = ( void * ) pxList;
    1ad2:	6108      	str	r0, [r1, #16]

	( pxList->uxNumberOfItems )++;
    1ad4:	6803      	ldr	r3, [r0, #0]
    1ad6:	3301      	adds	r3, #1
    1ad8:	6003      	str	r3, [r0, #0]
}
    1ada:	bd30      	pop	{r4, r5, pc}

00001adc <uxListRemove>:

UBaseType_t uxListRemove( ListItem_t * const pxItemToRemove )
{
/* The list item knows which list it is in.  Obtain the list from the list
item. */
List_t * const pxList = ( List_t * ) pxItemToRemove->pvContainer;
    1adc:	6903      	ldr	r3, [r0, #16]

	pxItemToRemove->pxNext->pxPrevious = pxItemToRemove->pxPrevious;
    1ade:	6842      	ldr	r2, [r0, #4]
    1ae0:	6881      	ldr	r1, [r0, #8]
    1ae2:	6091      	str	r1, [r2, #8]
	pxItemToRemove->pxPrevious->pxNext = pxItemToRemove->pxNext;
    1ae4:	6882      	ldr	r2, [r0, #8]
    1ae6:	6841      	ldr	r1, [r0, #4]
    1ae8:	6051      	str	r1, [r2, #4]

	/* Make sure the index is left pointing to a valid item. */
	if( pxList->pxIndex == pxItemToRemove )
    1aea:	685a      	ldr	r2, [r3, #4]
    1aec:	4282      	cmp	r2, r0
    1aee:	d101      	bne.n	1af4 <uxListRemove+0x18>
	{
		pxList->pxIndex = pxItemToRemove->pxPrevious;
    1af0:	6892      	ldr	r2, [r2, #8]
    1af2:	605a      	str	r2, [r3, #4]
	else
	{
		mtCOVERAGE_TEST_MARKER();
	}

	pxItemToRemove->pvContainer = NULL;
    1af4:	2200      	movs	r2, #0
    1af6:	6102      	str	r2, [r0, #16]
	( pxList->uxNumberOfItems )--;
    1af8:	6818      	ldr	r0, [r3, #0]
    1afa:	3801      	subs	r0, #1
    1afc:	6018      	str	r0, [r3, #0]

	return pxList->uxNumberOfItems;
}
    1afe:	4770      	bx	lr

00001b00 <prvTaskExitError>:
	its caller as there is nothing to return to.  If a task wants to exit it
	should instead call vTaskDelete( NULL ).

	Artificially force an assert() to be triggered if configASSERT() is
	defined, then stop here so application writers can catch the error. */
	configASSERT( uxCriticalNesting == ~0UL );
    1b00:	4b04      	ldr	r3, [pc, #16]	; (1b14 <prvTaskExitError+0x14>)
    1b02:	447b      	add	r3, pc
    1b04:	681b      	ldr	r3, [r3, #0]
    1b06:	3301      	adds	r3, #1
    1b08:	d001      	beq.n	1b0e <prvTaskExitError+0xe>
    1b0a:	b672      	cpsid	i
    1b0c:	e7fe      	b.n	1b0c <prvTaskExitError+0xc>
	portDISABLE_INTERRUPTS();
    1b0e:	b672      	cpsid	i
    1b10:	e7fe      	b.n	1b10 <prvTaskExitError+0x10>
    1b12:	46c0      	nop			; (mov r8, r8)
    1b14:	1fffe4fa 	.word	0x1fffe4fa

00001b18 <vPortStartFirstTask>:
void vPortStartFirstTask( void )
{
	/* The MSP stack is not reset as, unlike on M3/4 parts, there is no vector
	table offset register that can be used to locate the initial stack value.
	Not all M0 parts have the application vector table at address 0. */
	__asm volatile(
    1b18:	4a06      	ldr	r2, [pc, #24]	; (1b34 <pxCurrentTCBConst2>)
    1b1a:	6813      	ldr	r3, [r2, #0]
    1b1c:	6818      	ldr	r0, [r3, #0]
    1b1e:	3020      	adds	r0, #32
    1b20:	f380 8809 	msr	PSP, r0
    1b24:	2002      	movs	r0, #2
    1b26:	f380 8814 	msr	CONTROL, r0
    1b2a:	bc3f      	pop	{r0, r1, r2, r3, r4, r5}
    1b2c:	46ae      	mov	lr, r5
    1b2e:	b662      	cpsie	i
    1b30:	bd00      	pop	{pc}
    1b32:	46c0      	nop			; (mov r8, r8)

00001b34 <pxCurrentTCBConst2>:
    1b34:	20001cfc 	.word	0x20001cfc

00001b38 <pxPortInitialiseStack>:

/*
 * See header file for description.
 */
StackType_t *pxPortInitialiseStack( StackType_t *pxTopOfStack, TaskFunction_t pxCode, void *pvParameters )
{
    1b38:	b510      	push	{r4, lr}
	/* Simulate the stack frame as it would be created by a context switch
	interrupt. */
	pxTopOfStack--; /* Offset added to account for the way the MCU uses the stack on entry/exit of interrupts. */
	*pxTopOfStack = portINITIAL_XPSR;	/* xPSR */
    1b3a:	1f03      	subs	r3, r0, #4
    1b3c:	2480      	movs	r4, #128	; 0x80
    1b3e:	0464      	lsls	r4, r4, #17
    1b40:	601c      	str	r4, [r3, #0]
	pxTopOfStack--;
	*pxTopOfStack = ( StackType_t ) pxCode;	/* PC */
    1b42:	3b04      	subs	r3, #4
    1b44:	6019      	str	r1, [r3, #0]
	pxTopOfStack--;
	*pxTopOfStack = ( StackType_t ) portTASK_RETURN_ADDRESS;	/* LR */
    1b46:	3b04      	subs	r3, #4
    1b48:	4903      	ldr	r1, [pc, #12]	; (1b58 <pxPortInitialiseStack+0x20>)
    1b4a:	4479      	add	r1, pc
    1b4c:	6019      	str	r1, [r3, #0]
	pxTopOfStack -= 5;	/* R12, R3, R2 and R1. */
	*pxTopOfStack = ( StackType_t ) pvParameters;	/* R0 */
    1b4e:	3b14      	subs	r3, #20
    1b50:	601a      	str	r2, [r3, #0]
	pxTopOfStack -= 8; /* R11..R4. */

	return pxTopOfStack;
    1b52:	3840      	subs	r0, #64	; 0x40
}
    1b54:	bd10      	pop	{r4, pc}
    1b56:	46c0      	nop			; (mov r8, r8)
    1b58:	ffffffb3 	.word	0xffffffb3

00001b5c <SVC_Handler>:

void vPortSVCHandler( void )
{
	/* This function is no longer used, but retained for backward
	compatibility. */
}
    1b5c:	4770      	bx	lr
    1b5e:	46c0      	nop			; (mov r8, r8)

00001b60 <vPortYield>:
/*-----------------------------------------------------------*/

void vPortYield( void )
{
	/* Set a PendSV to request a context switch. */
	*( portNVIC_INT_CTRL ) = portNVIC_PENDSVSET;
    1b60:	2280      	movs	r2, #128	; 0x80
    1b62:	0552      	lsls	r2, r2, #21
    1b64:	4b03      	ldr	r3, [pc, #12]	; (1b74 <vPortYield+0x14>)
    1b66:	601a      	str	r2, [r3, #0]

	/* Barriers are normally not required but do ensure the code is completely
	within the specified behaviour for the architecture. */
	__asm volatile( "dsb" );
    1b68:	f3bf 8f4f 	dsb	sy
	__asm volatile( "isb" );
    1b6c:	f3bf 8f6f 	isb	sy
}
    1b70:	4770      	bx	lr
    1b72:	46c0      	nop			; (mov r8, r8)
    1b74:	e000ed04 	.word	0xe000ed04

00001b78 <vPortEnterCritical>:
/*-----------------------------------------------------------*/

void vPortEnterCritical( void )
{
    portDISABLE_INTERRUPTS();
    1b78:	b672      	cpsid	i
    uxCriticalNesting++;
    1b7a:	4b05      	ldr	r3, [pc, #20]	; (1b90 <vPortEnterCritical+0x18>)
    1b7c:	447b      	add	r3, pc
    1b7e:	681a      	ldr	r2, [r3, #0]
    1b80:	3201      	adds	r2, #1
    1b82:	601a      	str	r2, [r3, #0]
	__asm volatile( "dsb" );
    1b84:	f3bf 8f4f 	dsb	sy
	__asm volatile( "isb" );
    1b88:	f3bf 8f6f 	isb	sy
}
    1b8c:	4770      	bx	lr
    1b8e:	46c0      	nop			; (mov r8, r8)
    1b90:	1fffe480 	.word	0x1fffe480

00001b94 <vPortExitCritical>:
/*-----------------------------------------------------------*/

void vPortExitCritical( void )
{
	configASSERT( uxCriticalNesting );
    1b94:	4b07      	ldr	r3, [pc, #28]	; (1bb4 <vPortExitCritical+0x20>)
    1b96:	447b      	add	r3, pc
    1b98:	681b      	ldr	r3, [r3, #0]
    1b9a:	2b00      	cmp	r3, #0
    1b9c:	d101      	bne.n	1ba2 <vPortExitCritical+0xe>
    1b9e:	b672      	cpsid	i
    1ba0:	e7fe      	b.n	1ba0 <vPortExitCritical+0xc>
    uxCriticalNesting--;
    1ba2:	3b01      	subs	r3, #1
    1ba4:	4a04      	ldr	r2, [pc, #16]	; (1bb8 <vPortExitCritical+0x24>)
    1ba6:	447a      	add	r2, pc
    1ba8:	6013      	str	r3, [r2, #0]
    if( uxCriticalNesting == 0 )
    1baa:	2b00      	cmp	r3, #0
    1bac:	d100      	bne.n	1bb0 <vPortExitCritical+0x1c>
    {
        portENABLE_INTERRUPTS();
    1bae:	b662      	cpsie	i
    }
}
    1bb0:	4770      	bx	lr
    1bb2:	46c0      	nop			; (mov r8, r8)
    1bb4:	1fffe466 	.word	0x1fffe466
    1bb8:	1fffe456 	.word	0x1fffe456

00001bbc <ulSetInterruptMaskFromISR>:
/*-----------------------------------------------------------*/

uint32_t ulSetInterruptMaskFromISR( void )
{
	__asm volatile(
    1bbc:	f3ef 8010 	mrs	r0, PRIMASK
    1bc0:	b672      	cpsid	i
    1bc2:	4770      	bx	lr
					" bx lr				  "
				  );

	/* To avoid compiler warnings.  This line will never be reached. */
	return 0;
}
    1bc4:	2000      	movs	r0, #0
    1bc6:	46c0      	nop			; (mov r8, r8)

00001bc8 <vClearInterruptMaskFromISR>:
/*-----------------------------------------------------------*/

void vClearInterruptMaskFromISR( uint32_t ulMask )
{
	__asm volatile(
    1bc8:	f380 8810 	msr	PRIMASK, r0
    1bcc:	4770      	bx	lr
    1bce:	46c0      	nop			; (mov r8, r8)

00001bd0 <PendSV_Handler>:

void xPortPendSVHandler( void )
{
	/* This is a naked function. */

	__asm volatile
    1bd0:	f3ef 8009 	mrs	r0, PSP
    1bd4:	4b0e      	ldr	r3, [pc, #56]	; (1c10 <pxCurrentTCBConst>)
    1bd6:	681a      	ldr	r2, [r3, #0]
    1bd8:	3820      	subs	r0, #32
    1bda:	6010      	str	r0, [r2, #0]
    1bdc:	c0f0      	stmia	r0!, {r4, r5, r6, r7}
    1bde:	4644      	mov	r4, r8
    1be0:	464d      	mov	r5, r9
    1be2:	4656      	mov	r6, sl
    1be4:	465f      	mov	r7, fp
    1be6:	c0f0      	stmia	r0!, {r4, r5, r6, r7}
    1be8:	b508      	push	{r3, lr}
    1bea:	b672      	cpsid	i
    1bec:	f001 f94a 	bl	2e84 <vTaskSwitchContext>
    1bf0:	b662      	cpsie	i
    1bf2:	bc0c      	pop	{r2, r3}
    1bf4:	6811      	ldr	r1, [r2, #0]
    1bf6:	6808      	ldr	r0, [r1, #0]
    1bf8:	3010      	adds	r0, #16
    1bfa:	c8f0      	ldmia	r0!, {r4, r5, r6, r7}
    1bfc:	46a0      	mov	r8, r4
    1bfe:	46a9      	mov	r9, r5
    1c00:	46b2      	mov	sl, r6
    1c02:	46bb      	mov	fp, r7
    1c04:	f380 8809 	msr	PSP, r0
    1c08:	3820      	subs	r0, #32
    1c0a:	c8f0      	ldmia	r0!, {r4, r5, r6, r7}
    1c0c:	4718      	bx	r3
    1c0e:	46c0      	nop			; (mov r8, r8)

00001c10 <pxCurrentTCBConst>:
    1c10:	20001cfc 	.word	0x20001cfc

00001c14 <SysTick_Handler>:
	);
}
/*-----------------------------------------------------------*/

void xPortSysTickHandler( void )
{
    1c14:	b530      	push	{r4, r5, lr}
    1c16:	b083      	sub	sp, #12
    1c18:	4c0a      	ldr	r4, [pc, #40]	; (1c44 <SysTick_Handler+0x30>)
    1c1a:	447c      	add	r4, pc
uint32_t ulPreviousMask;

	ulPreviousMask = portSET_INTERRUPT_MASK_FROM_ISR();
    1c1c:	4b0a      	ldr	r3, [pc, #40]	; (1c48 <SysTick_Handler+0x34>)
    1c1e:	58e3      	ldr	r3, [r4, r3]
    1c20:	4798      	blx	r3
    1c22:	1c05      	adds	r5, r0, #0
	{
		/* Increment the RTOS tick. */
		if( xTaskIncrementTick() != pdFALSE )
    1c24:	4b09      	ldr	r3, [pc, #36]	; (1c4c <SysTick_Handler+0x38>)
    1c26:	58e3      	ldr	r3, [r4, r3]
    1c28:	4798      	blx	r3
    1c2a:	2800      	cmp	r0, #0
    1c2c:	d003      	beq.n	1c36 <SysTick_Handler+0x22>
		{
			/* Pend a context switch. */
			*(portNVIC_INT_CTRL) = portNVIC_PENDSVSET;
    1c2e:	2280      	movs	r2, #128	; 0x80
    1c30:	0552      	lsls	r2, r2, #21
    1c32:	4b07      	ldr	r3, [pc, #28]	; (1c50 <SysTick_Handler+0x3c>)
    1c34:	601a      	str	r2, [r3, #0]
		}
	}
	portCLEAR_INTERRUPT_MASK_FROM_ISR( ulPreviousMask );
    1c36:	1c28      	adds	r0, r5, #0
    1c38:	4b06      	ldr	r3, [pc, #24]	; (1c54 <SysTick_Handler+0x40>)
    1c3a:	58e3      	ldr	r3, [r4, r3]
    1c3c:	4798      	blx	r3
}
    1c3e:	b003      	add	sp, #12
    1c40:	bd30      	pop	{r4, r5, pc}
    1c42:	46c0      	nop			; (mov r8, r8)
    1c44:	00002b0e 	.word	0x00002b0e
    1c48:	000001f8 	.word	0x000001f8
    1c4c:	000001d0 	.word	0x000001d0
    1c50:	e000ed04 	.word	0xe000ed04
    1c54:	000000f8 	.word	0x000000f8

00001c58 <vPortSetupTimerInterrupt>:
 * frequency.
 */
__attribute__(( weak )) void vPortSetupTimerInterrupt( void )
{
	/* Configure SysTick to interrupt at the requested rate. */
	*(portNVIC_SYSTICK_VAL)  = 0; /* Load the SysTick Counter Value */
    1c58:	2200      	movs	r2, #0
    1c5a:	4b04      	ldr	r3, [pc, #16]	; (1c6c <vPortSetupTimerInterrupt+0x14>)
    1c5c:	601a      	str	r2, [r3, #0]
	*(portNVIC_SYSTICK_LOAD) = ( configCPU_CLOCK_HZ / configTICK_RATE_HZ ) - 1UL;
    1c5e:	4a04      	ldr	r2, [pc, #16]	; (1c70 <vPortSetupTimerInterrupt+0x18>)
    1c60:	4b04      	ldr	r3, [pc, #16]	; (1c74 <vPortSetupTimerInterrupt+0x1c>)
    1c62:	601a      	str	r2, [r3, #0]
	*(portNVIC_SYSTICK_CTRL) = portNVIC_SYSTICK_CLK | portNVIC_SYSTICK_INT | portNVIC_SYSTICK_ENABLE;
    1c64:	2207      	movs	r2, #7
    1c66:	4b04      	ldr	r3, [pc, #16]	; (1c78 <vPortSetupTimerInterrupt+0x20>)
    1c68:	601a      	str	r2, [r3, #0]
}
    1c6a:	4770      	bx	lr
    1c6c:	e000e018 	.word	0xe000e018
    1c70:	0000bb7f 	.word	0x0000bb7f
    1c74:	e000e014 	.word	0xe000e014
    1c78:	e000e010 	.word	0xe000e010

00001c7c <xPortStartScheduler>:

/*
 * See header file for description.
 */
BaseType_t xPortStartScheduler( void )
{
    1c7c:	b500      	push	{lr}
    1c7e:	b083      	sub	sp, #12
    1c80:	4a0c      	ldr	r2, [pc, #48]	; (1cb4 <xPortStartScheduler+0x38>)
    1c82:	447a      	add	r2, pc
	/* Make PendSV, CallSV and SysTick the same priroity as the kernel. */
	*(portNVIC_SYSPRI2) |= portNVIC_PENDSV_PRI;
    1c84:	4b0c      	ldr	r3, [pc, #48]	; (1cb8 <xPortStartScheduler+0x3c>)
    1c86:	6818      	ldr	r0, [r3, #0]
    1c88:	21ff      	movs	r1, #255	; 0xff
    1c8a:	0409      	lsls	r1, r1, #16
    1c8c:	4301      	orrs	r1, r0
    1c8e:	6019      	str	r1, [r3, #0]
	*(portNVIC_SYSPRI2) |= portNVIC_SYSTICK_PRI;
    1c90:	6818      	ldr	r0, [r3, #0]
    1c92:	21ff      	movs	r1, #255	; 0xff
    1c94:	0609      	lsls	r1, r1, #24
    1c96:	4301      	orrs	r1, r0
    1c98:	6019      	str	r1, [r3, #0]

	/* Start the timer that generates the tick ISR.  Interrupts are disabled
	here already. */
	vPortSetupTimerInterrupt();
    1c9a:	4b08      	ldr	r3, [pc, #32]	; (1cbc <xPortStartScheduler+0x40>)
    1c9c:	58d3      	ldr	r3, [r2, r3]
    1c9e:	4798      	blx	r3

	/* Initialise the critical nesting count ready for the first task. */
	uxCriticalNesting = 0;
    1ca0:	2200      	movs	r2, #0
    1ca2:	4b07      	ldr	r3, [pc, #28]	; (1cc0 <xPortStartScheduler+0x44>)
    1ca4:	447b      	add	r3, pc
    1ca6:	601a      	str	r2, [r3, #0]

	/* Start the first task. */
	vPortStartFirstTask();
    1ca8:	4b06      	ldr	r3, [pc, #24]	; (1cc4 <xPortStartScheduler+0x48>)
    1caa:	447b      	add	r3, pc
    1cac:	4798      	blx	r3

	/* Should never get here as the tasks will now be executing!  Call the task
	exit error function to prevent compiler warnings about a static function
	not being called in the case that the application writer overrides this
	functionality by defining configTASK_RETURN_ADDRESS. */
	prvTaskExitError();
    1cae:	4b06      	ldr	r3, [pc, #24]	; (1cc8 <xPortStartScheduler+0x4c>)
    1cb0:	447b      	add	r3, pc
    1cb2:	4798      	blx	r3
    1cb4:	00002aa6 	.word	0x00002aa6
    1cb8:	e000ed20 	.word	0xe000ed20
    1cbc:	00000064 	.word	0x00000064
    1cc0:	1fffe358 	.word	0x1fffe358
    1cc4:	fffffe6b 	.word	0xfffffe6b
    1cc8:	fffffe4d 	.word	0xfffffe4d

00001ccc <pvPortMalloc>:
static size_t xNextFreeByte = ( size_t ) 0;

/*-----------------------------------------------------------*/

void *pvPortMalloc( size_t xWantedSize )
{
    1ccc:	b570      	push	{r4, r5, r6, lr}
    1cce:	b082      	sub	sp, #8
    1cd0:	1c05      	adds	r5, r0, #0
    1cd2:	4c18      	ldr	r4, [pc, #96]	; (1d34 <pvPortMalloc+0x68>)
    1cd4:	447c      	add	r4, pc
void *pvReturn = NULL;
static uint8_t *pucAlignedHeap = NULL;

	/* Ensure that blocks are always aligned to the required number of bytes. */
	#if portBYTE_ALIGNMENT != 1
		if( xWantedSize & portBYTE_ALIGNMENT_MASK )
    1cd6:	0743      	lsls	r3, r0, #29
    1cd8:	d002      	beq.n	1ce0 <pvPortMalloc+0x14>
		{
			/* Byte alignment required. */
			xWantedSize += ( portBYTE_ALIGNMENT - ( xWantedSize & portBYTE_ALIGNMENT_MASK ) );
    1cda:	2307      	movs	r3, #7
    1cdc:	439d      	bics	r5, r3
    1cde:	3508      	adds	r5, #8
		}
	#endif

	vTaskSuspendAll();
    1ce0:	4b15      	ldr	r3, [pc, #84]	; (1d38 <pvPortMalloc+0x6c>)
    1ce2:	58e3      	ldr	r3, [r4, r3]
    1ce4:	4798      	blx	r3
	{
		if( pucAlignedHeap == NULL )
    1ce6:	4b15      	ldr	r3, [pc, #84]	; (1d3c <pvPortMalloc+0x70>)
    1ce8:	447b      	add	r3, pc
    1cea:	681b      	ldr	r3, [r3, #0]
    1cec:	2b00      	cmp	r3, #0
    1cee:	d106      	bne.n	1cfe <pvPortMalloc+0x32>
		{
			/* Ensure the heap starts on a correctly aligned boundary. */
			pucAlignedHeap = ( uint8_t * ) ( ( ( portPOINTER_SIZE_TYPE ) &ucHeap[ portBYTE_ALIGNMENT ] ) & ( ( portPOINTER_SIZE_TYPE ) ~portBYTE_ALIGNMENT_MASK ) );
    1cf0:	4b13      	ldr	r3, [pc, #76]	; (1d40 <pvPortMalloc+0x74>)
    1cf2:	447b      	add	r3, pc
    1cf4:	1c1a      	adds	r2, r3, #0
    1cf6:	320c      	adds	r2, #12
    1cf8:	2107      	movs	r1, #7
    1cfa:	438a      	bics	r2, r1
    1cfc:	601a      	str	r2, [r3, #0]
		}

		/* Check there is enough room left for the allocation. */
		if( ( ( xNextFreeByte + xWantedSize ) < configADJUSTED_HEAP_SIZE ) &&
    1cfe:	4b11      	ldr	r3, [pc, #68]	; (1d44 <pvPortMalloc+0x78>)
    1d00:	447b      	add	r3, pc
    1d02:	6f5b      	ldr	r3, [r3, #116]	; 0x74
    1d04:	18ed      	adds	r5, r5, r3
    1d06:	4a10      	ldr	r2, [pc, #64]	; (1d48 <pvPortMalloc+0x7c>)
    1d08:	4295      	cmp	r5, r2
    1d0a:	d809      	bhi.n	1d20 <pvPortMalloc+0x54>
    1d0c:	42ab      	cmp	r3, r5
    1d0e:	d209      	bcs.n	1d24 <pvPortMalloc+0x58>
			( ( xNextFreeByte + xWantedSize ) > xNextFreeByte )	)/* Check for overflow. */
		{
			/* Return the next free byte then increment the index past this
			block. */
			pvReturn = pucAlignedHeap + xNextFreeByte;
    1d10:	4a0e      	ldr	r2, [pc, #56]	; (1d4c <pvPortMalloc+0x80>)
    1d12:	447a      	add	r2, pc
    1d14:	6816      	ldr	r6, [r2, #0]
    1d16:	18f6      	adds	r6, r6, r3
			xNextFreeByte += xWantedSize;
    1d18:	4b0d      	ldr	r3, [pc, #52]	; (1d50 <pvPortMalloc+0x84>)
    1d1a:	447b      	add	r3, pc
    1d1c:	675d      	str	r5, [r3, #116]	; 0x74
    1d1e:	e002      	b.n	1d26 <pvPortMalloc+0x5a>

/*-----------------------------------------------------------*/

void *pvPortMalloc( size_t xWantedSize )
{
void *pvReturn = NULL;
    1d20:	2600      	movs	r6, #0
    1d22:	e000      	b.n	1d26 <pvPortMalloc+0x5a>
    1d24:	2600      	movs	r6, #0
			xNextFreeByte += xWantedSize;
		}

		traceMALLOC( pvReturn, xWantedSize );
	}
	( void ) xTaskResumeAll();
    1d26:	4b0b      	ldr	r3, [pc, #44]	; (1d54 <pvPortMalloc+0x88>)
    1d28:	58e3      	ldr	r3, [r4, r3]
    1d2a:	4798      	blx	r3
		}
	}
	#endif

	return pvReturn;
}
    1d2c:	1c30      	adds	r0, r6, #0
    1d2e:	b002      	add	sp, #8
    1d30:	bd70      	pop	{r4, r5, r6, pc}
    1d32:	46c0      	nop			; (mov r8, r8)
    1d34:	00002a54 	.word	0x00002a54
    1d38:	000000fc 	.word	0x000000fc
    1d3c:	1fffe7a0 	.word	0x1fffe7a0
    1d40:	1fffe796 	.word	0x1fffe796
    1d44:	1ffffe88 	.word	0x1ffffe88
    1d48:	00001767 	.word	0x00001767
    1d4c:	1fffe776 	.word	0x1fffe776
    1d50:	1ffffe6e 	.word	0x1ffffe6e
    1d54:	000001a0 	.word	0x000001a0

00001d58 <vPortFree>:
	heap_4.c for alternative implementations, and the memory management pages of
	http://www.FreeRTOS.org for more information. */
	( void ) pv;

	/* Force an assert as it is invalid to call this function. */
	configASSERT( pv == NULL );
    1d58:	2800      	cmp	r0, #0
    1d5a:	d001      	beq.n	1d60 <vPortFree+0x8>
    1d5c:	b672      	cpsid	i
    1d5e:	e7fe      	b.n	1d5e <vPortFree+0x6>
}
    1d60:	4770      	bx	lr
    1d62:	46c0      	nop			; (mov r8, r8)

00001d64 <prvCopyDataToQueue>:

#endif /* configUSE_TRACE_FACILITY */
/*-----------------------------------------------------------*/

static void prvCopyDataToQueue( Queue_t * const pxQueue, const void *pvItemToQueue, const BaseType_t xPosition )
{
    1d64:	b570      	push	{r4, r5, r6, lr}
    1d66:	b082      	sub	sp, #8
    1d68:	1c04      	adds	r4, r0, #0
    1d6a:	1c16      	adds	r6, r2, #0
    1d6c:	4b1e      	ldr	r3, [pc, #120]	; (1de8 <prvCopyDataToQueue+0x84>)
    1d6e:	447b      	add	r3, pc
	if( pxQueue->uxItemSize == ( UBaseType_t ) 0 )
    1d70:	6c02      	ldr	r2, [r0, #64]	; 0x40
    1d72:	2a00      	cmp	r2, #0
    1d74:	d109      	bne.n	1d8a <prvCopyDataToQueue+0x26>
	{
		#if ( configUSE_MUTEXES == 1 )
		{
			if( pxQueue->uxQueueType == queueQUEUE_IS_MUTEX )
    1d76:	6800      	ldr	r0, [r0, #0]
    1d78:	2800      	cmp	r0, #0
    1d7a:	d12f      	bne.n	1ddc <prvCopyDataToQueue+0x78>
			{
				/* The mutex is no longer being held. */
				vTaskPriorityDisinherit( ( void * ) pxQueue->pxMutexHolder );
    1d7c:	6860      	ldr	r0, [r4, #4]
    1d7e:	4a1b      	ldr	r2, [pc, #108]	; (1dec <prvCopyDataToQueue+0x88>)
    1d80:	589a      	ldr	r2, [r3, r2]
    1d82:	4790      	blx	r2
				pxQueue->pxMutexHolder = NULL;
    1d84:	2300      	movs	r3, #0
    1d86:	6063      	str	r3, [r4, #4]
    1d88:	e028      	b.n	1ddc <prvCopyDataToQueue+0x78>
				mtCOVERAGE_TEST_MARKER();
			}
		}
		#endif /* configUSE_MUTEXES */
	}
	else if( xPosition == queueSEND_TO_BACK )
    1d8a:	2e00      	cmp	r6, #0
    1d8c:	d10e      	bne.n	1dac <prvCopyDataToQueue+0x48>
	{
		( void ) memcpy( ( void * ) pxQueue->pcWriteTo, pvItemToQueue, ( size_t ) pxQueue->uxItemSize ); /*lint !e961 !e418 MISRA exception as the casts are only redundant for some ports, plus previous logic ensures a null pointer can only be passed to memcpy() if the copy size is 0. */
    1d8e:	6880      	ldr	r0, [r0, #8]
    1d90:	4d17      	ldr	r5, [pc, #92]	; (1df0 <prvCopyDataToQueue+0x8c>)
    1d92:	595d      	ldr	r5, [r3, r5]
    1d94:	9501      	str	r5, [sp, #4]
    1d96:	47a8      	blx	r5
		pxQueue->pcWriteTo += pxQueue->uxItemSize;
    1d98:	68a1      	ldr	r1, [r4, #8]
    1d9a:	6c22      	ldr	r2, [r4, #64]	; 0x40
    1d9c:	188b      	adds	r3, r1, r2
    1d9e:	60a3      	str	r3, [r4, #8]
		if( pxQueue->pcWriteTo >= pxQueue->pcTail ) /*lint !e946 MISRA exception justified as comparison of pointers is the cleanest solution. */
    1da0:	6860      	ldr	r0, [r4, #4]
    1da2:	4283      	cmp	r3, r0
    1da4:	d31a      	bcc.n	1ddc <prvCopyDataToQueue+0x78>
		{
			pxQueue->pcWriteTo = pxQueue->pcHead;
    1da6:	6821      	ldr	r1, [r4, #0]
    1da8:	60a1      	str	r1, [r4, #8]
    1daa:	e017      	b.n	1ddc <prvCopyDataToQueue+0x78>
			mtCOVERAGE_TEST_MARKER();
		}
	}
	else
	{
		( void ) memcpy( ( void * ) pxQueue->u.pcReadFrom, pvItemToQueue, ( size_t ) pxQueue->uxItemSize ); /*lint !e961 MISRA exception as the casts are only redundant for some ports. */
    1dac:	68c0      	ldr	r0, [r0, #12]
    1dae:	4d10      	ldr	r5, [pc, #64]	; (1df0 <prvCopyDataToQueue+0x8c>)
    1db0:	595d      	ldr	r5, [r3, r5]
    1db2:	9501      	str	r5, [sp, #4]
    1db4:	47a8      	blx	r5
		pxQueue->u.pcReadFrom -= pxQueue->uxItemSize;
    1db6:	6c23      	ldr	r3, [r4, #64]	; 0x40
    1db8:	425a      	negs	r2, r3
    1dba:	68e0      	ldr	r0, [r4, #12]
    1dbc:	1883      	adds	r3, r0, r2
    1dbe:	60e3      	str	r3, [r4, #12]
		if( pxQueue->u.pcReadFrom < pxQueue->pcHead ) /*lint !e946 MISRA exception justified as comparison of pointers is the cleanest solution. */
    1dc0:	6821      	ldr	r1, [r4, #0]
    1dc2:	428b      	cmp	r3, r1
    1dc4:	d202      	bcs.n	1dcc <prvCopyDataToQueue+0x68>
		{
			pxQueue->u.pcReadFrom = ( pxQueue->pcTail - pxQueue->uxItemSize );
    1dc6:	6863      	ldr	r3, [r4, #4]
    1dc8:	189a      	adds	r2, r3, r2
    1dca:	60e2      	str	r2, [r4, #12]
		else
		{
			mtCOVERAGE_TEST_MARKER();
		}

		if( xPosition == queueOVERWRITE )
    1dcc:	2e02      	cmp	r6, #2
    1dce:	d105      	bne.n	1ddc <prvCopyDataToQueue+0x78>
		{
			if( pxQueue->uxMessagesWaiting > ( UBaseType_t ) 0 )
    1dd0:	6ba3      	ldr	r3, [r4, #56]	; 0x38
    1dd2:	2b00      	cmp	r3, #0
    1dd4:	d002      	beq.n	1ddc <prvCopyDataToQueue+0x78>
			{
				/* An item is not being added but overwritten, so subtract
				one from the recorded number of items in the queue so when
				one is added again below the number of recorded items remains
				correct. */
				--( pxQueue->uxMessagesWaiting );
    1dd6:	6ba3      	ldr	r3, [r4, #56]	; 0x38
    1dd8:	3b01      	subs	r3, #1
    1dda:	63a3      	str	r3, [r4, #56]	; 0x38
		{
			mtCOVERAGE_TEST_MARKER();
		}
	}

	++( pxQueue->uxMessagesWaiting );
    1ddc:	6ba3      	ldr	r3, [r4, #56]	; 0x38
    1dde:	3301      	adds	r3, #1
    1de0:	63a3      	str	r3, [r4, #56]	; 0x38
}
    1de2:	b002      	add	sp, #8
    1de4:	bd70      	pop	{r4, r5, r6, pc}
    1de6:	46c0      	nop			; (mov r8, r8)
    1de8:	000029ba 	.word	0x000029ba
    1dec:	00000110 	.word	0x00000110
    1df0:	00000050 	.word	0x00000050

00001df4 <prvNotifyQueueSetContainer>:
/*-----------------------------------------------------------*/

#if ( configUSE_QUEUE_SETS == 1 )

	static BaseType_t prvNotifyQueueSetContainer( const Queue_t * const pxQueue, const BaseType_t xCopyPosition )
	{
    1df4:	b530      	push	{r4, r5, lr}
    1df6:	b083      	sub	sp, #12
    1df8:	9001      	str	r0, [sp, #4]
    1dfa:	1c0a      	adds	r2, r1, #0
    1dfc:	4d11      	ldr	r5, [pc, #68]	; (1e44 <prvNotifyQueueSetContainer+0x50>)
    1dfe:	447d      	add	r5, pc
	Queue_t *pxQueueSetContainer = pxQueue->pxQueueSetContainer;
    1e00:	6cc4      	ldr	r4, [r0, #76]	; 0x4c
	BaseType_t xReturn = pdFALSE;

		/* This function must be called form a critical section. */

		configASSERT( pxQueueSetContainer );
    1e02:	2c00      	cmp	r4, #0
    1e04:	d101      	bne.n	1e0a <prvNotifyQueueSetContainer+0x16>
    1e06:	b672      	cpsid	i
    1e08:	e7fe      	b.n	1e08 <prvNotifyQueueSetContainer+0x14>
		configASSERT( pxQueueSetContainer->uxMessagesWaiting < pxQueueSetContainer->uxLength );
    1e0a:	6ba1      	ldr	r1, [r4, #56]	; 0x38
    1e0c:	6be3      	ldr	r3, [r4, #60]	; 0x3c
    1e0e:	4299      	cmp	r1, r3
    1e10:	d301      	bcc.n	1e16 <prvNotifyQueueSetContainer+0x22>
    1e12:	b672      	cpsid	i
    1e14:	e7fe      	b.n	1e14 <prvNotifyQueueSetContainer+0x20>

		if( pxQueueSetContainer->uxMessagesWaiting < pxQueueSetContainer->uxLength )
    1e16:	6ba1      	ldr	r1, [r4, #56]	; 0x38
#if ( configUSE_QUEUE_SETS == 1 )

	static BaseType_t prvNotifyQueueSetContainer( const Queue_t * const pxQueue, const BaseType_t xCopyPosition )
	{
	Queue_t *pxQueueSetContainer = pxQueue->pxQueueSetContainer;
	BaseType_t xReturn = pdFALSE;
    1e18:	2000      	movs	r0, #0
		/* This function must be called form a critical section. */

		configASSERT( pxQueueSetContainer );
		configASSERT( pxQueueSetContainer->uxMessagesWaiting < pxQueueSetContainer->uxLength );

		if( pxQueueSetContainer->uxMessagesWaiting < pxQueueSetContainer->uxLength )
    1e1a:	428b      	cmp	r3, r1
    1e1c:	d90f      	bls.n	1e3e <prvNotifyQueueSetContainer+0x4a>
		{
			traceQUEUE_SEND( pxQueueSetContainer );
			/* The data copies is the handle of the queue that contains data. */
			prvCopyDataToQueue( pxQueueSetContainer, &pxQueue, xCopyPosition );
    1e1e:	1c20      	adds	r0, r4, #0
    1e20:	a901      	add	r1, sp, #4
    1e22:	4b09      	ldr	r3, [pc, #36]	; (1e48 <prvNotifyQueueSetContainer+0x54>)
    1e24:	447b      	add	r3, pc
    1e26:	4798      	blx	r3
#if ( configUSE_QUEUE_SETS == 1 )

	static BaseType_t prvNotifyQueueSetContainer( const Queue_t * const pxQueue, const BaseType_t xCopyPosition )
	{
	Queue_t *pxQueueSetContainer = pxQueue->pxQueueSetContainer;
	BaseType_t xReturn = pdFALSE;
    1e28:	2000      	movs	r0, #0
		if( pxQueueSetContainer->uxMessagesWaiting < pxQueueSetContainer->uxLength )
		{
			traceQUEUE_SEND( pxQueueSetContainer );
			/* The data copies is the handle of the queue that contains data. */
			prvCopyDataToQueue( pxQueueSetContainer, &pxQueue, xCopyPosition );
			if( listLIST_IS_EMPTY( &( pxQueueSetContainer->xTasksWaitingToReceive ) ) == pdFALSE )
    1e2a:	6a63      	ldr	r3, [r4, #36]	; 0x24
    1e2c:	2b00      	cmp	r3, #0
    1e2e:	d006      	beq.n	1e3e <prvNotifyQueueSetContainer+0x4a>
			{
				if( xTaskRemoveFromEventList( &( pxQueueSetContainer->xTasksWaitingToReceive ) ) != pdFALSE )
    1e30:	1c20      	adds	r0, r4, #0
    1e32:	3024      	adds	r0, #36	; 0x24
    1e34:	4b05      	ldr	r3, [pc, #20]	; (1e4c <prvNotifyQueueSetContainer+0x58>)
    1e36:	58eb      	ldr	r3, [r5, r3]
    1e38:	4798      	blx	r3
#if ( configUSE_QUEUE_SETS == 1 )

	static BaseType_t prvNotifyQueueSetContainer( const Queue_t * const pxQueue, const BaseType_t xCopyPosition )
	{
	Queue_t *pxQueueSetContainer = pxQueue->pxQueueSetContainer;
	BaseType_t xReturn = pdFALSE;
    1e3a:	1e43      	subs	r3, r0, #1
    1e3c:	4198      	sbcs	r0, r3
		{
			mtCOVERAGE_TEST_MARKER();
		}

		return xReturn;
	}
    1e3e:	b003      	add	sp, #12
    1e40:	bd30      	pop	{r4, r5, pc}
    1e42:	46c0      	nop			; (mov r8, r8)
    1e44:	0000292a 	.word	0x0000292a
    1e48:	ffffff3d 	.word	0xffffff3d
    1e4c:	000000dc 	.word	0x000000dc

00001e50 <prvCopyDataFromQueue>:
	++( pxQueue->uxMessagesWaiting );
}
/*-----------------------------------------------------------*/

static void prvCopyDataFromQueue( Queue_t * const pxQueue, void * const pvBuffer )
{
    1e50:	b570      	push	{r4, r5, r6, lr}
    1e52:	b082      	sub	sp, #8
    1e54:	4b0a      	ldr	r3, [pc, #40]	; (1e80 <prvCopyDataFromQueue+0x30>)
    1e56:	447b      	add	r3, pc
	if( pxQueue->uxQueueType != queueQUEUE_IS_MUTEX )
    1e58:	6805      	ldr	r5, [r0, #0]
    1e5a:	2d00      	cmp	r5, #0
    1e5c:	d00d      	beq.n	1e7a <prvCopyDataFromQueue+0x2a>
	{
		pxQueue->u.pcReadFrom += pxQueue->uxItemSize;
    1e5e:	6c02      	ldr	r2, [r0, #64]	; 0x40
    1e60:	68c6      	ldr	r6, [r0, #12]
    1e62:	18b4      	adds	r4, r6, r2
    1e64:	60c4      	str	r4, [r0, #12]
		if( pxQueue->u.pcReadFrom >= pxQueue->pcTail ) /*lint !e946 MISRA exception justified as use of the relational operator is the cleanest solutions. */
    1e66:	6846      	ldr	r6, [r0, #4]
    1e68:	42b4      	cmp	r4, r6
    1e6a:	d300      	bcc.n	1e6e <prvCopyDataFromQueue+0x1e>
		{
			pxQueue->u.pcReadFrom = pxQueue->pcHead;
    1e6c:	60c5      	str	r5, [r0, #12]
		}
		else
		{
			mtCOVERAGE_TEST_MARKER();
		}
		( void ) memcpy( ( void * ) pvBuffer, ( void * ) pxQueue->u.pcReadFrom, ( size_t ) pxQueue->uxItemSize ); /*lint !e961 !e418 MISRA exception as the casts are only redundant for some ports.  Also previous logic ensures a null pointer can only be passed to memcpy() when the count is 0. */
    1e6e:	68c4      	ldr	r4, [r0, #12]
    1e70:	1c08      	adds	r0, r1, #0
    1e72:	1c21      	adds	r1, r4, #0
    1e74:	4c03      	ldr	r4, [pc, #12]	; (1e84 <prvCopyDataFromQueue+0x34>)
    1e76:	591c      	ldr	r4, [r3, r4]
    1e78:	47a0      	blx	r4
	}
	else
	{
		mtCOVERAGE_TEST_MARKER();
	}
}
    1e7a:	b002      	add	sp, #8
    1e7c:	bd70      	pop	{r4, r5, r6, pc}
    1e7e:	46c0      	nop			; (mov r8, r8)
    1e80:	000028d2 	.word	0x000028d2
    1e84:	00000050 	.word	0x00000050

00001e88 <prvUnlockQueue>:
/*-----------------------------------------------------------*/

static void prvUnlockQueue( Queue_t * const pxQueue )
{
    1e88:	b5f0      	push	{r4, r5, r6, r7, lr}
    1e8a:	b083      	sub	sp, #12
    1e8c:	1c04      	adds	r4, r0, #0
    1e8e:	4d2b      	ldr	r5, [pc, #172]	; (1f3c <prvUnlockQueue+0xb4>)
    1e90:	447d      	add	r5, pc

	/* The lock counts contains the number of extra data items placed or
	removed from the queue while the queue was locked.  When a queue is
	locked items can be added or removed, but the event lists cannot be
	updated. */
	taskENTER_CRITICAL();
    1e92:	4b2b      	ldr	r3, [pc, #172]	; (1f40 <prvUnlockQueue+0xb8>)
    1e94:	58eb      	ldr	r3, [r5, r3]
    1e96:	4798      	blx	r3
	{
		/* See if data was added to the queue while it was locked. */
		while( pxQueue->xTxLock > queueLOCKED_UNMODIFIED )
    1e98:	6ca3      	ldr	r3, [r4, #72]	; 0x48
    1e9a:	2b00      	cmp	r3, #0
    1e9c:	dd21      	ble.n	1ee2 <prvUnlockQueue+0x5a>
				{
					/* Tasks that are removed from the event list will get added to
					the pending ready list as the scheduler is still suspended. */
					if( listLIST_IS_EMPTY( &( pxQueue->xTasksWaitingToReceive ) ) == pdFALSE )
					{
						if( xTaskRemoveFromEventList( &( pxQueue->xTasksWaitingToReceive ) ) != pdFALSE )
    1e9e:	1c27      	adds	r7, r4, #0
    1ea0:	3724      	adds	r7, #36	; 0x24
			blocked waiting for data to become available? */
			#if ( configUSE_QUEUE_SETS == 1 )
			{
				if( pxQueue->pxQueueSetContainer != NULL )
				{
					if( prvNotifyQueueSetContainer( pxQueue, queueSEND_TO_BACK ) == pdTRUE )
    1ea2:	4e28      	ldr	r6, [pc, #160]	; (1f44 <prvUnlockQueue+0xbc>)
    1ea4:	447e      	add	r6, pc
		{
			/* Data was posted while the queue was locked.  Are any tasks
			blocked waiting for data to become available? */
			#if ( configUSE_QUEUE_SETS == 1 )
			{
				if( pxQueue->pxQueueSetContainer != NULL )
    1ea6:	6ce3      	ldr	r3, [r4, #76]	; 0x4c
    1ea8:	2b00      	cmp	r3, #0
    1eaa:	d008      	beq.n	1ebe <prvUnlockQueue+0x36>
				{
					if( prvNotifyQueueSetContainer( pxQueue, queueSEND_TO_BACK ) == pdTRUE )
    1eac:	1c20      	adds	r0, r4, #0
    1eae:	2100      	movs	r1, #0
    1eb0:	47b0      	blx	r6
    1eb2:	2801      	cmp	r0, #1
    1eb4:	d10f      	bne.n	1ed6 <prvUnlockQueue+0x4e>
					{
						/* The queue is a member of a queue set, and posting to
						the queue set caused a higher priority task to unblock.
						A context switch is required. */
						vTaskMissedYield();
    1eb6:	4b24      	ldr	r3, [pc, #144]	; (1f48 <prvUnlockQueue+0xc0>)
    1eb8:	58eb      	ldr	r3, [r5, r3]
    1eba:	4798      	blx	r3
    1ebc:	e00b      	b.n	1ed6 <prvUnlockQueue+0x4e>
				}
				else
				{
					/* Tasks that are removed from the event list will get added to
					the pending ready list as the scheduler is still suspended. */
					if( listLIST_IS_EMPTY( &( pxQueue->xTasksWaitingToReceive ) ) == pdFALSE )
    1ebe:	6a63      	ldr	r3, [r4, #36]	; 0x24
    1ec0:	2b00      	cmp	r3, #0
    1ec2:	d00e      	beq.n	1ee2 <prvUnlockQueue+0x5a>
					{
						if( xTaskRemoveFromEventList( &( pxQueue->xTasksWaitingToReceive ) ) != pdFALSE )
    1ec4:	1c38      	adds	r0, r7, #0
    1ec6:	4b21      	ldr	r3, [pc, #132]	; (1f4c <prvUnlockQueue+0xc4>)
    1ec8:	58eb      	ldr	r3, [r5, r3]
    1eca:	4798      	blx	r3
    1ecc:	2800      	cmp	r0, #0
    1ece:	d002      	beq.n	1ed6 <prvUnlockQueue+0x4e>
						{
							/* The task waiting has a higher priority so record that a
							context	switch is required. */
							vTaskMissedYield();
    1ed0:	4b1d      	ldr	r3, [pc, #116]	; (1f48 <prvUnlockQueue+0xc0>)
    1ed2:	58eb      	ldr	r3, [r5, r3]
    1ed4:	4798      	blx	r3
					break;
				}
			}
			#endif /* configUSE_QUEUE_SETS */

			--( pxQueue->xTxLock );
    1ed6:	6ca3      	ldr	r3, [r4, #72]	; 0x48
    1ed8:	3b01      	subs	r3, #1
    1eda:	64a3      	str	r3, [r4, #72]	; 0x48
	locked items can be added or removed, but the event lists cannot be
	updated. */
	taskENTER_CRITICAL();
	{
		/* See if data was added to the queue while it was locked. */
		while( pxQueue->xTxLock > queueLOCKED_UNMODIFIED )
    1edc:	6ca3      	ldr	r3, [r4, #72]	; 0x48
    1ede:	2b00      	cmp	r3, #0
    1ee0:	dce1      	bgt.n	1ea6 <prvUnlockQueue+0x1e>
			#endif /* configUSE_QUEUE_SETS */

			--( pxQueue->xTxLock );
		}

		pxQueue->xTxLock = queueUNLOCKED;
    1ee2:	2301      	movs	r3, #1
    1ee4:	425b      	negs	r3, r3
    1ee6:	64a3      	str	r3, [r4, #72]	; 0x48
	}
	taskEXIT_CRITICAL();
    1ee8:	4b19      	ldr	r3, [pc, #100]	; (1f50 <prvUnlockQueue+0xc8>)
    1eea:	58eb      	ldr	r3, [r5, r3]
    1eec:	4798      	blx	r3

	/* Do the same for the Rx lock. */
	taskENTER_CRITICAL();
    1eee:	4b14      	ldr	r3, [pc, #80]	; (1f40 <prvUnlockQueue+0xb8>)
    1ef0:	58eb      	ldr	r3, [r5, r3]
    1ef2:	4798      	blx	r3
	{
		while( pxQueue->xRxLock > queueLOCKED_UNMODIFIED )
    1ef4:	6c63      	ldr	r3, [r4, #68]	; 0x44
    1ef6:	2b00      	cmp	r3, #0
    1ef8:	dd17      	ble.n	1f2a <prvUnlockQueue+0xa2>
		{
			if( listLIST_IS_EMPTY( &( pxQueue->xTasksWaitingToSend ) ) == pdFALSE )
    1efa:	6923      	ldr	r3, [r4, #16]
    1efc:	2b00      	cmp	r3, #0
    1efe:	d014      	beq.n	1f2a <prvUnlockQueue+0xa2>
			{
				if( xTaskRemoveFromEventList( &( pxQueue->xTasksWaitingToSend ) ) != pdFALSE )
    1f00:	1c27      	adds	r7, r4, #0
    1f02:	3710      	adds	r7, #16
    1f04:	4b11      	ldr	r3, [pc, #68]	; (1f4c <prvUnlockQueue+0xc4>)
    1f06:	58ee      	ldr	r6, [r5, r3]
    1f08:	e002      	b.n	1f10 <prvUnlockQueue+0x88>
	/* Do the same for the Rx lock. */
	taskENTER_CRITICAL();
	{
		while( pxQueue->xRxLock > queueLOCKED_UNMODIFIED )
		{
			if( listLIST_IS_EMPTY( &( pxQueue->xTasksWaitingToSend ) ) == pdFALSE )
    1f0a:	6923      	ldr	r3, [r4, #16]
    1f0c:	2b00      	cmp	r3, #0
    1f0e:	d00c      	beq.n	1f2a <prvUnlockQueue+0xa2>
			{
				if( xTaskRemoveFromEventList( &( pxQueue->xTasksWaitingToSend ) ) != pdFALSE )
    1f10:	1c38      	adds	r0, r7, #0
    1f12:	47b0      	blx	r6
    1f14:	2800      	cmp	r0, #0
    1f16:	d002      	beq.n	1f1e <prvUnlockQueue+0x96>
				{
					vTaskMissedYield();
    1f18:	4b0b      	ldr	r3, [pc, #44]	; (1f48 <prvUnlockQueue+0xc0>)
    1f1a:	58eb      	ldr	r3, [r5, r3]
    1f1c:	4798      	blx	r3
				else
				{
					mtCOVERAGE_TEST_MARKER();
				}

				--( pxQueue->xRxLock );
    1f1e:	6c63      	ldr	r3, [r4, #68]	; 0x44
    1f20:	3b01      	subs	r3, #1
    1f22:	6463      	str	r3, [r4, #68]	; 0x44
	taskEXIT_CRITICAL();

	/* Do the same for the Rx lock. */
	taskENTER_CRITICAL();
	{
		while( pxQueue->xRxLock > queueLOCKED_UNMODIFIED )
    1f24:	6c63      	ldr	r3, [r4, #68]	; 0x44
    1f26:	2b00      	cmp	r3, #0
    1f28:	dcef      	bgt.n	1f0a <prvUnlockQueue+0x82>
			{
				break;
			}
		}

		pxQueue->xRxLock = queueUNLOCKED;
    1f2a:	2301      	movs	r3, #1
    1f2c:	425b      	negs	r3, r3
    1f2e:	6463      	str	r3, [r4, #68]	; 0x44
	}
	taskEXIT_CRITICAL();
    1f30:	4b07      	ldr	r3, [pc, #28]	; (1f50 <prvUnlockQueue+0xc8>)
    1f32:	58eb      	ldr	r3, [r5, r3]
    1f34:	4798      	blx	r3
}
    1f36:	b003      	add	sp, #12
    1f38:	bdf0      	pop	{r4, r5, r6, r7, pc}
    1f3a:	46c0      	nop			; (mov r8, r8)
    1f3c:	00002898 	.word	0x00002898
    1f40:	00000220 	.word	0x00000220
    1f44:	ffffff4d 	.word	0xffffff4d
    1f48:	000001c0 	.word	0x000001c0
    1f4c:	000000dc 	.word	0x000000dc
    1f50:	0000000c 	.word	0x0000000c

00001f54 <xQueueGenericReset>:
	}														\
	taskEXIT_CRITICAL()
/*-----------------------------------------------------------*/

BaseType_t xQueueGenericReset( QueueHandle_t xQueue, BaseType_t xNewQueue )
{
    1f54:	b570      	push	{r4, r5, r6, lr}
    1f56:	b082      	sub	sp, #8
    1f58:	1c04      	adds	r4, r0, #0
    1f5a:	1c0e      	adds	r6, r1, #0
    1f5c:	4d1b      	ldr	r5, [pc, #108]	; (1fcc <xQueueGenericReset+0x78>)
    1f5e:	447d      	add	r5, pc
Queue_t * const pxQueue = ( Queue_t * ) xQueue;

	configASSERT( pxQueue );
    1f60:	2800      	cmp	r0, #0
    1f62:	d101      	bne.n	1f68 <xQueueGenericReset+0x14>
    1f64:	b672      	cpsid	i
    1f66:	e7fe      	b.n	1f66 <xQueueGenericReset+0x12>

	taskENTER_CRITICAL();
    1f68:	4b19      	ldr	r3, [pc, #100]	; (1fd0 <xQueueGenericReset+0x7c>)
    1f6a:	58eb      	ldr	r3, [r5, r3]
    1f6c:	4798      	blx	r3
	{
		pxQueue->pcTail = pxQueue->pcHead + ( pxQueue->uxLength * pxQueue->uxItemSize );
    1f6e:	6823      	ldr	r3, [r4, #0]
    1f70:	6c22      	ldr	r2, [r4, #64]	; 0x40
    1f72:	6be0      	ldr	r0, [r4, #60]	; 0x3c
    1f74:	4350      	muls	r0, r2
    1f76:	1819      	adds	r1, r3, r0
    1f78:	6061      	str	r1, [r4, #4]
		pxQueue->uxMessagesWaiting = ( UBaseType_t ) 0U;
    1f7a:	2100      	movs	r1, #0
    1f7c:	63a1      	str	r1, [r4, #56]	; 0x38
		pxQueue->pcWriteTo = pxQueue->pcHead;
    1f7e:	60a3      	str	r3, [r4, #8]
		pxQueue->u.pcReadFrom = pxQueue->pcHead + ( ( pxQueue->uxLength - ( UBaseType_t ) 1U ) * pxQueue->uxItemSize );
    1f80:	1a82      	subs	r2, r0, r2
    1f82:	189b      	adds	r3, r3, r2
    1f84:	60e3      	str	r3, [r4, #12]
		pxQueue->xRxLock = queueUNLOCKED;
    1f86:	2301      	movs	r3, #1
    1f88:	425b      	negs	r3, r3
    1f8a:	6463      	str	r3, [r4, #68]	; 0x44
		pxQueue->xTxLock = queueUNLOCKED;
    1f8c:	64a3      	str	r3, [r4, #72]	; 0x48

		if( xNewQueue == pdFALSE )
    1f8e:	2e00      	cmp	r6, #0
    1f90:	d10d      	bne.n	1fae <xQueueGenericReset+0x5a>
			/* If there are tasks blocked waiting to read from the queue, then
			the tasks will remain blocked as after this function exits the queue
			will still be empty.  If there are tasks blocked waiting to write to
			the queue, then one should be unblocked as after this function exits
			it will be possible to write to it. */
			if( listLIST_IS_EMPTY( &( pxQueue->xTasksWaitingToSend ) ) == pdFALSE )
    1f92:	6921      	ldr	r1, [r4, #16]
    1f94:	2900      	cmp	r1, #0
    1f96:	d012      	beq.n	1fbe <xQueueGenericReset+0x6a>
			{
				if( xTaskRemoveFromEventList( &( pxQueue->xTasksWaitingToSend ) ) == pdTRUE )
    1f98:	1c20      	adds	r0, r4, #0
    1f9a:	3010      	adds	r0, #16
    1f9c:	4b0d      	ldr	r3, [pc, #52]	; (1fd4 <xQueueGenericReset+0x80>)
    1f9e:	58eb      	ldr	r3, [r5, r3]
    1fa0:	4798      	blx	r3
    1fa2:	2801      	cmp	r0, #1
    1fa4:	d10b      	bne.n	1fbe <xQueueGenericReset+0x6a>
				{
					queueYIELD_IF_USING_PREEMPTION();
    1fa6:	4b0c      	ldr	r3, [pc, #48]	; (1fd8 <xQueueGenericReset+0x84>)
    1fa8:	58eb      	ldr	r3, [r5, r3]
    1faa:	4798      	blx	r3
    1fac:	e007      	b.n	1fbe <xQueueGenericReset+0x6a>
			}
		}
		else
		{
			/* Ensure the event queues start in the correct state. */
			vListInitialise( &( pxQueue->xTasksWaitingToSend ) );
    1fae:	1c20      	adds	r0, r4, #0
    1fb0:	3010      	adds	r0, #16
    1fb2:	4b0a      	ldr	r3, [pc, #40]	; (1fdc <xQueueGenericReset+0x88>)
    1fb4:	58ee      	ldr	r6, [r5, r3]
    1fb6:	47b0      	blx	r6
			vListInitialise( &( pxQueue->xTasksWaitingToReceive ) );
    1fb8:	1c20      	adds	r0, r4, #0
    1fba:	3024      	adds	r0, #36	; 0x24
    1fbc:	47b0      	blx	r6
		}
	}
	taskEXIT_CRITICAL();
    1fbe:	4b08      	ldr	r3, [pc, #32]	; (1fe0 <xQueueGenericReset+0x8c>)
    1fc0:	58eb      	ldr	r3, [r5, r3]
    1fc2:	4798      	blx	r3

	/* A value is returned for calling semantic consistency with previous
	versions. */
	return pdPASS;
}
    1fc4:	2001      	movs	r0, #1
    1fc6:	b002      	add	sp, #8
    1fc8:	bd70      	pop	{r4, r5, r6, pc}
    1fca:	46c0      	nop			; (mov r8, r8)
    1fcc:	000027ca 	.word	0x000027ca
    1fd0:	00000220 	.word	0x00000220
    1fd4:	000000dc 	.word	0x000000dc
    1fd8:	00000148 	.word	0x00000148
    1fdc:	000000b8 	.word	0x000000b8
    1fe0:	0000000c 	.word	0x0000000c

00001fe4 <xQueueGenericCreate>:
/*-----------------------------------------------------------*/

QueueHandle_t xQueueGenericCreate( const UBaseType_t uxQueueLength, const UBaseType_t uxItemSize, const uint8_t ucQueueType )
{
    1fe4:	b5f0      	push	{r4, r5, r6, r7, lr}
    1fe6:	b083      	sub	sp, #12
    1fe8:	1c06      	adds	r6, r0, #0
    1fea:	1c0f      	adds	r7, r1, #0
    1fec:	4d13      	ldr	r5, [pc, #76]	; (203c <STACK_SIZE+0x3c>)
    1fee:	447d      	add	r5, pc
	/* Remove compiler warnings about unused parameters should
	configUSE_TRACE_FACILITY not be set to 1. */
	( void ) ucQueueType;

	/* Allocate the new queue structure. */
	if( uxQueueLength > ( UBaseType_t ) 0 )
    1ff0:	2800      	cmp	r0, #0
    1ff2:	d014      	beq.n	201e <STACK_SIZE+0x1e>
	{
		pxNewQueue = ( Queue_t * ) pvPortMalloc( sizeof( Queue_t ) );
    1ff4:	2050      	movs	r0, #80	; 0x50
    1ff6:	4b12      	ldr	r3, [pc, #72]	; (2040 <STACK_SIZE+0x40>)
    1ff8:	58eb      	ldr	r3, [r5, r3]
    1ffa:	4798      	blx	r3
    1ffc:	1e04      	subs	r4, r0, #0
		if( pxNewQueue != NULL )
    1ffe:	d00e      	beq.n	201e <STACK_SIZE+0x1e>
		{
			/* Create the list of pointers to queue items.  The queue is one byte
			longer than asked for to make wrap checking easier/faster. */
			xQueueSizeInBytes = ( size_t ) ( uxQueueLength * uxItemSize ) + ( size_t ) 1; /*lint !e961 MISRA exception as the casts are only redundant for some ports. */
    2000:	1c38      	adds	r0, r7, #0
    2002:	4370      	muls	r0, r6
    2004:	3001      	adds	r0, #1

			pxNewQueue->pcHead = ( int8_t * ) pvPortMalloc( xQueueSizeInBytes );
    2006:	4b0e      	ldr	r3, [pc, #56]	; (2040 <STACK_SIZE+0x40>)
    2008:	58eb      	ldr	r3, [r5, r3]
    200a:	4798      	blx	r3
    200c:	6020      	str	r0, [r4, #0]
			if( pxNewQueue->pcHead != NULL )
    200e:	2800      	cmp	r0, #0
    2010:	d107      	bne.n	2022 <STACK_SIZE+0x22>
				xReturn = pxNewQueue;
			}
			else
			{
				traceQUEUE_CREATE_FAILED( ucQueueType );
				vPortFree( pxNewQueue );
    2012:	1c20      	adds	r0, r4, #0
    2014:	4b0b      	ldr	r3, [pc, #44]	; (2044 <STACK_SIZE+0x44>)
    2016:	58eb      	ldr	r3, [r5, r3]
    2018:	4798      	blx	r3
    201a:	e000      	b.n	201e <STACK_SIZE+0x1e>
    201c:	e7fe      	b.n	201c <STACK_SIZE+0x1c>
	else
	{
		mtCOVERAGE_TEST_MARKER();
	}

	configASSERT( xReturn );
    201e:	b672      	cpsid	i
    2020:	e7fc      	b.n	201c <STACK_SIZE+0x1c>
			pxNewQueue->pcHead = ( int8_t * ) pvPortMalloc( xQueueSizeInBytes );
			if( pxNewQueue->pcHead != NULL )
			{
				/* Initialise the queue members as described above where the
				queue type is defined. */
				pxNewQueue->uxLength = uxQueueLength;
    2022:	63e6      	str	r6, [r4, #60]	; 0x3c
				pxNewQueue->uxItemSize = uxItemSize;
    2024:	6427      	str	r7, [r4, #64]	; 0x40
				( void ) xQueueGenericReset( pxNewQueue, pdTRUE );
    2026:	1c20      	adds	r0, r4, #0
    2028:	2101      	movs	r1, #1
    202a:	4b07      	ldr	r3, [pc, #28]	; (2048 <STACK_SIZE+0x48>)
    202c:	58eb      	ldr	r3, [r5, r3]
    202e:	4798      	blx	r3
				}
				#endif /* configUSE_TRACE_FACILITY */

				#if( configUSE_QUEUE_SETS == 1 )
				{
					pxNewQueue->pxQueueSetContainer = NULL;
    2030:	2300      	movs	r3, #0
    2032:	64e3      	str	r3, [r4, #76]	; 0x4c
	}

	configASSERT( xReturn );

	return xReturn;
}
    2034:	1c20      	adds	r0, r4, #0
    2036:	b003      	add	sp, #12
    2038:	bdf0      	pop	{r4, r5, r6, r7, pc}
    203a:	46c0      	nop			; (mov r8, r8)
    203c:	0000273a 	.word	0x0000273a
    2040:	000000b0 	.word	0x000000b0
    2044:	0000006c 	.word	0x0000006c
    2048:	000001e4 	.word	0x000001e4

0000204c <xQueueGenericSend>:

#endif /* configUSE_COUNTING_SEMAPHORES */
/*-----------------------------------------------------------*/

BaseType_t xQueueGenericSend( QueueHandle_t xQueue, const void * const pvItemToQueue, TickType_t xTicksToWait, const BaseType_t xCopyPosition )
{
    204c:	b5f0      	push	{r4, r5, r6, r7, lr}
    204e:	465f      	mov	r7, fp
    2050:	4656      	mov	r6, sl
    2052:	464d      	mov	r5, r9
    2054:	4644      	mov	r4, r8
    2056:	b4f0      	push	{r4, r5, r6, r7}
    2058:	b087      	sub	sp, #28
    205a:	1c05      	adds	r5, r0, #0
    205c:	1c0f      	adds	r7, r1, #0
    205e:	9203      	str	r2, [sp, #12]
    2060:	1c1e      	adds	r6, r3, #0
    2062:	4c5c      	ldr	r4, [pc, #368]	; (21d4 <xQueueGenericSend+0x188>)
    2064:	447c      	add	r4, pc
BaseType_t xEntryTimeSet = pdFALSE;
TimeOut_t xTimeOut;
Queue_t * const pxQueue = ( Queue_t * ) xQueue;

	configASSERT( pxQueue );
    2066:	2800      	cmp	r0, #0
    2068:	d101      	bne.n	206e <xQueueGenericSend+0x22>
    206a:	b672      	cpsid	i
    206c:	e7fe      	b.n	206c <xQueueGenericSend+0x20>
	configASSERT( !( ( pvItemToQueue == NULL ) && ( pxQueue->uxItemSize != ( UBaseType_t ) 0U ) ) );
    206e:	2900      	cmp	r1, #0
    2070:	d104      	bne.n	207c <xQueueGenericSend+0x30>
    2072:	6c02      	ldr	r2, [r0, #64]	; 0x40
    2074:	2a00      	cmp	r2, #0
    2076:	d001      	beq.n	207c <xQueueGenericSend+0x30>
    2078:	b672      	cpsid	i
    207a:	e7fe      	b.n	207a <xQueueGenericSend+0x2e>
	configASSERT( !( ( xCopyPosition == queueOVERWRITE ) && ( pxQueue->uxLength != 1 ) ) );
    207c:	2e02      	cmp	r6, #2
    207e:	d104      	bne.n	208a <xQueueGenericSend+0x3e>
    2080:	6beb      	ldr	r3, [r5, #60]	; 0x3c
    2082:	2b01      	cmp	r3, #1
    2084:	d001      	beq.n	208a <xQueueGenericSend+0x3e>
    2086:	b672      	cpsid	i
    2088:	e7fe      	b.n	2088 <xQueueGenericSend+0x3c>
	#if ( ( INCLUDE_xTaskGetSchedulerState == 1 ) || ( configUSE_TIMERS == 1 ) )
	{
		configASSERT( !( ( xTaskGetSchedulerState() == taskSCHEDULER_SUSPENDED ) && ( xTicksToWait != 0 ) ) );
    208a:	4b53      	ldr	r3, [pc, #332]	; (21d8 <xQueueGenericSend+0x18c>)
    208c:	58e3      	ldr	r3, [r4, r3]
    208e:	4798      	blx	r3
    2090:	2800      	cmp	r0, #0
    2092:	d102      	bne.n	209a <xQueueGenericSend+0x4e>
    2094:	9a03      	ldr	r2, [sp, #12]
    2096:	2a00      	cmp	r2, #0
    2098:	d107      	bne.n	20aa <xQueueGenericSend+0x5e>

#endif /* configUSE_COUNTING_SEMAPHORES */
/*-----------------------------------------------------------*/

BaseType_t xQueueGenericSend( QueueHandle_t xQueue, const void * const pvItemToQueue, TickType_t xTicksToWait, const BaseType_t xCopyPosition )
{
    209a:	2300      	movs	r3, #0
    209c:	4699      	mov	r9, r3
	/* This function relaxes the coding standard somewhat to allow return
	statements within the function itself.  This is done in the interest
	of execution time efficiency. */
	for( ;; )
	{
		taskENTER_CRITICAL();
    209e:	4b4f      	ldr	r3, [pc, #316]	; (21dc <xQueueGenericSend+0x190>)
    20a0:	58e3      	ldr	r3, [r4, r3]
    20a2:	9302      	str	r3, [sp, #8]
				}
				else if( xEntryTimeSet == pdFALSE )
				{
					/* The queue was full and a block time was specified so
					configure the timeout structure. */
					vTaskSetTimeOutState( &xTimeOut );
    20a4:	aa04      	add	r2, sp, #16
    20a6:	4690      	mov	r8, r2
    20a8:	e001      	b.n	20ae <xQueueGenericSend+0x62>
	configASSERT( pxQueue );
	configASSERT( !( ( pvItemToQueue == NULL ) && ( pxQueue->uxItemSize != ( UBaseType_t ) 0U ) ) );
	configASSERT( !( ( xCopyPosition == queueOVERWRITE ) && ( pxQueue->uxLength != 1 ) ) );
	#if ( ( INCLUDE_xTaskGetSchedulerState == 1 ) || ( configUSE_TIMERS == 1 ) )
	{
		configASSERT( !( ( xTaskGetSchedulerState() == taskSCHEDULER_SUSPENDED ) && ( xTicksToWait != 0 ) ) );
    20aa:	b672      	cpsid	i
    20ac:	e7fe      	b.n	20ac <xQueueGenericSend+0x60>
	/* This function relaxes the coding standard somewhat to allow return
	statements within the function itself.  This is done in the interest
	of execution time efficiency. */
	for( ;; )
	{
		taskENTER_CRITICAL();
    20ae:	9b02      	ldr	r3, [sp, #8]
    20b0:	4798      	blx	r3
		{
			/* Is there room on the queue now?  The running task must be
			the highest priority task wanting to access the queue.  If
			the head item in the queue is to be overwritten then it does
			not matter if the queue is full. */
			if( ( pxQueue->uxMessagesWaiting < pxQueue->uxLength ) || ( xCopyPosition == queueOVERWRITE ) )
    20b2:	6bab      	ldr	r3, [r5, #56]	; 0x38
    20b4:	6bea      	ldr	r2, [r5, #60]	; 0x3c
    20b6:	4293      	cmp	r3, r2
    20b8:	d301      	bcc.n	20be <xQueueGenericSend+0x72>
    20ba:	2e02      	cmp	r6, #2
    20bc:	d125      	bne.n	210a <xQueueGenericSend+0xbe>
			{
				traceQUEUE_SEND( pxQueue );
				prvCopyDataToQueue( pxQueue, pvItemToQueue, xCopyPosition );
    20be:	1c28      	adds	r0, r5, #0
    20c0:	1c39      	adds	r1, r7, #0
    20c2:	1c32      	adds	r2, r6, #0
    20c4:	4b46      	ldr	r3, [pc, #280]	; (21e0 <xQueueGenericSend+0x194>)
    20c6:	447b      	add	r3, pc
    20c8:	4798      	blx	r3

				#if ( configUSE_QUEUE_SETS == 1 )
				{
					if( pxQueue->pxQueueSetContainer != NULL )
    20ca:	6ceb      	ldr	r3, [r5, #76]	; 0x4c
    20cc:	2b00      	cmp	r3, #0
    20ce:	d00a      	beq.n	20e6 <xQueueGenericSend+0x9a>
					{
						if( prvNotifyQueueSetContainer( pxQueue, xCopyPosition ) == pdTRUE )
    20d0:	1c28      	adds	r0, r5, #0
    20d2:	1c31      	adds	r1, r6, #0
    20d4:	4b43      	ldr	r3, [pc, #268]	; (21e4 <xQueueGenericSend+0x198>)
    20d6:	447b      	add	r3, pc
    20d8:	4798      	blx	r3
    20da:	2801      	cmp	r0, #1
    20dc:	d110      	bne.n	2100 <xQueueGenericSend+0xb4>
						{
							/* The queue is a member of a queue set, and posting
							to the queue set caused a higher priority task to
							unblock. A context switch is required. */
							queueYIELD_IF_USING_PREEMPTION();
    20de:	4b42      	ldr	r3, [pc, #264]	; (21e8 <xQueueGenericSend+0x19c>)
    20e0:	58e3      	ldr	r3, [r4, r3]
    20e2:	4798      	blx	r3
    20e4:	e00c      	b.n	2100 <xQueueGenericSend+0xb4>
					}
					else
					{
						/* If there was a task waiting for data to arrive on the
						queue then unblock it now. */
						if( listLIST_IS_EMPTY( &( pxQueue->xTasksWaitingToReceive ) ) == pdFALSE )
    20e6:	6a6a      	ldr	r2, [r5, #36]	; 0x24
    20e8:	2a00      	cmp	r2, #0
    20ea:	d009      	beq.n	2100 <xQueueGenericSend+0xb4>
						{
							if( xTaskRemoveFromEventList( &( pxQueue->xTasksWaitingToReceive ) ) == pdTRUE )
    20ec:	1c28      	adds	r0, r5, #0
    20ee:	3024      	adds	r0, #36	; 0x24
    20f0:	4b3e      	ldr	r3, [pc, #248]	; (21ec <xQueueGenericSend+0x1a0>)
    20f2:	58e3      	ldr	r3, [r4, r3]
    20f4:	4798      	blx	r3
    20f6:	2801      	cmp	r0, #1
    20f8:	d102      	bne.n	2100 <xQueueGenericSend+0xb4>
							{
								/* The unblocked task has a priority higher than
								our own so yield immediately.  Yes it is ok to
								do this from within the critical section - the
								kernel takes care of that. */
								queueYIELD_IF_USING_PREEMPTION();
    20fa:	4b3b      	ldr	r3, [pc, #236]	; (21e8 <xQueueGenericSend+0x19c>)
    20fc:	58e3      	ldr	r3, [r4, r3]
    20fe:	4798      	blx	r3
						mtCOVERAGE_TEST_MARKER();
					}
				}
				#endif /* configUSE_QUEUE_SETS */

				taskEXIT_CRITICAL();
    2100:	4b3b      	ldr	r3, [pc, #236]	; (21f0 <xQueueGenericSend+0x1a4>)
    2102:	58e3      	ldr	r3, [r4, r3]
    2104:	4798      	blx	r3

				/* Return to the original privilege level before exiting the
				function. */
				return pdPASS;
    2106:	2001      	movs	r0, #1
    2108:	e05d      	b.n	21c6 <xQueueGenericSend+0x17a>
			}
			else
			{
				if( xTicksToWait == ( TickType_t ) 0 )
    210a:	9b03      	ldr	r3, [sp, #12]
    210c:	2b00      	cmp	r3, #0
    210e:	d104      	bne.n	211a <xQueueGenericSend+0xce>
				{
					/* The queue was full and no block time is specified (or
					the block time has expired) so leave now. */
					taskEXIT_CRITICAL();
    2110:	4b37      	ldr	r3, [pc, #220]	; (21f0 <xQueueGenericSend+0x1a4>)
    2112:	58e3      	ldr	r3, [r4, r3]
    2114:	4798      	blx	r3

					/* Return to the original privilege level before exiting
					the function. */
					traceQUEUE_SEND_FAILED( pxQueue );
					return errQUEUE_FULL;
    2116:	2000      	movs	r0, #0
    2118:	e055      	b.n	21c6 <xQueueGenericSend+0x17a>
				}
				else if( xEntryTimeSet == pdFALSE )
    211a:	464a      	mov	r2, r9
    211c:	2a00      	cmp	r2, #0
    211e:	d105      	bne.n	212c <xQueueGenericSend+0xe0>
				{
					/* The queue was full and a block time was specified so
					configure the timeout structure. */
					vTaskSetTimeOutState( &xTimeOut );
    2120:	4640      	mov	r0, r8
    2122:	4b34      	ldr	r3, [pc, #208]	; (21f4 <xQueueGenericSend+0x1a8>)
    2124:	58e3      	ldr	r3, [r4, r3]
    2126:	4798      	blx	r3
					xEntryTimeSet = pdTRUE;
    2128:	2301      	movs	r3, #1
    212a:	4699      	mov	r9, r3
					/* Entry time was already set. */
					mtCOVERAGE_TEST_MARKER();
				}
			}
		}
		taskEXIT_CRITICAL();
    212c:	4b30      	ldr	r3, [pc, #192]	; (21f0 <xQueueGenericSend+0x1a4>)
    212e:	58e3      	ldr	r3, [r4, r3]
    2130:	4798      	blx	r3

		/* Interrupts and other tasks can send to and receive from the queue
		now the critical section has been exited. */

		vTaskSuspendAll();
    2132:	4b31      	ldr	r3, [pc, #196]	; (21f8 <xQueueGenericSend+0x1ac>)
    2134:	58e3      	ldr	r3, [r4, r3]
    2136:	4798      	blx	r3
		prvLockQueue( pxQueue );
    2138:	4b28      	ldr	r3, [pc, #160]	; (21dc <xQueueGenericSend+0x190>)
    213a:	58e3      	ldr	r3, [r4, r3]
    213c:	4798      	blx	r3
    213e:	6c6b      	ldr	r3, [r5, #68]	; 0x44
    2140:	3301      	adds	r3, #1
    2142:	d101      	bne.n	2148 <xQueueGenericSend+0xfc>
    2144:	2300      	movs	r3, #0
    2146:	646b      	str	r3, [r5, #68]	; 0x44
    2148:	6cab      	ldr	r3, [r5, #72]	; 0x48
    214a:	3301      	adds	r3, #1
    214c:	d101      	bne.n	2152 <xQueueGenericSend+0x106>
    214e:	2300      	movs	r3, #0
    2150:	64ab      	str	r3, [r5, #72]	; 0x48
    2152:	4b27      	ldr	r3, [pc, #156]	; (21f0 <xQueueGenericSend+0x1a4>)
    2154:	58e3      	ldr	r3, [r4, r3]
    2156:	4798      	blx	r3

		/* Update the timeout state to see if it has expired yet. */
		if( xTaskCheckForTimeOut( &xTimeOut, &xTicksToWait ) == pdFALSE )
    2158:	4640      	mov	r0, r8
    215a:	a903      	add	r1, sp, #12
    215c:	4b27      	ldr	r3, [pc, #156]	; (21fc <xQueueGenericSend+0x1b0>)
    215e:	58e3      	ldr	r3, [r4, r3]
    2160:	4798      	blx	r3
    2162:	2800      	cmp	r0, #0
    2164:	d127      	bne.n	21b6 <xQueueGenericSend+0x16a>

static BaseType_t prvIsQueueFull( const Queue_t *pxQueue )
{
BaseType_t xReturn;

	taskENTER_CRITICAL();
    2166:	4b1d      	ldr	r3, [pc, #116]	; (21dc <xQueueGenericSend+0x190>)
    2168:	58e3      	ldr	r3, [r4, r3]
    216a:	4798      	blx	r3
	{
		if( pxQueue->uxMessagesWaiting == pxQueue->uxLength )
    216c:	6baa      	ldr	r2, [r5, #56]	; 0x38
    216e:	4693      	mov	fp, r2
    2170:	6beb      	ldr	r3, [r5, #60]	; 0x3c
    2172:	469a      	mov	sl, r3
		else
		{
			xReturn = pdFALSE;
		}
	}
	taskEXIT_CRITICAL();
    2174:	4b1e      	ldr	r3, [pc, #120]	; (21f0 <xQueueGenericSend+0x1a4>)
    2176:	58e3      	ldr	r3, [r4, r3]
    2178:	4798      	blx	r3
		prvLockQueue( pxQueue );

		/* Update the timeout state to see if it has expired yet. */
		if( xTaskCheckForTimeOut( &xTimeOut, &xTicksToWait ) == pdFALSE )
		{
			if( prvIsQueueFull( pxQueue ) != pdFALSE )
    217a:	45d3      	cmp	fp, sl
    217c:	d113      	bne.n	21a6 <xQueueGenericSend+0x15a>
			{
				traceBLOCKING_ON_QUEUE_SEND( pxQueue );
				vTaskPlaceOnEventList( &( pxQueue->xTasksWaitingToSend ), xTicksToWait );
    217e:	1c28      	adds	r0, r5, #0
    2180:	3010      	adds	r0, #16
    2182:	9903      	ldr	r1, [sp, #12]
    2184:	4b1e      	ldr	r3, [pc, #120]	; (2200 <xQueueGenericSend+0x1b4>)
    2186:	58e3      	ldr	r3, [r4, r3]
    2188:	4798      	blx	r3
				/* Unlocking the queue means queue events can effect the
				event list.  It is possible	that interrupts occurring now
				remove this task from the event	list again - but as the
				scheduler is suspended the task will go onto the pending
				ready last instead of the actual ready list. */
				prvUnlockQueue( pxQueue );
    218a:	1c28      	adds	r0, r5, #0
    218c:	4b1d      	ldr	r3, [pc, #116]	; (2204 <xQueueGenericSend+0x1b8>)
    218e:	447b      	add	r3, pc
    2190:	4798      	blx	r3
				/* Resuming the scheduler will move tasks from the pending
				ready list into the ready list - so it is feasible that this
				task is already in a ready list before it yields - in which
				case the yield will not cause a context switch unless there
				is also a higher priority task in the pending ready list. */
				if( xTaskResumeAll() == pdFALSE )
    2192:	4b1d      	ldr	r3, [pc, #116]	; (2208 <xQueueGenericSend+0x1bc>)
    2194:	58e3      	ldr	r3, [r4, r3]
    2196:	4798      	blx	r3
    2198:	2800      	cmp	r0, #0
    219a:	d000      	beq.n	219e <xQueueGenericSend+0x152>
    219c:	e787      	b.n	20ae <xQueueGenericSend+0x62>
				{
					portYIELD_WITHIN_API();
    219e:	4b12      	ldr	r3, [pc, #72]	; (21e8 <xQueueGenericSend+0x19c>)
    21a0:	58e3      	ldr	r3, [r4, r3]
    21a2:	4798      	blx	r3
    21a4:	e783      	b.n	20ae <xQueueGenericSend+0x62>
				}
			}
			else
			{
				/* Try again. */
				prvUnlockQueue( pxQueue );
    21a6:	1c28      	adds	r0, r5, #0
    21a8:	4b18      	ldr	r3, [pc, #96]	; (220c <xQueueGenericSend+0x1c0>)
    21aa:	447b      	add	r3, pc
    21ac:	4798      	blx	r3
				( void ) xTaskResumeAll();
    21ae:	4b16      	ldr	r3, [pc, #88]	; (2208 <xQueueGenericSend+0x1bc>)
    21b0:	58e3      	ldr	r3, [r4, r3]
    21b2:	4798      	blx	r3
    21b4:	e77b      	b.n	20ae <xQueueGenericSend+0x62>
			}
		}
		else
		{
			/* The timeout has expired. */
			prvUnlockQueue( pxQueue );
    21b6:	1c28      	adds	r0, r5, #0
    21b8:	4b15      	ldr	r3, [pc, #84]	; (2210 <xQueueGenericSend+0x1c4>)
    21ba:	447b      	add	r3, pc
    21bc:	4798      	blx	r3
			( void ) xTaskResumeAll();
    21be:	4b12      	ldr	r3, [pc, #72]	; (2208 <xQueueGenericSend+0x1bc>)
    21c0:	58e3      	ldr	r3, [r4, r3]
    21c2:	4798      	blx	r3

			/* Return to the original privilege level before exiting the
			function. */
			traceQUEUE_SEND_FAILED( pxQueue );
			return errQUEUE_FULL;
    21c4:	2000      	movs	r0, #0
		}
	}
}
    21c6:	b007      	add	sp, #28
    21c8:	bc3c      	pop	{r2, r3, r4, r5}
    21ca:	4690      	mov	r8, r2
    21cc:	4699      	mov	r9, r3
    21ce:	46a2      	mov	sl, r4
    21d0:	46ab      	mov	fp, r5
    21d2:	bdf0      	pop	{r4, r5, r6, r7, pc}
    21d4:	000026c4 	.word	0x000026c4
    21d8:	00000200 	.word	0x00000200
    21dc:	00000220 	.word	0x00000220
    21e0:	fffffc9b 	.word	0xfffffc9b
    21e4:	fffffd1b 	.word	0xfffffd1b
    21e8:	00000148 	.word	0x00000148
    21ec:	000000dc 	.word	0x000000dc
    21f0:	0000000c 	.word	0x0000000c
    21f4:	0000021c 	.word	0x0000021c
    21f8:	000000fc 	.word	0x000000fc
    21fc:	000000f4 	.word	0x000000f4
    2200:	00000054 	.word	0x00000054
    2204:	fffffcf7 	.word	0xfffffcf7
    2208:	000001a0 	.word	0x000001a0
    220c:	fffffcdb 	.word	0xfffffcdb
    2210:	fffffccb 	.word	0xfffffccb

00002214 <xQueueGenericSendFromISR>:

#endif /* configUSE_ALTERNATIVE_API */
/*-----------------------------------------------------------*/

BaseType_t xQueueGenericSendFromISR( QueueHandle_t xQueue, const void * const pvItemToQueue, BaseType_t * const pxHigherPriorityTaskWoken, const BaseType_t xCopyPosition )
{
    2214:	b5f0      	push	{r4, r5, r6, r7, lr}
    2216:	464f      	mov	r7, r9
    2218:	4646      	mov	r6, r8
    221a:	b4c0      	push	{r6, r7}
    221c:	b083      	sub	sp, #12
    221e:	1c04      	adds	r4, r0, #0
    2220:	4689      	mov	r9, r1
    2222:	1c17      	adds	r7, r2, #0
    2224:	1c1d      	adds	r5, r3, #0
    2226:	4e30      	ldr	r6, [pc, #192]	; (22e8 <xQueueGenericSendFromISR+0xd4>)
    2228:	447e      	add	r6, pc
BaseType_t xReturn;
UBaseType_t uxSavedInterruptStatus;
Queue_t * const pxQueue = ( Queue_t * ) xQueue;

	configASSERT( pxQueue );
    222a:	2800      	cmp	r0, #0
    222c:	d101      	bne.n	2232 <xQueueGenericSendFromISR+0x1e>
    222e:	b672      	cpsid	i
    2230:	e7fe      	b.n	2230 <xQueueGenericSendFromISR+0x1c>
	configASSERT( !( ( pvItemToQueue == NULL ) && ( pxQueue->uxItemSize != ( UBaseType_t ) 0U ) ) );
    2232:	2900      	cmp	r1, #0
    2234:	d104      	bne.n	2240 <xQueueGenericSendFromISR+0x2c>
    2236:	6c03      	ldr	r3, [r0, #64]	; 0x40
    2238:	2b00      	cmp	r3, #0
    223a:	d001      	beq.n	2240 <xQueueGenericSendFromISR+0x2c>
    223c:	b672      	cpsid	i
    223e:	e7fe      	b.n	223e <xQueueGenericSendFromISR+0x2a>
	configASSERT( !( ( xCopyPosition == queueOVERWRITE ) && ( pxQueue->uxLength != 1 ) ) );
    2240:	2d02      	cmp	r5, #2
    2242:	d136      	bne.n	22b2 <xQueueGenericSendFromISR+0x9e>
    2244:	6be2      	ldr	r2, [r4, #60]	; 0x3c
    2246:	2a01      	cmp	r2, #1
    2248:	d03d      	beq.n	22c6 <xQueueGenericSendFromISR+0xb2>
    224a:	b672      	cpsid	i
    224c:	e7fe      	b.n	224c <xQueueGenericSendFromISR+0x38>
	{
		if( ( pxQueue->uxMessagesWaiting < pxQueue->uxLength ) || ( xCopyPosition == queueOVERWRITE ) )
		{
			traceQUEUE_SEND_FROM_ISR( pxQueue );

			prvCopyDataToQueue( pxQueue, pvItemToQueue, xCopyPosition );
    224e:	1c20      	adds	r0, r4, #0
    2250:	4649      	mov	r1, r9
    2252:	1c2a      	adds	r2, r5, #0
    2254:	4b25      	ldr	r3, [pc, #148]	; (22ec <xQueueGenericSendFromISR+0xd8>)
    2256:	447b      	add	r3, pc
    2258:	4798      	blx	r3

			/* The event list is not altered if the queue is locked.  This will
			be done when the queue is unlocked later. */
			if( pxQueue->xTxLock == queueUNLOCKED )
    225a:	6ca3      	ldr	r3, [r4, #72]	; 0x48
    225c:	3301      	adds	r3, #1
    225e:	d11f      	bne.n	22a0 <xQueueGenericSendFromISR+0x8c>
			{
				#if ( configUSE_QUEUE_SETS == 1 )
				{
					if( pxQueue->pxQueueSetContainer != NULL )
    2260:	6ce3      	ldr	r3, [r4, #76]	; 0x4c
    2262:	2b00      	cmp	r3, #0
    2264:	d00c      	beq.n	2280 <xQueueGenericSendFromISR+0x6c>
					{
						if( prvNotifyQueueSetContainer( pxQueue, xCopyPosition ) == pdTRUE )
    2266:	1c20      	adds	r0, r4, #0
    2268:	1c29      	adds	r1, r5, #0
    226a:	4b21      	ldr	r3, [pc, #132]	; (22f0 <xQueueGenericSendFromISR+0xdc>)
    226c:	447b      	add	r3, pc
    226e:	4798      	blx	r3
				/* Increment the lock count so the task that unlocks the queue
				knows that data was posted while it was locked. */
				++( pxQueue->xTxLock );
			}

			xReturn = pdPASS;
    2270:	2501      	movs	r5, #1
			{
				#if ( configUSE_QUEUE_SETS == 1 )
				{
					if( pxQueue->pxQueueSetContainer != NULL )
					{
						if( prvNotifyQueueSetContainer( pxQueue, xCopyPosition ) == pdTRUE )
    2272:	2801      	cmp	r0, #1
    2274:	d12d      	bne.n	22d2 <xQueueGenericSendFromISR+0xbe>
						{
							/* The queue is a member of a queue set, and posting
							to the queue set caused a higher priority task to
							unblock.  A context switch is required. */
							if( pxHigherPriorityTaskWoken != NULL )
    2276:	2f00      	cmp	r7, #0
    2278:	d017      	beq.n	22aa <xQueueGenericSendFromISR+0x96>
							{
								*pxHigherPriorityTaskWoken = pdTRUE;
    227a:	2301      	movs	r3, #1
    227c:	603b      	str	r3, [r7, #0]
    227e:	e028      	b.n	22d2 <xQueueGenericSendFromISR+0xbe>
				/* Increment the lock count so the task that unlocks the queue
				knows that data was posted while it was locked. */
				++( pxQueue->xTxLock );
			}

			xReturn = pdPASS;
    2280:	2501      	movs	r5, #1
							mtCOVERAGE_TEST_MARKER();
						}
					}
					else
					{
						if( listLIST_IS_EMPTY( &( pxQueue->xTasksWaitingToReceive ) ) == pdFALSE )
    2282:	6a62      	ldr	r2, [r4, #36]	; 0x24
    2284:	2a00      	cmp	r2, #0
    2286:	d024      	beq.n	22d2 <xQueueGenericSendFromISR+0xbe>
						{
							if( xTaskRemoveFromEventList( &( pxQueue->xTasksWaitingToReceive ) ) != pdFALSE )
    2288:	1c20      	adds	r0, r4, #0
    228a:	3024      	adds	r0, #36	; 0x24
    228c:	4b19      	ldr	r3, [pc, #100]	; (22f4 <xQueueGenericSendFromISR+0xe0>)
    228e:	58f3      	ldr	r3, [r6, r3]
    2290:	4798      	blx	r3
    2292:	2800      	cmp	r0, #0
    2294:	d01d      	beq.n	22d2 <xQueueGenericSendFromISR+0xbe>
							{
								/* The task waiting has a higher priority so record that a
								context	switch is required. */
								if( pxHigherPriorityTaskWoken != NULL )
    2296:	2f00      	cmp	r7, #0
    2298:	d009      	beq.n	22ae <xQueueGenericSendFromISR+0x9a>
								{
									*pxHigherPriorityTaskWoken = pdTRUE;
    229a:	2301      	movs	r3, #1
    229c:	603b      	str	r3, [r7, #0]
    229e:	e018      	b.n	22d2 <xQueueGenericSendFromISR+0xbe>
			}
			else
			{
				/* Increment the lock count so the task that unlocks the queue
				knows that data was posted while it was locked. */
				++( pxQueue->xTxLock );
    22a0:	6ca3      	ldr	r3, [r4, #72]	; 0x48
    22a2:	3301      	adds	r3, #1
    22a4:	64a3      	str	r3, [r4, #72]	; 0x48
			}

			xReturn = pdPASS;
    22a6:	2501      	movs	r5, #1
    22a8:	e013      	b.n	22d2 <xQueueGenericSendFromISR+0xbe>
    22aa:	2501      	movs	r5, #1
    22ac:	e011      	b.n	22d2 <xQueueGenericSendFromISR+0xbe>
    22ae:	2501      	movs	r5, #1
    22b0:	e00f      	b.n	22d2 <xQueueGenericSendFromISR+0xbe>
	/* Similar to xQueueGenericSend, except without blocking if there is no room
	in the queue.  Also don't directly wake a task that was blocked on a queue
	read, instead return a flag to say whether a context switch is required or
	not (i.e. has a task with a higher priority than us been woken by this
	post). */
	uxSavedInterruptStatus = portSET_INTERRUPT_MASK_FROM_ISR();
    22b2:	4b11      	ldr	r3, [pc, #68]	; (22f8 <xQueueGenericSendFromISR+0xe4>)
    22b4:	58f3      	ldr	r3, [r6, r3]
    22b6:	4798      	blx	r3
    22b8:	4680      	mov	r8, r0
	{
		if( ( pxQueue->uxMessagesWaiting < pxQueue->uxLength ) || ( xCopyPosition == queueOVERWRITE ) )
    22ba:	6ba3      	ldr	r3, [r4, #56]	; 0x38
    22bc:	6be2      	ldr	r2, [r4, #60]	; 0x3c
    22be:	4293      	cmp	r3, r2
    22c0:	d3c5      	bcc.n	224e <xQueueGenericSendFromISR+0x3a>
			xReturn = pdPASS;
		}
		else
		{
			traceQUEUE_SEND_FROM_ISR_FAILED( pxQueue );
			xReturn = errQUEUE_FULL;
    22c2:	2500      	movs	r5, #0
    22c4:	e005      	b.n	22d2 <xQueueGenericSendFromISR+0xbe>
	/* Similar to xQueueGenericSend, except without blocking if there is no room
	in the queue.  Also don't directly wake a task that was blocked on a queue
	read, instead return a flag to say whether a context switch is required or
	not (i.e. has a task with a higher priority than us been woken by this
	post). */
	uxSavedInterruptStatus = portSET_INTERRUPT_MASK_FROM_ISR();
    22c6:	4b0c      	ldr	r3, [pc, #48]	; (22f8 <xQueueGenericSendFromISR+0xe4>)
    22c8:	58f3      	ldr	r3, [r6, r3]
    22ca:	4798      	blx	r3
    22cc:	4680      	mov	r8, r0
	{
		if( ( pxQueue->uxMessagesWaiting < pxQueue->uxLength ) || ( xCopyPosition == queueOVERWRITE ) )
    22ce:	6ba3      	ldr	r3, [r4, #56]	; 0x38
    22d0:	e7bd      	b.n	224e <xQueueGenericSendFromISR+0x3a>
		{
			traceQUEUE_SEND_FROM_ISR_FAILED( pxQueue );
			xReturn = errQUEUE_FULL;
		}
	}
	portCLEAR_INTERRUPT_MASK_FROM_ISR( uxSavedInterruptStatus );
    22d2:	4640      	mov	r0, r8
    22d4:	4b09      	ldr	r3, [pc, #36]	; (22fc <xQueueGenericSendFromISR+0xe8>)
    22d6:	58f3      	ldr	r3, [r6, r3]
    22d8:	4798      	blx	r3

	return xReturn;
}
    22da:	1c28      	adds	r0, r5, #0
    22dc:	b003      	add	sp, #12
    22de:	bc0c      	pop	{r2, r3}
    22e0:	4690      	mov	r8, r2
    22e2:	4699      	mov	r9, r3
    22e4:	bdf0      	pop	{r4, r5, r6, r7, pc}
    22e6:	46c0      	nop			; (mov r8, r8)
    22e8:	00002500 	.word	0x00002500
    22ec:	fffffb0b 	.word	0xfffffb0b
    22f0:	fffffb85 	.word	0xfffffb85
    22f4:	000000dc 	.word	0x000000dc
    22f8:	000001f8 	.word	0x000001f8
    22fc:	000000f8 	.word	0x000000f8

00002300 <xQueueGenericReceive>:
/*-----------------------------------------------------------*/

BaseType_t xQueueGenericReceive( QueueHandle_t xQueue, void * const pvBuffer, TickType_t xTicksToWait, const BaseType_t xJustPeeking )
{
    2300:	b5f0      	push	{r4, r5, r6, r7, lr}
    2302:	465f      	mov	r7, fp
    2304:	4656      	mov	r6, sl
    2306:	464d      	mov	r5, r9
    2308:	4644      	mov	r4, r8
    230a:	b4f0      	push	{r4, r5, r6, r7}
    230c:	b087      	sub	sp, #28
    230e:	1c05      	adds	r5, r0, #0
    2310:	1c0e      	adds	r6, r1, #0
    2312:	9203      	str	r2, [sp, #12]
    2314:	4699      	mov	r9, r3
    2316:	4c64      	ldr	r4, [pc, #400]	; (24a8 <xQueueGenericReceive+0x1a8>)
    2318:	447c      	add	r4, pc
BaseType_t xEntryTimeSet = pdFALSE;
TimeOut_t xTimeOut;
int8_t *pcOriginalReadPosition;
Queue_t * const pxQueue = ( Queue_t * ) xQueue;

	configASSERT( pxQueue );
    231a:	2800      	cmp	r0, #0
    231c:	d101      	bne.n	2322 <xQueueGenericReceive+0x22>
    231e:	b672      	cpsid	i
    2320:	e7fe      	b.n	2320 <xQueueGenericReceive+0x20>
	configASSERT( !( ( pvBuffer == NULL ) && ( pxQueue->uxItemSize != ( UBaseType_t ) 0U ) ) );
    2322:	2900      	cmp	r1, #0
    2324:	d104      	bne.n	2330 <xQueueGenericReceive+0x30>
    2326:	6c03      	ldr	r3, [r0, #64]	; 0x40
    2328:	2b00      	cmp	r3, #0
    232a:	d001      	beq.n	2330 <xQueueGenericReceive+0x30>
    232c:	b672      	cpsid	i
    232e:	e7fe      	b.n	232e <xQueueGenericReceive+0x2e>
	#if ( ( INCLUDE_xTaskGetSchedulerState == 1 ) || ( configUSE_TIMERS == 1 ) )
	{
		configASSERT( !( ( xTaskGetSchedulerState() == taskSCHEDULER_SUSPENDED ) && ( xTicksToWait != 0 ) ) );
    2330:	4b5e      	ldr	r3, [pc, #376]	; (24ac <xQueueGenericReceive+0x1ac>)
    2332:	58e3      	ldr	r3, [r4, r3]
    2334:	4798      	blx	r3
    2336:	2800      	cmp	r0, #0
    2338:	d102      	bne.n	2340 <xQueueGenericReceive+0x40>
    233a:	9b03      	ldr	r3, [sp, #12]
    233c:	2b00      	cmp	r3, #0
    233e:	d108      	bne.n	2352 <xQueueGenericReceive+0x52>
	return xReturn;
}
/*-----------------------------------------------------------*/

BaseType_t xQueueGenericReceive( QueueHandle_t xQueue, void * const pvBuffer, TickType_t xTicksToWait, const BaseType_t xJustPeeking )
{
    2340:	2300      	movs	r3, #0
    2342:	4698      	mov	r8, r3
	statements within the function itself.  This is done in the interest
	of execution time efficiency. */

	for( ;; )
	{
		taskENTER_CRITICAL();
    2344:	4b5a      	ldr	r3, [pc, #360]	; (24b0 <xQueueGenericReceive+0x1b0>)
    2346:	58e3      	ldr	r3, [r4, r3]
    2348:	9302      	str	r3, [sp, #8]
				}
				else if( xEntryTimeSet == pdFALSE )
				{
					/* The queue was empty and a block time was specified so
					configure the timeout structure. */
					vTaskSetTimeOutState( &xTimeOut );
    234a:	af04      	add	r7, sp, #16
					xEntryTimeSet = pdTRUE;
    234c:	2301      	movs	r3, #1
    234e:	469a      	mov	sl, r3
    2350:	e001      	b.n	2356 <xQueueGenericReceive+0x56>

	configASSERT( pxQueue );
	configASSERT( !( ( pvBuffer == NULL ) && ( pxQueue->uxItemSize != ( UBaseType_t ) 0U ) ) );
	#if ( ( INCLUDE_xTaskGetSchedulerState == 1 ) || ( configUSE_TIMERS == 1 ) )
	{
		configASSERT( !( ( xTaskGetSchedulerState() == taskSCHEDULER_SUSPENDED ) && ( xTicksToWait != 0 ) ) );
    2352:	b672      	cpsid	i
    2354:	e7fe      	b.n	2354 <xQueueGenericReceive+0x54>
	statements within the function itself.  This is done in the interest
	of execution time efficiency. */

	for( ;; )
	{
		taskENTER_CRITICAL();
    2356:	9b02      	ldr	r3, [sp, #8]
    2358:	4798      	blx	r3
		{
			/* Is there data in the queue now?  To be running we must be
			the highest priority task wanting to access the queue. */
			if( pxQueue->uxMessagesWaiting > ( UBaseType_t ) 0 )
    235a:	6bab      	ldr	r3, [r5, #56]	; 0x38
    235c:	2b00      	cmp	r3, #0
    235e:	d033      	beq.n	23c8 <xQueueGenericReceive+0xc8>
			{
				/* Remember the read position in case the queue is only being
				peeked. */
				pcOriginalReadPosition = pxQueue->u.pcReadFrom;
    2360:	68ef      	ldr	r7, [r5, #12]

				prvCopyDataFromQueue( pxQueue, pvBuffer );
    2362:	1c28      	adds	r0, r5, #0
    2364:	1c31      	adds	r1, r6, #0
    2366:	4b53      	ldr	r3, [pc, #332]	; (24b4 <xQueueGenericReceive+0x1b4>)
    2368:	447b      	add	r3, pc
    236a:	4798      	blx	r3

				if( xJustPeeking == pdFALSE )
    236c:	464b      	mov	r3, r9
    236e:	2b00      	cmp	r3, #0
    2370:	d117      	bne.n	23a2 <xQueueGenericReceive+0xa2>
				{
					traceQUEUE_RECEIVE( pxQueue );

					/* Actually removing data, not just peeking. */
					--( pxQueue->uxMessagesWaiting );
    2372:	6bab      	ldr	r3, [r5, #56]	; 0x38
    2374:	3b01      	subs	r3, #1
    2376:	63ab      	str	r3, [r5, #56]	; 0x38

					#if ( configUSE_MUTEXES == 1 )
					{
						if( pxQueue->uxQueueType == queueQUEUE_IS_MUTEX )
    2378:	682b      	ldr	r3, [r5, #0]
    237a:	2b00      	cmp	r3, #0
    237c:	d103      	bne.n	2386 <xQueueGenericReceive+0x86>
						{
							/* Record the information required to implement
							priority inheritance should it become necessary. */
							pxQueue->pxMutexHolder = ( int8_t * ) xTaskGetCurrentTaskHandle(); /*lint !e961 Cast is not redundant as TaskHandle_t is a typedef. */
    237e:	4b4e      	ldr	r3, [pc, #312]	; (24b8 <xQueueGenericReceive+0x1b8>)
    2380:	58e3      	ldr	r3, [r4, r3]
    2382:	4798      	blx	r3
    2384:	6068      	str	r0, [r5, #4]
							mtCOVERAGE_TEST_MARKER();
						}
					}
					#endif

					if( listLIST_IS_EMPTY( &( pxQueue->xTasksWaitingToSend ) ) == pdFALSE )
    2386:	692b      	ldr	r3, [r5, #16]
    2388:	2b00      	cmp	r3, #0
    238a:	d018      	beq.n	23be <xQueueGenericReceive+0xbe>
					{
						if( xTaskRemoveFromEventList( &( pxQueue->xTasksWaitingToSend ) ) == pdTRUE )
    238c:	1c28      	adds	r0, r5, #0
    238e:	3010      	adds	r0, #16
    2390:	4b4a      	ldr	r3, [pc, #296]	; (24bc <xQueueGenericReceive+0x1bc>)
    2392:	58e3      	ldr	r3, [r4, r3]
    2394:	4798      	blx	r3
    2396:	2801      	cmp	r0, #1
    2398:	d111      	bne.n	23be <xQueueGenericReceive+0xbe>
						{
							queueYIELD_IF_USING_PREEMPTION();
    239a:	4b49      	ldr	r3, [pc, #292]	; (24c0 <xQueueGenericReceive+0x1c0>)
    239c:	58e3      	ldr	r3, [r4, r3]
    239e:	4798      	blx	r3
    23a0:	e00d      	b.n	23be <xQueueGenericReceive+0xbe>
				{
					traceQUEUE_PEEK( pxQueue );

					/* The data is not being removed, so reset the read
					pointer. */
					pxQueue->u.pcReadFrom = pcOriginalReadPosition;
    23a2:	60ef      	str	r7, [r5, #12]

					/* The data is being left in the queue, so see if there are
					any other tasks waiting for the data. */
					if( listLIST_IS_EMPTY( &( pxQueue->xTasksWaitingToReceive ) ) == pdFALSE )
    23a4:	6a6b      	ldr	r3, [r5, #36]	; 0x24
    23a6:	2b00      	cmp	r3, #0
    23a8:	d009      	beq.n	23be <xQueueGenericReceive+0xbe>
					{
						/* Tasks that are removed from the event list will get added to
						the pending ready list as the scheduler is still suspended. */
						if( xTaskRemoveFromEventList( &( pxQueue->xTasksWaitingToReceive ) ) != pdFALSE )
    23aa:	1c28      	adds	r0, r5, #0
    23ac:	3024      	adds	r0, #36	; 0x24
    23ae:	4b43      	ldr	r3, [pc, #268]	; (24bc <xQueueGenericReceive+0x1bc>)
    23b0:	58e3      	ldr	r3, [r4, r3]
    23b2:	4798      	blx	r3
    23b4:	2800      	cmp	r0, #0
    23b6:	d002      	beq.n	23be <xQueueGenericReceive+0xbe>
						{
							/* The task waiting has a higher priority than this task. */
							queueYIELD_IF_USING_PREEMPTION();
    23b8:	4b41      	ldr	r3, [pc, #260]	; (24c0 <xQueueGenericReceive+0x1c0>)
    23ba:	58e3      	ldr	r3, [r4, r3]
    23bc:	4798      	blx	r3
					{
						mtCOVERAGE_TEST_MARKER();
					}
				}

				taskEXIT_CRITICAL();
    23be:	4b41      	ldr	r3, [pc, #260]	; (24c4 <xQueueGenericReceive+0x1c4>)
    23c0:	58e3      	ldr	r3, [r4, r3]
    23c2:	4798      	blx	r3
				return pdPASS;
    23c4:	2001      	movs	r0, #1
    23c6:	e068      	b.n	249a <xQueueGenericReceive+0x19a>
			}
			else
			{
				if( xTicksToWait == ( TickType_t ) 0 )
    23c8:	9b03      	ldr	r3, [sp, #12]
    23ca:	2b00      	cmp	r3, #0
    23cc:	d104      	bne.n	23d8 <xQueueGenericReceive+0xd8>
				{
					/* The queue was empty and no block time is specified (or
					the block time has expired) so leave now. */
					taskEXIT_CRITICAL();
    23ce:	4b3d      	ldr	r3, [pc, #244]	; (24c4 <xQueueGenericReceive+0x1c4>)
    23d0:	58e3      	ldr	r3, [r4, r3]
    23d2:	4798      	blx	r3
					traceQUEUE_RECEIVE_FAILED( pxQueue );
					return errQUEUE_EMPTY;
    23d4:	2000      	movs	r0, #0
    23d6:	e060      	b.n	249a <xQueueGenericReceive+0x19a>
				}
				else if( xEntryTimeSet == pdFALSE )
    23d8:	4643      	mov	r3, r8
    23da:	2b00      	cmp	r3, #0
    23dc:	d104      	bne.n	23e8 <xQueueGenericReceive+0xe8>
				{
					/* The queue was empty and a block time was specified so
					configure the timeout structure. */
					vTaskSetTimeOutState( &xTimeOut );
    23de:	1c38      	adds	r0, r7, #0
    23e0:	4b39      	ldr	r3, [pc, #228]	; (24c8 <xQueueGenericReceive+0x1c8>)
    23e2:	58e3      	ldr	r3, [r4, r3]
    23e4:	4798      	blx	r3
					xEntryTimeSet = pdTRUE;
    23e6:	46d0      	mov	r8, sl
					/* Entry time was already set. */
					mtCOVERAGE_TEST_MARKER();
				}
			}
		}
		taskEXIT_CRITICAL();
    23e8:	4b36      	ldr	r3, [pc, #216]	; (24c4 <xQueueGenericReceive+0x1c4>)
    23ea:	58e3      	ldr	r3, [r4, r3]
    23ec:	4798      	blx	r3

		/* Interrupts and other tasks can send to and receive from the queue
		now the critical section has been exited. */

		vTaskSuspendAll();
    23ee:	4b37      	ldr	r3, [pc, #220]	; (24cc <xQueueGenericReceive+0x1cc>)
    23f0:	58e3      	ldr	r3, [r4, r3]
    23f2:	4798      	blx	r3
		prvLockQueue( pxQueue );
    23f4:	4b2e      	ldr	r3, [pc, #184]	; (24b0 <xQueueGenericReceive+0x1b0>)
    23f6:	58e3      	ldr	r3, [r4, r3]
    23f8:	4798      	blx	r3
    23fa:	6c6b      	ldr	r3, [r5, #68]	; 0x44
    23fc:	3301      	adds	r3, #1
    23fe:	d101      	bne.n	2404 <xQueueGenericReceive+0x104>
    2400:	2300      	movs	r3, #0
    2402:	646b      	str	r3, [r5, #68]	; 0x44
    2404:	6cab      	ldr	r3, [r5, #72]	; 0x48
    2406:	3301      	adds	r3, #1
    2408:	d101      	bne.n	240e <xQueueGenericReceive+0x10e>
    240a:	2300      	movs	r3, #0
    240c:	64ab      	str	r3, [r5, #72]	; 0x48
    240e:	4b2d      	ldr	r3, [pc, #180]	; (24c4 <xQueueGenericReceive+0x1c4>)
    2410:	58e3      	ldr	r3, [r4, r3]
    2412:	4798      	blx	r3

		/* Update the timeout state to see if it has expired yet. */
		if( xTaskCheckForTimeOut( &xTimeOut, &xTicksToWait ) == pdFALSE )
    2414:	1c38      	adds	r0, r7, #0
    2416:	a903      	add	r1, sp, #12
    2418:	4b2d      	ldr	r3, [pc, #180]	; (24d0 <xQueueGenericReceive+0x1d0>)
    241a:	58e3      	ldr	r3, [r4, r3]
    241c:	4798      	blx	r3
    241e:	2800      	cmp	r0, #0
    2420:	d133      	bne.n	248a <xQueueGenericReceive+0x18a>

static BaseType_t prvIsQueueEmpty( const Queue_t *pxQueue )
{
BaseType_t xReturn;

	taskENTER_CRITICAL();
    2422:	4b23      	ldr	r3, [pc, #140]	; (24b0 <xQueueGenericReceive+0x1b0>)
    2424:	58e3      	ldr	r3, [r4, r3]
    2426:	4798      	blx	r3
	{
		if( pxQueue->uxMessagesWaiting == ( UBaseType_t )  0 )
    2428:	6bab      	ldr	r3, [r5, #56]	; 0x38
    242a:	469b      	mov	fp, r3
		else
		{
			xReturn = pdFALSE;
		}
	}
	taskEXIT_CRITICAL();
    242c:	4b25      	ldr	r3, [pc, #148]	; (24c4 <xQueueGenericReceive+0x1c4>)
    242e:	58e3      	ldr	r3, [r4, r3]
    2430:	4798      	blx	r3
		prvLockQueue( pxQueue );

		/* Update the timeout state to see if it has expired yet. */
		if( xTaskCheckForTimeOut( &xTimeOut, &xTicksToWait ) == pdFALSE )
		{
			if( prvIsQueueEmpty( pxQueue ) != pdFALSE )
    2432:	465b      	mov	r3, fp
    2434:	2b00      	cmp	r3, #0
    2436:	d120      	bne.n	247a <xQueueGenericReceive+0x17a>
			{
				traceBLOCKING_ON_QUEUE_RECEIVE( pxQueue );

				#if ( configUSE_MUTEXES == 1 )
				{
					if( pxQueue->uxQueueType == queueQUEUE_IS_MUTEX )
    2438:	682b      	ldr	r3, [r5, #0]
    243a:	2b00      	cmp	r3, #0
    243c:	d109      	bne.n	2452 <xQueueGenericReceive+0x152>
					{
						taskENTER_CRITICAL();
    243e:	4b1c      	ldr	r3, [pc, #112]	; (24b0 <xQueueGenericReceive+0x1b0>)
    2440:	58e3      	ldr	r3, [r4, r3]
    2442:	4798      	blx	r3
						{
							vTaskPriorityInherit( ( void * ) pxQueue->pxMutexHolder );
    2444:	6868      	ldr	r0, [r5, #4]
    2446:	4b23      	ldr	r3, [pc, #140]	; (24d4 <xQueueGenericReceive+0x1d4>)
    2448:	58e3      	ldr	r3, [r4, r3]
    244a:	4798      	blx	r3
						}
						taskEXIT_CRITICAL();
    244c:	4b1d      	ldr	r3, [pc, #116]	; (24c4 <xQueueGenericReceive+0x1c4>)
    244e:	58e3      	ldr	r3, [r4, r3]
    2450:	4798      	blx	r3
						mtCOVERAGE_TEST_MARKER();
					}
				}
				#endif

				vTaskPlaceOnEventList( &( pxQueue->xTasksWaitingToReceive ), xTicksToWait );
    2452:	1c28      	adds	r0, r5, #0
    2454:	3024      	adds	r0, #36	; 0x24
    2456:	9903      	ldr	r1, [sp, #12]
    2458:	4b1f      	ldr	r3, [pc, #124]	; (24d8 <xQueueGenericReceive+0x1d8>)
    245a:	58e3      	ldr	r3, [r4, r3]
    245c:	4798      	blx	r3
				prvUnlockQueue( pxQueue );
    245e:	1c28      	adds	r0, r5, #0
    2460:	4b1e      	ldr	r3, [pc, #120]	; (24dc <xQueueGenericReceive+0x1dc>)
    2462:	447b      	add	r3, pc
    2464:	4798      	blx	r3
				if( xTaskResumeAll() == pdFALSE )
    2466:	4b1e      	ldr	r3, [pc, #120]	; (24e0 <xQueueGenericReceive+0x1e0>)
    2468:	58e3      	ldr	r3, [r4, r3]
    246a:	4798      	blx	r3
    246c:	2800      	cmp	r0, #0
    246e:	d000      	beq.n	2472 <xQueueGenericReceive+0x172>
    2470:	e771      	b.n	2356 <xQueueGenericReceive+0x56>
				{
					portYIELD_WITHIN_API();
    2472:	4b13      	ldr	r3, [pc, #76]	; (24c0 <xQueueGenericReceive+0x1c0>)
    2474:	58e3      	ldr	r3, [r4, r3]
    2476:	4798      	blx	r3
    2478:	e76d      	b.n	2356 <xQueueGenericReceive+0x56>
				}
			}
			else
			{
				/* Try again. */
				prvUnlockQueue( pxQueue );
    247a:	1c28      	adds	r0, r5, #0
    247c:	4b19      	ldr	r3, [pc, #100]	; (24e4 <xQueueGenericReceive+0x1e4>)
    247e:	447b      	add	r3, pc
    2480:	4798      	blx	r3
				( void ) xTaskResumeAll();
    2482:	4b17      	ldr	r3, [pc, #92]	; (24e0 <xQueueGenericReceive+0x1e0>)
    2484:	58e3      	ldr	r3, [r4, r3]
    2486:	4798      	blx	r3
    2488:	e765      	b.n	2356 <xQueueGenericReceive+0x56>
			}
		}
		else
		{
			prvUnlockQueue( pxQueue );
    248a:	1c28      	adds	r0, r5, #0
    248c:	4b16      	ldr	r3, [pc, #88]	; (24e8 <xQueueGenericReceive+0x1e8>)
    248e:	447b      	add	r3, pc
    2490:	4798      	blx	r3
			( void ) xTaskResumeAll();
    2492:	4b13      	ldr	r3, [pc, #76]	; (24e0 <xQueueGenericReceive+0x1e0>)
    2494:	58e3      	ldr	r3, [r4, r3]
    2496:	4798      	blx	r3
			traceQUEUE_RECEIVE_FAILED( pxQueue );
			return errQUEUE_EMPTY;
    2498:	2000      	movs	r0, #0
		}
	}
}
    249a:	b007      	add	sp, #28
    249c:	bc3c      	pop	{r2, r3, r4, r5}
    249e:	4690      	mov	r8, r2
    24a0:	4699      	mov	r9, r3
    24a2:	46a2      	mov	sl, r4
    24a4:	46ab      	mov	fp, r5
    24a6:	bdf0      	pop	{r4, r5, r6, r7, pc}
    24a8:	00002410 	.word	0x00002410
    24ac:	00000200 	.word	0x00000200
    24b0:	00000220 	.word	0x00000220
    24b4:	fffffae5 	.word	0xfffffae5
    24b8:	00000178 	.word	0x00000178
    24bc:	000000dc 	.word	0x000000dc
    24c0:	00000148 	.word	0x00000148
    24c4:	0000000c 	.word	0x0000000c
    24c8:	0000021c 	.word	0x0000021c
    24cc:	000000fc 	.word	0x000000fc
    24d0:	000000f4 	.word	0x000000f4
    24d4:	0000011c 	.word	0x0000011c
    24d8:	00000054 	.word	0x00000054
    24dc:	fffffa23 	.word	0xfffffa23
    24e0:	000001a0 	.word	0x000001a0
    24e4:	fffffa07 	.word	0xfffffa07
    24e8:	fffff9f7 	.word	0xfffff9f7

000024ec <vQueueWaitForMessageRestricted>:
/*-----------------------------------------------------------*/

#if ( configUSE_TIMERS == 1 )

	void vQueueWaitForMessageRestricted( QueueHandle_t xQueue, TickType_t xTicksToWait )
	{
    24ec:	b570      	push	{r4, r5, r6, lr}
    24ee:	b082      	sub	sp, #8
    24f0:	1c04      	adds	r4, r0, #0
    24f2:	1c0e      	adds	r6, r1, #0
    24f4:	4d10      	ldr	r5, [pc, #64]	; (2538 <vQueueWaitForMessageRestricted+0x4c>)
    24f6:	447d      	add	r5, pc
		will not actually cause the task to block, just place it on a blocked
		list.  It will not block until the scheduler is unlocked - at which
		time a yield will be performed.  If an item is added to the queue while
		the queue is locked, and the calling task blocks on the queue, then the
		calling task will be immediately unblocked when the queue is unlocked. */
		prvLockQueue( pxQueue );
    24f8:	4b10      	ldr	r3, [pc, #64]	; (253c <vQueueWaitForMessageRestricted+0x50>)
    24fa:	58eb      	ldr	r3, [r5, r3]
    24fc:	4798      	blx	r3
    24fe:	6c63      	ldr	r3, [r4, #68]	; 0x44
    2500:	3301      	adds	r3, #1
    2502:	d101      	bne.n	2508 <vQueueWaitForMessageRestricted+0x1c>
    2504:	2300      	movs	r3, #0
    2506:	6463      	str	r3, [r4, #68]	; 0x44
    2508:	6ca3      	ldr	r3, [r4, #72]	; 0x48
    250a:	3301      	adds	r3, #1
    250c:	d101      	bne.n	2512 <vQueueWaitForMessageRestricted+0x26>
    250e:	2300      	movs	r3, #0
    2510:	64a3      	str	r3, [r4, #72]	; 0x48
    2512:	4b0b      	ldr	r3, [pc, #44]	; (2540 <vQueueWaitForMessageRestricted+0x54>)
    2514:	58eb      	ldr	r3, [r5, r3]
    2516:	4798      	blx	r3
		if( pxQueue->uxMessagesWaiting == ( UBaseType_t ) 0U )
    2518:	6ba3      	ldr	r3, [r4, #56]	; 0x38
    251a:	2b00      	cmp	r3, #0
    251c:	d105      	bne.n	252a <vQueueWaitForMessageRestricted+0x3e>
		{
			/* There is nothing in the queue, block for the specified period. */
			vTaskPlaceOnEventListRestricted( &( pxQueue->xTasksWaitingToReceive ), xTicksToWait );
    251e:	1c20      	adds	r0, r4, #0
    2520:	3024      	adds	r0, #36	; 0x24
    2522:	1c31      	adds	r1, r6, #0
    2524:	4b07      	ldr	r3, [pc, #28]	; (2544 <vQueueWaitForMessageRestricted+0x58>)
    2526:	58eb      	ldr	r3, [r5, r3]
    2528:	4798      	blx	r3
		}
		else
		{
			mtCOVERAGE_TEST_MARKER();
		}
		prvUnlockQueue( pxQueue );
    252a:	1c20      	adds	r0, r4, #0
    252c:	4b06      	ldr	r3, [pc, #24]	; (2548 <vQueueWaitForMessageRestricted+0x5c>)
    252e:	447b      	add	r3, pc
    2530:	4798      	blx	r3
	}
    2532:	b002      	add	sp, #8
    2534:	bd70      	pop	{r4, r5, r6, pc}
    2536:	46c0      	nop			; (mov r8, r8)
    2538:	00002232 	.word	0x00002232
    253c:	00000220 	.word	0x00000220
    2540:	0000000c 	.word	0x0000000c
    2544:	0000012c 	.word	0x0000012c
    2548:	fffff957 	.word	0xfffff957

0000254c <prvTaskIsTaskSuspended>:

		/* Accesses xPendingReadyList so must be called from a critical
		section. */

		/* It does not make sense to check if the calling task is suspended. */
		configASSERT( xTask );
    254c:	2800      	cmp	r0, #0
    254e:	d101      	bne.n	2554 <prvTaskIsTaskSuspended+0x8>
    2550:	b672      	cpsid	i
    2552:	e7fe      	b.n	2552 <prvTaskIsTaskSuspended+0x6>

#if ( INCLUDE_vTaskSuspend == 1 )

	static BaseType_t prvTaskIsTaskSuspended( const TaskHandle_t xTask )
	{
	BaseType_t xReturn = pdFALSE;
    2554:	2300      	movs	r3, #0

		/* It does not make sense to check if the calling task is suspended. */
		configASSERT( xTask );

		/* Is the task being resumed actually in the suspended list? */
		if( listIS_CONTAINED_WITHIN( &xSuspendedTaskList, &( pxTCB->xGenericListItem ) ) != pdFALSE )
    2556:	4a08      	ldr	r2, [pc, #32]	; (2578 <prvTaskIsTaskSuspended+0x2c>)
    2558:	447a      	add	r2, pc
    255a:	6941      	ldr	r1, [r0, #20]
    255c:	4291      	cmp	r1, r2
    255e:	d109      	bne.n	2574 <prvTaskIsTaskSuspended+0x28>
		{
			/* Has the task already been resumed from within an ISR? */
			if( listIS_CONTAINED_WITHIN( &xPendingReadyList, &( pxTCB->xEventListItem ) ) == pdFALSE )
    2560:	6a83      	ldr	r3, [r0, #40]	; 0x28
    2562:	4a06      	ldr	r2, [pc, #24]	; (257c <prvTaskIsTaskSuspended+0x30>)
    2564:	447a      	add	r2, pc
    2566:	3214      	adds	r2, #20
    2568:	4293      	cmp	r3, r2
    256a:	d002      	beq.n	2572 <prvTaskIsTaskSuspended+0x26>

#if ( INCLUDE_vTaskSuspend == 1 )

	static BaseType_t prvTaskIsTaskSuspended( const TaskHandle_t xTask )
	{
	BaseType_t xReturn = pdFALSE;
    256c:	425a      	negs	r2, r3
    256e:	4153      	adcs	r3, r2
    2570:	e000      	b.n	2574 <prvTaskIsTaskSuspended+0x28>
    2572:	2300      	movs	r3, #0
		{
			mtCOVERAGE_TEST_MARKER();
		}

		return xReturn;
	} /*lint !e818 xTask cannot be a pointer to const because it is a typedef. */
    2574:	1c18      	adds	r0, r3, #0
    2576:	4770      	bx	lr
    2578:	1ffff6a8 	.word	0x1ffff6a8
    257c:	1ffff69c 	.word	0x1ffff69c

00002580 <prvResetNextTaskUnblockTime>:

static void prvResetNextTaskUnblockTime( void )
{
TCB_t *pxTCB;

	if( listLIST_IS_EMPTY( pxDelayedTaskList ) != pdFALSE )
    2580:	4b0a      	ldr	r3, [pc, #40]	; (25ac <prvResetNextTaskUnblockTime+0x2c>)
    2582:	447b      	add	r3, pc
    2584:	6a9b      	ldr	r3, [r3, #40]	; 0x28
    2586:	681b      	ldr	r3, [r3, #0]
    2588:	2b00      	cmp	r3, #0
    258a:	d105      	bne.n	2598 <prvResetNextTaskUnblockTime+0x18>
		/* The new current delayed list is empty.  Set
		xNextTaskUnblockTime to the maximum possible value so it is
		extremely unlikely that the
		if( xTickCount >= xNextTaskUnblockTime ) test will pass until
		there is an item in the delayed list. */
		xNextTaskUnblockTime = portMAX_DELAY;
    258c:	2201      	movs	r2, #1
    258e:	4252      	negs	r2, r2
    2590:	4b07      	ldr	r3, [pc, #28]	; (25b0 <prvResetNextTaskUnblockTime+0x30>)
    2592:	447b      	add	r3, pc
    2594:	601a      	str	r2, [r3, #0]
    2596:	e008      	b.n	25aa <prvResetNextTaskUnblockTime+0x2a>
	{
		/* The new current delayed list is not empty, get the value of
		the item at the head of the delayed list.  This is the time at
		which the task at the head of the delayed list should be removed
		from the Blocked state. */
		( pxTCB ) = ( TCB_t * ) listGET_OWNER_OF_HEAD_ENTRY( pxDelayedTaskList );
    2598:	4b06      	ldr	r3, [pc, #24]	; (25b4 <prvResetNextTaskUnblockTime+0x34>)
    259a:	447b      	add	r3, pc
    259c:	6a9b      	ldr	r3, [r3, #40]	; 0x28
    259e:	68db      	ldr	r3, [r3, #12]
		xNextTaskUnblockTime = listGET_LIST_ITEM_VALUE( &( ( pxTCB )->xGenericListItem ) );
    25a0:	68db      	ldr	r3, [r3, #12]
    25a2:	685a      	ldr	r2, [r3, #4]
    25a4:	4b04      	ldr	r3, [pc, #16]	; (25b8 <prvResetNextTaskUnblockTime+0x38>)
    25a6:	447b      	add	r3, pc
    25a8:	601a      	str	r2, [r3, #0]
	}
}
    25aa:	4770      	bx	lr
    25ac:	1ffff67e 	.word	0x1ffff67e
    25b0:	1fffda6e 	.word	0x1fffda6e
    25b4:	1ffff666 	.word	0x1ffff666
    25b8:	1fffda5a 	.word	0x1fffda5a

000025bc <prvAddCurrentTaskToDelayedList>:
	#endif /* vTaskDelete */
}
/*-----------------------------------------------------------*/

static void prvAddCurrentTaskToDelayedList( const TickType_t xTimeToWake )
{
    25bc:	b510      	push	{r4, lr}
    25be:	b082      	sub	sp, #8
    25c0:	1c04      	adds	r4, r0, #0
    25c2:	4b16      	ldr	r3, [pc, #88]	; (261c <prvAddCurrentTaskToDelayedList+0x60>)
    25c4:	447b      	add	r3, pc
	/* The list item will be inserted in wake time order. */
	listSET_LIST_ITEM_VALUE( &( pxCurrentTCB->xGenericListItem ), xTimeToWake );
    25c6:	4a16      	ldr	r2, [pc, #88]	; (2620 <prvAddCurrentTaskToDelayedList+0x64>)
    25c8:	589a      	ldr	r2, [r3, r2]
    25ca:	6812      	ldr	r2, [r2, #0]
    25cc:	6050      	str	r0, [r2, #4]

	if( xTimeToWake < xTickCount )
    25ce:	4a15      	ldr	r2, [pc, #84]	; (2624 <prvAddCurrentTaskToDelayedList+0x68>)
    25d0:	447a      	add	r2, pc
    25d2:	6ad2      	ldr	r2, [r2, #44]	; 0x2c
    25d4:	4290      	cmp	r0, r2
    25d6:	d20b      	bcs.n	25f0 <prvAddCurrentTaskToDelayedList+0x34>
	{
		/* Wake time has overflowed.  Place this item in the overflow list. */
		vListInsert( pxOverflowDelayedTaskList, &( pxCurrentTCB->xGenericListItem ) );
    25d8:	4a13      	ldr	r2, [pc, #76]	; (2628 <prvAddCurrentTaskToDelayedList+0x6c>)
    25da:	447a      	add	r2, pc
    25dc:	6b10      	ldr	r0, [r2, #48]	; 0x30
    25de:	4a10      	ldr	r2, [pc, #64]	; (2620 <prvAddCurrentTaskToDelayedList+0x64>)
    25e0:	589a      	ldr	r2, [r3, r2]
    25e2:	6811      	ldr	r1, [r2, #0]
    25e4:	3104      	adds	r1, #4
    25e6:	4a11      	ldr	r2, [pc, #68]	; (262c <prvAddCurrentTaskToDelayedList+0x70>)
    25e8:	589a      	ldr	r2, [r3, r2]
    25ea:	9201      	str	r2, [sp, #4]
    25ec:	4790      	blx	r2
    25ee:	e012      	b.n	2616 <prvAddCurrentTaskToDelayedList+0x5a>
	}
	else
	{
		/* The wake time has not overflowed, so the current block list is used. */
		vListInsert( pxDelayedTaskList, &( pxCurrentTCB->xGenericListItem ) );
    25f0:	4a0f      	ldr	r2, [pc, #60]	; (2630 <prvAddCurrentTaskToDelayedList+0x74>)
    25f2:	447a      	add	r2, pc
    25f4:	6a90      	ldr	r0, [r2, #40]	; 0x28
    25f6:	4a0a      	ldr	r2, [pc, #40]	; (2620 <prvAddCurrentTaskToDelayedList+0x64>)
    25f8:	589a      	ldr	r2, [r3, r2]
    25fa:	6811      	ldr	r1, [r2, #0]
    25fc:	3104      	adds	r1, #4
    25fe:	4a0b      	ldr	r2, [pc, #44]	; (262c <prvAddCurrentTaskToDelayedList+0x70>)
    2600:	589a      	ldr	r2, [r3, r2]
    2602:	9201      	str	r2, [sp, #4]
    2604:	4790      	blx	r2

		/* If the task entering the blocked state was placed at the head of the
		list of blocked tasks then xNextTaskUnblockTime needs to be updated
		too. */
		if( xTimeToWake < xNextTaskUnblockTime )
    2606:	4b0b      	ldr	r3, [pc, #44]	; (2634 <prvAddCurrentTaskToDelayedList+0x78>)
    2608:	447b      	add	r3, pc
    260a:	681b      	ldr	r3, [r3, #0]
    260c:	429c      	cmp	r4, r3
    260e:	d202      	bcs.n	2616 <prvAddCurrentTaskToDelayedList+0x5a>
		{
			xNextTaskUnblockTime = xTimeToWake;
    2610:	4b09      	ldr	r3, [pc, #36]	; (2638 <prvAddCurrentTaskToDelayedList+0x7c>)
    2612:	447b      	add	r3, pc
    2614:	601c      	str	r4, [r3, #0]
		else
		{
			mtCOVERAGE_TEST_MARKER();
		}
	}
}
    2616:	b002      	add	sp, #8
    2618:	bd10      	pop	{r4, pc}
    261a:	46c0      	nop			; (mov r8, r8)
    261c:	00002164 	.word	0x00002164
    2620:	0000003c 	.word	0x0000003c
    2624:	1ffff630 	.word	0x1ffff630
    2628:	1ffff626 	.word	0x1ffff626
    262c:	0000015c 	.word	0x0000015c
    2630:	1ffff60e 	.word	0x1ffff60e
    2634:	1fffd9f8 	.word	0x1fffd9f8
    2638:	1fffd9ee 	.word	0x1fffd9ee

0000263c <xTaskGenericCreate>:
static void prvResetNextTaskUnblockTime( void );

/*-----------------------------------------------------------*/

BaseType_t xTaskGenericCreate( TaskFunction_t pxTaskCode, const char * const pcName, const uint16_t usStackDepth, void * const pvParameters, UBaseType_t uxPriority, TaskHandle_t * const pxCreatedTask, StackType_t * const puxStackBuffer, const MemoryRegion_t * const xRegions ) /*lint !e971 Unqualified char types are allowed for strings and single characters only. */
{
    263c:	b5f0      	push	{r4, r5, r6, r7, lr}
    263e:	465f      	mov	r7, fp
    2640:	4656      	mov	r6, sl
    2642:	464d      	mov	r5, r9
    2644:	4644      	mov	r4, r8
    2646:	b4f0      	push	{r4, r5, r6, r7}
    2648:	b085      	sub	sp, #20
    264a:	4680      	mov	r8, r0
    264c:	1c0f      	adds	r7, r1, #0
    264e:	1c16      	adds	r6, r2, #0
    2650:	469b      	mov	fp, r3
    2652:	4d75      	ldr	r5, [pc, #468]	; (2828 <xTaskGenericCreate+0x1ec>)
    2654:	447d      	add	r5, pc
BaseType_t xReturn;
TCB_t * pxNewTCB;

	configASSERT( pxTaskCode );
    2656:	2800      	cmp	r0, #0
    2658:	d101      	bne.n	265e <xTaskGenericCreate+0x22>
    265a:	b672      	cpsid	i
    265c:	e7fe      	b.n	265c <xTaskGenericCreate+0x20>
	configASSERT( ( ( uxPriority & ( ~portPRIVILEGE_BIT ) ) < configMAX_PRIORITIES ) );
    265e:	9a0e      	ldr	r2, [sp, #56]	; 0x38
    2660:	2a04      	cmp	r2, #4
    2662:	d901      	bls.n	2668 <xTaskGenericCreate+0x2c>
    2664:	b672      	cpsid	i
    2666:	e7fe      	b.n	2666 <xTaskGenericCreate+0x2a>
{
TCB_t *pxNewTCB;

	/* Allocate space for the TCB.  Where the memory comes from depends on
	the implementation of the port malloc function. */
	pxNewTCB = ( TCB_t * ) pvPortMalloc( sizeof( TCB_t ) );
    2668:	2040      	movs	r0, #64	; 0x40
    266a:	4b70      	ldr	r3, [pc, #448]	; (282c <xTaskGenericCreate+0x1f0>)
    266c:	58eb      	ldr	r3, [r5, r3]
    266e:	4798      	blx	r3
    2670:	1e04      	subs	r4, r0, #0

	if( pxNewTCB != NULL )
    2672:	d100      	bne.n	2676 <xTaskGenericCreate+0x3a>
    2674:	e0ce      	b.n	2814 <xTaskGenericCreate+0x1d8>
	{
		/* Allocate space for the stack used by the task being created.
		The base of the stack memory stored in the TCB so the task can
		be deleted later if required. */
		pxNewTCB->pxStack = ( StackType_t * ) pvPortMallocAligned( ( ( ( size_t ) usStackDepth ) * sizeof( StackType_t ) ), puxStackBuffer ); /*lint !e961 MISRA exception as the casts are only redundant for some ports. */
    2676:	9b10      	ldr	r3, [sp, #64]	; 0x40
    2678:	2b00      	cmp	r3, #0
    267a:	d000      	beq.n	267e <xTaskGenericCreate+0x42>
    267c:	e0b7      	b.n	27ee <xTaskGenericCreate+0x1b2>
    267e:	00b0      	lsls	r0, r6, #2
    2680:	4b6a      	ldr	r3, [pc, #424]	; (282c <xTaskGenericCreate+0x1f0>)
    2682:	58eb      	ldr	r3, [r5, r3]
    2684:	4798      	blx	r3
    2686:	6320      	str	r0, [r4, #48]	; 0x30

		if( pxNewTCB->pxStack == NULL )
    2688:	2800      	cmp	r0, #0
    268a:	d000      	beq.n	268e <xTaskGenericCreate+0x52>
    268c:	e0b1      	b.n	27f2 <xTaskGenericCreate+0x1b6>
		{
			/* Could not allocate the stack.  Delete the allocated TCB. */
			vPortFree( pxNewTCB );
    268e:	1c20      	adds	r0, r4, #0
    2690:	4b67      	ldr	r3, [pc, #412]	; (2830 <xTaskGenericCreate+0x1f4>)
    2692:	58eb      	ldr	r3, [r5, r3]
    2694:	4798      	blx	r3
    2696:	e0bd      	b.n	2814 <xTaskGenericCreate+0x1d8>
UBaseType_t x;

	/* Store the task name in the TCB. */
	for( x = ( UBaseType_t ) 0; x < ( UBaseType_t ) configMAX_TASK_NAME_LEN; x++ )
	{
		pxTCB->pcTaskName[ x ] = pcName[ x ];
    2698:	5cf9      	ldrb	r1, [r7, r3]
    269a:	18e2      	adds	r2, r4, r3
    269c:	3234      	adds	r2, #52	; 0x34
    269e:	7011      	strb	r1, [r2, #0]

		/* Don't copy all configMAX_TASK_NAME_LEN if the string is shorter than
		configMAX_TASK_NAME_LEN characters just in case the memory after the
		string is not accessible (extremely unlikely). */
		if( pcName[ x ] == 0x00 )
    26a0:	5cfa      	ldrb	r2, [r7, r3]
    26a2:	2a00      	cmp	r2, #0
    26a4:	d002      	beq.n	26ac <xTaskGenericCreate+0x70>
static void prvInitialiseTCBVariables( TCB_t * const pxTCB, const char * const pcName, UBaseType_t uxPriority, const MemoryRegion_t * const xRegions, const uint16_t usStackDepth ) /*lint !e971 Unqualified char types are allowed for strings and single characters only. */
{
UBaseType_t x;

	/* Store the task name in the TCB. */
	for( x = ( UBaseType_t ) 0; x < ( UBaseType_t ) configMAX_TASK_NAME_LEN; x++ )
    26a6:	3301      	adds	r3, #1
    26a8:	2b05      	cmp	r3, #5
    26aa:	d1f5      	bne.n	2698 <xTaskGenericCreate+0x5c>
		}
	}

	/* Ensure the name string is terminated in the case that the string length
	was greater or equal to configMAX_TASK_NAME_LEN. */
	pxTCB->pcTaskName[ configMAX_TASK_NAME_LEN - 1 ] = '\0';
    26ac:	2200      	movs	r2, #0
    26ae:	2338      	movs	r3, #56	; 0x38
    26b0:	54e2      	strb	r2, [r4, r3]
    26b2:	9f0e      	ldr	r7, [sp, #56]	; 0x38
    26b4:	2f04      	cmp	r7, #4
    26b6:	d900      	bls.n	26ba <xTaskGenericCreate+0x7e>
    26b8:	2704      	movs	r7, #4
	else
	{
		mtCOVERAGE_TEST_MARKER();
	}

	pxTCB->uxPriority = uxPriority;
    26ba:	62e7      	str	r7, [r4, #44]	; 0x2c
	#if ( configUSE_MUTEXES == 1 )
	{
		pxTCB->uxBasePriority = uxPriority;
    26bc:	63e7      	str	r7, [r4, #60]	; 0x3c
	}
	#endif /* configUSE_MUTEXES */

	vListInitialiseItem( &( pxTCB->xGenericListItem ) );
    26be:	1d22      	adds	r2, r4, #4
    26c0:	4691      	mov	r9, r2
    26c2:	1c10      	adds	r0, r2, #0
    26c4:	4b5b      	ldr	r3, [pc, #364]	; (2834 <xTaskGenericCreate+0x1f8>)
    26c6:	58eb      	ldr	r3, [r5, r3]
    26c8:	9301      	str	r3, [sp, #4]
    26ca:	4798      	blx	r3
	vListInitialiseItem( &( pxTCB->xEventListItem ) );
    26cc:	1c20      	adds	r0, r4, #0
    26ce:	3018      	adds	r0, #24
    26d0:	9b01      	ldr	r3, [sp, #4]
    26d2:	4798      	blx	r3

	/* Set the pxTCB as a link back from the ListItem_t.  This is so we can get
	back to	the containing TCB from a generic item in a list. */
	listSET_LIST_ITEM_OWNER( &( pxTCB->xGenericListItem ), pxTCB );
    26d4:	6124      	str	r4, [r4, #16]

	/* Event lists are always in priority order. */
	listSET_LIST_ITEM_VALUE( &( pxTCB->xEventListItem ), ( TickType_t ) configMAX_PRIORITIES - ( TickType_t ) uxPriority ); /*lint !e961 MISRA exception as the casts are only redundant for some ports. */
    26d6:	2305      	movs	r3, #5
    26d8:	1bdf      	subs	r7, r3, r7
    26da:	61a7      	str	r7, [r4, #24]
	listSET_LIST_ITEM_OWNER( &( pxTCB->xEventListItem ), pxTCB );
    26dc:	6264      	str	r4, [r4, #36]	; 0x24
		{
			pxNewTCB->pxTopOfStack = pxPortInitialiseStack( pxTopOfStack, pxTaskCode, pvParameters, xRunPrivileged );
		}
		#else /* portUSING_MPU_WRAPPERS */
		{
			pxNewTCB->pxTopOfStack = pxPortInitialiseStack( pxTopOfStack, pxTaskCode, pvParameters );
    26de:	1c30      	adds	r0, r6, #0
    26e0:	4641      	mov	r1, r8
    26e2:	465a      	mov	r2, fp
    26e4:	4b54      	ldr	r3, [pc, #336]	; (2838 <xTaskGenericCreate+0x1fc>)
    26e6:	58eb      	ldr	r3, [r5, r3]
    26e8:	4798      	blx	r3
    26ea:	6020      	str	r0, [r4, #0]
		}
		#endif /* portUSING_MPU_WRAPPERS */

		if( ( void * ) pxCreatedTask != NULL )
    26ec:	9a0f      	ldr	r2, [sp, #60]	; 0x3c
    26ee:	2a00      	cmp	r2, #0
    26f0:	d000      	beq.n	26f4 <xTaskGenericCreate+0xb8>
		{
			/* Pass the TCB out - in an anonymous way.  The calling function/
			task can use this as a handle to delete the task later if
			required.*/
			*pxCreatedTask = ( TaskHandle_t ) pxNewTCB;
    26f2:	6014      	str	r4, [r2, #0]
			mtCOVERAGE_TEST_MARKER();
		}

		/* Ensure interrupts don't access the task lists while they are being
		updated. */
		taskENTER_CRITICAL();
    26f4:	4b51      	ldr	r3, [pc, #324]	; (283c <xTaskGenericCreate+0x200>)
    26f6:	58eb      	ldr	r3, [r5, r3]
    26f8:	4798      	blx	r3
		{
			uxCurrentNumberOfTasks++;
    26fa:	4b51      	ldr	r3, [pc, #324]	; (2840 <xTaskGenericCreate+0x204>)
    26fc:	447b      	add	r3, pc
    26fe:	6b5a      	ldr	r2, [r3, #52]	; 0x34
    2700:	3201      	adds	r2, #1
    2702:	635a      	str	r2, [r3, #52]	; 0x34
			if( pxCurrentTCB == NULL )
    2704:	4b4f      	ldr	r3, [pc, #316]	; (2844 <xTaskGenericCreate+0x208>)
    2706:	58eb      	ldr	r3, [r5, r3]
    2708:	681b      	ldr	r3, [r3, #0]
    270a:	2b00      	cmp	r3, #0
    270c:	d134      	bne.n	2778 <xTaskGenericCreate+0x13c>
			{
				/* There are no other tasks, or all the other tasks are in
				the suspended state - make this the current task. */
				pxCurrentTCB =  pxNewTCB;
    270e:	4b4d      	ldr	r3, [pc, #308]	; (2844 <xTaskGenericCreate+0x208>)
    2710:	58eb      	ldr	r3, [r5, r3]
    2712:	601c      	str	r4, [r3, #0]

				if( uxCurrentNumberOfTasks == ( UBaseType_t ) 1 )
    2714:	4b4c      	ldr	r3, [pc, #304]	; (2848 <xTaskGenericCreate+0x20c>)
    2716:	447b      	add	r3, pc
    2718:	6b5b      	ldr	r3, [r3, #52]	; 0x34
    271a:	2b01      	cmp	r3, #1
    271c:	d13b      	bne.n	2796 <xTaskGenericCreate+0x15a>
    271e:	4b4b      	ldr	r3, [pc, #300]	; (284c <xTaskGenericCreate+0x210>)
    2720:	447b      	add	r3, pc
    2722:	1c1e      	adds	r6, r3, #0
    2724:	3638      	adds	r6, #56	; 0x38
    2726:	1c1f      	adds	r7, r3, #0
    2728:	379c      	adds	r7, #156	; 0x9c
{
UBaseType_t uxPriority;

	for( uxPriority = ( UBaseType_t ) 0U; uxPriority < ( UBaseType_t ) configMAX_PRIORITIES; uxPriority++ )
	{
		vListInitialise( &( pxReadyTasksLists[ uxPriority ] ) );
    272a:	4b49      	ldr	r3, [pc, #292]	; (2850 <xTaskGenericCreate+0x214>)
    272c:	58eb      	ldr	r3, [r5, r3]
    272e:	9300      	str	r3, [sp, #0]
    2730:	1c30      	adds	r0, r6, #0
    2732:	9b00      	ldr	r3, [sp, #0]
    2734:	4798      	blx	r3
    2736:	3614      	adds	r6, #20

static void prvInitialiseTaskLists( void )
{
UBaseType_t uxPriority;

	for( uxPriority = ( UBaseType_t ) 0U; uxPriority < ( UBaseType_t ) configMAX_PRIORITIES; uxPriority++ )
    2738:	42be      	cmp	r6, r7
    273a:	d1f9      	bne.n	2730 <xTaskGenericCreate+0xf4>
	{
		vListInitialise( &( pxReadyTasksLists[ uxPriority ] ) );
	}

	vListInitialise( &xDelayedTaskList1 );
    273c:	4a45      	ldr	r2, [pc, #276]	; (2854 <xTaskGenericCreate+0x218>)
    273e:	447a      	add	r2, pc
    2740:	4690      	mov	r8, r2
    2742:	231c      	movs	r3, #28
    2744:	469b      	mov	fp, r3
    2746:	44c3      	add	fp, r8
    2748:	4658      	mov	r0, fp
    274a:	4b41      	ldr	r3, [pc, #260]	; (2850 <xTaskGenericCreate+0x214>)
    274c:	58ee      	ldr	r6, [r5, r3]
    274e:	47b0      	blx	r6
	vListInitialise( &xDelayedTaskList2 );
    2750:	2230      	movs	r2, #48	; 0x30
    2752:	4692      	mov	sl, r2
    2754:	44c2      	add	sl, r8
    2756:	4650      	mov	r0, sl
    2758:	47b0      	blx	r6
	vListInitialise( &xPendingReadyList );
    275a:	4f3f      	ldr	r7, [pc, #252]	; (2858 <xTaskGenericCreate+0x21c>)
    275c:	447f      	add	r7, pc
    275e:	1c38      	adds	r0, r7, #0
    2760:	3014      	adds	r0, #20
    2762:	47b0      	blx	r6

	#if ( INCLUDE_vTaskDelete == 1 )
	{
		vListInitialise( &xTasksWaitingTermination );
    2764:	4640      	mov	r0, r8
    2766:	3044      	adds	r0, #68	; 0x44
    2768:	47b0      	blx	r6
	}
	#endif /* INCLUDE_vTaskDelete */

	#if ( INCLUDE_vTaskSuspend == 1 )
	{
		vListInitialise( &xSuspendedTaskList );
    276a:	1c38      	adds	r0, r7, #0
    276c:	47b0      	blx	r6
	}
	#endif /* INCLUDE_vTaskSuspend */

	/* Start with pxDelayedTaskList using list1 and the pxOverflowDelayedTaskList
	using list2. */
	pxDelayedTaskList = &xDelayedTaskList1;
    276e:	465b      	mov	r3, fp
    2770:	62bb      	str	r3, [r7, #40]	; 0x28
	pxOverflowDelayedTaskList = &xDelayedTaskList2;
    2772:	4652      	mov	r2, sl
    2774:	633a      	str	r2, [r7, #48]	; 0x30
    2776:	e00e      	b.n	2796 <xTaskGenericCreate+0x15a>
			else
			{
				/* If the scheduler is not already running, make this task the
				current task if it is the highest priority task to be created
				so far. */
				if( xSchedulerRunning == pdFALSE )
    2778:	4b38      	ldr	r3, [pc, #224]	; (285c <xTaskGenericCreate+0x220>)
    277a:	447b      	add	r3, pc
    277c:	6d9b      	ldr	r3, [r3, #88]	; 0x58
    277e:	2b00      	cmp	r3, #0
    2780:	d109      	bne.n	2796 <xTaskGenericCreate+0x15a>
				{
					if( pxCurrentTCB->uxPriority <= uxPriority )
    2782:	4b30      	ldr	r3, [pc, #192]	; (2844 <xTaskGenericCreate+0x208>)
    2784:	58eb      	ldr	r3, [r5, r3]
    2786:	681b      	ldr	r3, [r3, #0]
    2788:	6adb      	ldr	r3, [r3, #44]	; 0x2c
    278a:	9a0e      	ldr	r2, [sp, #56]	; 0x38
    278c:	429a      	cmp	r2, r3
    278e:	d302      	bcc.n	2796 <xTaskGenericCreate+0x15a>
					{
						pxCurrentTCB = pxNewTCB;
    2790:	4b2c      	ldr	r3, [pc, #176]	; (2844 <xTaskGenericCreate+0x208>)
    2792:	58eb      	ldr	r3, [r5, r3]
    2794:	601c      	str	r4, [r3, #0]
				{
					mtCOVERAGE_TEST_MARKER();
				}
			}

			uxTaskNumber++;
    2796:	4a32      	ldr	r2, [pc, #200]	; (2860 <xTaskGenericCreate+0x224>)
    2798:	447a      	add	r2, pc
    279a:	6dd3      	ldr	r3, [r2, #92]	; 0x5c
    279c:	3301      	adds	r3, #1
    279e:	65d3      	str	r3, [r2, #92]	; 0x5c
				pxNewTCB->uxTCBNumber = uxTaskNumber;
			}
			#endif /* configUSE_TRACE_FACILITY */
			traceTASK_CREATE( pxNewTCB );

			prvAddTaskToReadyList( pxNewTCB );
    27a0:	6ae3      	ldr	r3, [r4, #44]	; 0x2c
    27a2:	6e12      	ldr	r2, [r2, #96]	; 0x60
    27a4:	4293      	cmp	r3, r2
    27a6:	d902      	bls.n	27ae <xTaskGenericCreate+0x172>
    27a8:	4a2e      	ldr	r2, [pc, #184]	; (2864 <xTaskGenericCreate+0x228>)
    27aa:	447a      	add	r2, pc
    27ac:	6613      	str	r3, [r2, #96]	; 0x60
    27ae:	009a      	lsls	r2, r3, #2
    27b0:	18d3      	adds	r3, r2, r3
    27b2:	009b      	lsls	r3, r3, #2
    27b4:	482c      	ldr	r0, [pc, #176]	; (2868 <xTaskGenericCreate+0x22c>)
    27b6:	4478      	add	r0, pc
    27b8:	3038      	adds	r0, #56	; 0x38
    27ba:	18c0      	adds	r0, r0, r3
    27bc:	4649      	mov	r1, r9
    27be:	4b2b      	ldr	r3, [pc, #172]	; (286c <xTaskGenericCreate+0x230>)
    27c0:	58eb      	ldr	r3, [r5, r3]
    27c2:	4798      	blx	r3

			xReturn = pdPASS;
			portSETUP_TCB( pxNewTCB );
		}
		taskEXIT_CRITICAL();
    27c4:	4b2a      	ldr	r3, [pc, #168]	; (2870 <xTaskGenericCreate+0x234>)
    27c6:	58eb      	ldr	r3, [r5, r3]
    27c8:	4798      	blx	r3
		traceTASK_CREATE_FAILED();
	}

	if( xReturn == pdPASS )
	{
		if( xSchedulerRunning != pdFALSE )
    27ca:	4b2a      	ldr	r3, [pc, #168]	; (2874 <xTaskGenericCreate+0x238>)
    27cc:	447b      	add	r3, pc
    27ce:	6d9b      	ldr	r3, [r3, #88]	; 0x58
			#endif /* configUSE_TRACE_FACILITY */
			traceTASK_CREATE( pxNewTCB );

			prvAddTaskToReadyList( pxNewTCB );

			xReturn = pdPASS;
    27d0:	2001      	movs	r0, #1
		traceTASK_CREATE_FAILED();
	}

	if( xReturn == pdPASS )
	{
		if( xSchedulerRunning != pdFALSE )
    27d2:	2b00      	cmp	r3, #0
    27d4:	d020      	beq.n	2818 <xTaskGenericCreate+0x1dc>
		{
			/* If the created task is of a higher priority than the current task
			then it should run now. */
			if( pxCurrentTCB->uxPriority < uxPriority )
    27d6:	4b1b      	ldr	r3, [pc, #108]	; (2844 <xTaskGenericCreate+0x208>)
    27d8:	58eb      	ldr	r3, [r5, r3]
    27da:	681b      	ldr	r3, [r3, #0]
    27dc:	6adb      	ldr	r3, [r3, #44]	; 0x2c
    27de:	9a0e      	ldr	r2, [sp, #56]	; 0x38
    27e0:	429a      	cmp	r2, r3
    27e2:	d919      	bls.n	2818 <xTaskGenericCreate+0x1dc>
			{
				taskYIELD_IF_USING_PREEMPTION();
    27e4:	4b24      	ldr	r3, [pc, #144]	; (2878 <xTaskGenericCreate+0x23c>)
    27e6:	58eb      	ldr	r3, [r5, r3]
    27e8:	4798      	blx	r3
			#endif /* configUSE_TRACE_FACILITY */
			traceTASK_CREATE( pxNewTCB );

			prvAddTaskToReadyList( pxNewTCB );

			xReturn = pdPASS;
    27ea:	2001      	movs	r0, #1
    27ec:	e014      	b.n	2818 <xTaskGenericCreate+0x1dc>
	if( pxNewTCB != NULL )
	{
		/* Allocate space for the stack used by the task being created.
		The base of the stack memory stored in the TCB so the task can
		be deleted later if required. */
		pxNewTCB->pxStack = ( StackType_t * ) pvPortMallocAligned( ( ( ( size_t ) usStackDepth ) * sizeof( StackType_t ) ), puxStackBuffer ); /*lint !e961 MISRA exception as the casts are only redundant for some ports. */
    27ee:	9b10      	ldr	r3, [sp, #64]	; 0x40
    27f0:	6303      	str	r3, [r0, #48]	; 0x30
		stack grows from high memory to low (as per the 80x86) or vice versa.
		portSTACK_GROWTH is used to make the result positive or negative as
		required by the port. */
		#if( portSTACK_GROWTH < 0 )
		{
			pxTopOfStack = pxNewTCB->pxStack + ( usStackDepth - ( uint16_t ) 1 );
    27f2:	4a22      	ldr	r2, [pc, #136]	; (287c <xTaskGenericCreate+0x240>)
    27f4:	18b3      	adds	r3, r6, r2
    27f6:	009b      	lsls	r3, r3, #2
    27f8:	6b22      	ldr	r2, [r4, #48]	; 0x30
    27fa:	18d3      	adds	r3, r2, r3
			pxTopOfStack = ( StackType_t * ) ( ( ( portPOINTER_SIZE_TYPE ) pxTopOfStack ) & ( ( portPOINTER_SIZE_TYPE ) ~portBYTE_ALIGNMENT_MASK  ) ); /*lint !e923 MISRA exception.  Avoiding casts between pointers and integers is not practical.  Size differences accounted for using portPOINTER_SIZE_TYPE type. */
    27fc:	2207      	movs	r2, #7
    27fe:	1c1e      	adds	r6, r3, #0
    2800:	4396      	bics	r6, r2
UBaseType_t x;

	/* Store the task name in the TCB. */
	for( x = ( UBaseType_t ) 0; x < ( UBaseType_t ) configMAX_TASK_NAME_LEN; x++ )
	{
		pxTCB->pcTaskName[ x ] = pcName[ x ];
    2802:	783a      	ldrb	r2, [r7, #0]
    2804:	2334      	movs	r3, #52	; 0x34
    2806:	54e2      	strb	r2, [r4, r3]

		/* Don't copy all configMAX_TASK_NAME_LEN if the string is shorter than
		configMAX_TASK_NAME_LEN characters just in case the memory after the
		string is not accessible (extremely unlikely). */
		if( pcName[ x ] == 0x00 )
    2808:	783b      	ldrb	r3, [r7, #0]
    280a:	2b00      	cmp	r3, #0
    280c:	d100      	bne.n	2810 <xTaskGenericCreate+0x1d4>
    280e:	e74d      	b.n	26ac <xTaskGenericCreate+0x70>
static void prvInitialiseTCBVariables( TCB_t * const pxTCB, const char * const pcName, UBaseType_t uxPriority, const MemoryRegion_t * const xRegions, const uint16_t usStackDepth ) /*lint !e971 Unqualified char types are allowed for strings and single characters only. */
{
UBaseType_t x;

	/* Store the task name in the TCB. */
	for( x = ( UBaseType_t ) 0; x < ( UBaseType_t ) configMAX_TASK_NAME_LEN; x++ )
    2810:	2301      	movs	r3, #1
    2812:	e741      	b.n	2698 <xTaskGenericCreate+0x5c>
		}
		taskEXIT_CRITICAL();
	}
	else
	{
		xReturn = errCOULD_NOT_ALLOCATE_REQUIRED_MEMORY;
    2814:	2001      	movs	r0, #1
    2816:	4240      	negs	r0, r0
			mtCOVERAGE_TEST_MARKER();
		}
	}

	return xReturn;
}
    2818:	b005      	add	sp, #20
    281a:	bc3c      	pop	{r2, r3, r4, r5}
    281c:	4690      	mov	r8, r2
    281e:	4699      	mov	r9, r3
    2820:	46a2      	mov	sl, r4
    2822:	46ab      	mov	fp, r5
    2824:	bdf0      	pop	{r4, r5, r6, r7, pc}
    2826:	46c0      	nop			; (mov r8, r8)
    2828:	000020d4 	.word	0x000020d4
    282c:	000000b0 	.word	0x000000b0
    2830:	0000006c 	.word	0x0000006c
    2834:	00000090 	.word	0x00000090
    2838:	00000210 	.word	0x00000210
    283c:	00000220 	.word	0x00000220
    2840:	1ffff504 	.word	0x1ffff504
    2844:	0000003c 	.word	0x0000003c
    2848:	1ffff4ea 	.word	0x1ffff4ea
    284c:	1ffff4e0 	.word	0x1ffff4e0
    2850:	000000b8 	.word	0x000000b8
    2854:	1ffff542 	.word	0x1ffff542
    2858:	1ffff4a4 	.word	0x1ffff4a4
    285c:	1ffff506 	.word	0x1ffff506
    2860:	1ffff4e8 	.word	0x1ffff4e8
    2864:	1ffff4d6 	.word	0x1ffff4d6
    2868:	1ffff44a 	.word	0x1ffff44a
    286c:	0000007c 	.word	0x0000007c
    2870:	0000000c 	.word	0x0000000c
    2874:	1ffff4b4 	.word	0x1ffff4b4
    2878:	00000148 	.word	0x00000148
    287c:	3fffffff 	.word	0x3fffffff

00002880 <vTaskResume>:
/*-----------------------------------------------------------*/

#if ( INCLUDE_vTaskSuspend == 1 )

	void vTaskResume( TaskHandle_t xTaskToResume )
	{
    2880:	b570      	push	{r4, r5, r6, lr}
    2882:	b082      	sub	sp, #8
    2884:	1c05      	adds	r5, r0, #0
    2886:	4c1e      	ldr	r4, [pc, #120]	; (2900 <vTaskResume+0x80>)
    2888:	447c      	add	r4, pc
	TCB_t * const pxTCB = ( TCB_t * ) xTaskToResume;

		/* It does not make sense to resume the calling task. */
		configASSERT( xTaskToResume );
    288a:	2800      	cmp	r0, #0
    288c:	d101      	bne.n	2892 <vTaskResume+0x12>
    288e:	b672      	cpsid	i
    2890:	e7fe      	b.n	2890 <vTaskResume+0x10>

		/* The parameter cannot be NULL as it is impossible to resume the
		currently executing task. */
		if( ( pxTCB != NULL ) && ( pxTCB != pxCurrentTCB ) )
    2892:	4b1c      	ldr	r3, [pc, #112]	; (2904 <vTaskResume+0x84>)
    2894:	58e3      	ldr	r3, [r4, r3]
    2896:	681b      	ldr	r3, [r3, #0]
    2898:	4298      	cmp	r0, r3
    289a:	d02e      	beq.n	28fa <vTaskResume+0x7a>
		{
			taskENTER_CRITICAL();
    289c:	4b1a      	ldr	r3, [pc, #104]	; (2908 <vTaskResume+0x88>)
    289e:	58e3      	ldr	r3, [r4, r3]
    28a0:	4798      	blx	r3
			{
				if( prvTaskIsTaskSuspended( pxTCB ) == pdTRUE )
    28a2:	1c28      	adds	r0, r5, #0
    28a4:	4b19      	ldr	r3, [pc, #100]	; (290c <vTaskResume+0x8c>)
    28a6:	447b      	add	r3, pc
    28a8:	4798      	blx	r3
    28aa:	2801      	cmp	r0, #1
    28ac:	d122      	bne.n	28f4 <vTaskResume+0x74>
				{
					traceTASK_RESUME( pxTCB );

					/* As we are in a critical section we can access the ready
					lists even if the scheduler is suspended. */
					( void ) uxListRemove(  &( pxTCB->xGenericListItem ) );
    28ae:	1d2e      	adds	r6, r5, #4
    28b0:	1c30      	adds	r0, r6, #0
    28b2:	4b17      	ldr	r3, [pc, #92]	; (2910 <vTaskResume+0x90>)
    28b4:	58e3      	ldr	r3, [r4, r3]
    28b6:	4798      	blx	r3
					prvAddTaskToReadyList( pxTCB );
    28b8:	6aeb      	ldr	r3, [r5, #44]	; 0x2c
    28ba:	4a16      	ldr	r2, [pc, #88]	; (2914 <vTaskResume+0x94>)
    28bc:	447a      	add	r2, pc
    28be:	6e12      	ldr	r2, [r2, #96]	; 0x60
    28c0:	4293      	cmp	r3, r2
    28c2:	d902      	bls.n	28ca <vTaskResume+0x4a>
    28c4:	4a14      	ldr	r2, [pc, #80]	; (2918 <vTaskResume+0x98>)
    28c6:	447a      	add	r2, pc
    28c8:	6613      	str	r3, [r2, #96]	; 0x60
    28ca:	009a      	lsls	r2, r3, #2
    28cc:	18d3      	adds	r3, r2, r3
    28ce:	009b      	lsls	r3, r3, #2
    28d0:	4812      	ldr	r0, [pc, #72]	; (291c <vTaskResume+0x9c>)
    28d2:	4478      	add	r0, pc
    28d4:	3038      	adds	r0, #56	; 0x38
    28d6:	18c0      	adds	r0, r0, r3
    28d8:	1c31      	adds	r1, r6, #0
    28da:	4b11      	ldr	r3, [pc, #68]	; (2920 <vTaskResume+0xa0>)
    28dc:	58e3      	ldr	r3, [r4, r3]
    28de:	4798      	blx	r3

					/* We may have just resumed a higher priority task. */
					if( pxTCB->uxPriority >= pxCurrentTCB->uxPriority )
    28e0:	4b08      	ldr	r3, [pc, #32]	; (2904 <vTaskResume+0x84>)
    28e2:	58e3      	ldr	r3, [r4, r3]
    28e4:	681b      	ldr	r3, [r3, #0]
    28e6:	6aea      	ldr	r2, [r5, #44]	; 0x2c
    28e8:	6adb      	ldr	r3, [r3, #44]	; 0x2c
    28ea:	429a      	cmp	r2, r3
    28ec:	d302      	bcc.n	28f4 <vTaskResume+0x74>
					{
						/* This yield may not cause the task just resumed to run,
						but will leave the lists in the correct state for the
						next yield. */
						taskYIELD_IF_USING_PREEMPTION();
    28ee:	4b0d      	ldr	r3, [pc, #52]	; (2924 <vTaskResume+0xa4>)
    28f0:	58e3      	ldr	r3, [r4, r3]
    28f2:	4798      	blx	r3
				else
				{
					mtCOVERAGE_TEST_MARKER();
				}
			}
			taskEXIT_CRITICAL();
    28f4:	4b0c      	ldr	r3, [pc, #48]	; (2928 <vTaskResume+0xa8>)
    28f6:	58e3      	ldr	r3, [r4, r3]
    28f8:	4798      	blx	r3
		}
		else
		{
			mtCOVERAGE_TEST_MARKER();
		}
	}
    28fa:	b002      	add	sp, #8
    28fc:	bd70      	pop	{r4, r5, r6, pc}
    28fe:	46c0      	nop			; (mov r8, r8)
    2900:	00001ea0 	.word	0x00001ea0
    2904:	0000003c 	.word	0x0000003c
    2908:	00000220 	.word	0x00000220
    290c:	fffffca3 	.word	0xfffffca3
    2910:	00000108 	.word	0x00000108
    2914:	1ffff3c4 	.word	0x1ffff3c4
    2918:	1ffff3ba 	.word	0x1ffff3ba
    291c:	1ffff32e 	.word	0x1ffff32e
    2920:	0000007c 	.word	0x0000007c
    2924:	00000148 	.word	0x00000148
    2928:	0000000c 	.word	0x0000000c

0000292c <xTaskResumeFromISR>:
/*-----------------------------------------------------------*/

#if ( ( INCLUDE_xTaskResumeFromISR == 1 ) && ( INCLUDE_vTaskSuspend == 1 ) )

	BaseType_t xTaskResumeFromISR( TaskHandle_t xTaskToResume )
	{
    292c:	b5f0      	push	{r4, r5, r6, r7, lr}
    292e:	4647      	mov	r7, r8
    2930:	b480      	push	{r7}
    2932:	b082      	sub	sp, #8
    2934:	1c05      	adds	r5, r0, #0
    2936:	4c24      	ldr	r4, [pc, #144]	; (29c8 <xTaskResumeFromISR+0x9c>)
    2938:	447c      	add	r4, pc
	BaseType_t xYieldRequired = pdFALSE;
	TCB_t * const pxTCB = ( TCB_t * ) xTaskToResume;
	UBaseType_t uxSavedInterruptStatus;

		configASSERT( xTaskToResume );
    293a:	2800      	cmp	r0, #0
    293c:	d101      	bne.n	2942 <xTaskResumeFromISR+0x16>
    293e:	b672      	cpsid	i
    2940:	e7fe      	b.n	2940 <xTaskResumeFromISR+0x14>
		simple as possible.  More information (albeit Cortex-M specific) is
		provided on the following link:
		http://www.freertos.org/RTOS-Cortex-M3-M4.html */
		portASSERT_IF_INTERRUPT_PRIORITY_INVALID();

		uxSavedInterruptStatus = portSET_INTERRUPT_MASK_FROM_ISR();
    2942:	4b22      	ldr	r3, [pc, #136]	; (29cc <xTaskResumeFromISR+0xa0>)
    2944:	58e3      	ldr	r3, [r4, r3]
    2946:	4798      	blx	r3
    2948:	4680      	mov	r8, r0
		{
			if( prvTaskIsTaskSuspended( pxTCB ) == pdTRUE )
    294a:	1c28      	adds	r0, r5, #0
    294c:	4b20      	ldr	r3, [pc, #128]	; (29d0 <xTaskResumeFromISR+0xa4>)
    294e:	447b      	add	r3, pc
    2950:	4798      	blx	r3

#if ( ( INCLUDE_xTaskResumeFromISR == 1 ) && ( INCLUDE_vTaskSuspend == 1 ) )

	BaseType_t xTaskResumeFromISR( TaskHandle_t xTaskToResume )
	{
	BaseType_t xYieldRequired = pdFALSE;
    2952:	2600      	movs	r6, #0
		http://www.freertos.org/RTOS-Cortex-M3-M4.html */
		portASSERT_IF_INTERRUPT_PRIORITY_INVALID();

		uxSavedInterruptStatus = portSET_INTERRUPT_MASK_FROM_ISR();
		{
			if( prvTaskIsTaskSuspended( pxTCB ) == pdTRUE )
    2954:	2801      	cmp	r0, #1
    2956:	d12e      	bne.n	29b6 <xTaskResumeFromISR+0x8a>
			{
				traceTASK_RESUME_FROM_ISR( pxTCB );

				/* Check the ready lists can be accessed. */
				if( uxSchedulerSuspended == ( UBaseType_t ) pdFALSE )
    2958:	4b1e      	ldr	r3, [pc, #120]	; (29d4 <xTaskResumeFromISR+0xa8>)
    295a:	447b      	add	r3, pc
    295c:	6e9b      	ldr	r3, [r3, #104]	; 0x68
    295e:	2b00      	cmp	r3, #0
    2960:	d120      	bne.n	29a4 <xTaskResumeFromISR+0x78>
				{
					/* Ready lists can be accessed so move the task from the
					suspended list to the ready list directly. */
					if( pxTCB->uxPriority >= pxCurrentTCB->uxPriority )
    2962:	4b1d      	ldr	r3, [pc, #116]	; (29d8 <xTaskResumeFromISR+0xac>)
    2964:	58e3      	ldr	r3, [r4, r3]
    2966:	681b      	ldr	r3, [r3, #0]
    2968:	6adb      	ldr	r3, [r3, #44]	; 0x2c
    296a:	6aea      	ldr	r2, [r5, #44]	; 0x2c
    296c:	429a      	cmp	r2, r3
    296e:	4176      	adcs	r6, r6
					else
					{
						mtCOVERAGE_TEST_MARKER();
					}

					( void ) uxListRemove(  &( pxTCB->xGenericListItem ) );
    2970:	1d2f      	adds	r7, r5, #4
    2972:	1c38      	adds	r0, r7, #0
    2974:	4b19      	ldr	r3, [pc, #100]	; (29dc <xTaskResumeFromISR+0xb0>)
    2976:	58e3      	ldr	r3, [r4, r3]
    2978:	4798      	blx	r3
					prvAddTaskToReadyList( pxTCB );
    297a:	6aeb      	ldr	r3, [r5, #44]	; 0x2c
    297c:	4a18      	ldr	r2, [pc, #96]	; (29e0 <xTaskResumeFromISR+0xb4>)
    297e:	447a      	add	r2, pc
    2980:	6e12      	ldr	r2, [r2, #96]	; 0x60
    2982:	4293      	cmp	r3, r2
    2984:	d902      	bls.n	298c <xTaskResumeFromISR+0x60>
    2986:	4a17      	ldr	r2, [pc, #92]	; (29e4 <xTaskResumeFromISR+0xb8>)
    2988:	447a      	add	r2, pc
    298a:	6613      	str	r3, [r2, #96]	; 0x60
    298c:	009a      	lsls	r2, r3, #2
    298e:	18d3      	adds	r3, r2, r3
    2990:	009b      	lsls	r3, r3, #2
    2992:	4815      	ldr	r0, [pc, #84]	; (29e8 <xTaskResumeFromISR+0xbc>)
    2994:	4478      	add	r0, pc
    2996:	3038      	adds	r0, #56	; 0x38
    2998:	18c0      	adds	r0, r0, r3
    299a:	1c39      	adds	r1, r7, #0
    299c:	4b13      	ldr	r3, [pc, #76]	; (29ec <xTaskResumeFromISR+0xc0>)
    299e:	58e3      	ldr	r3, [r4, r3]
    29a0:	4798      	blx	r3
    29a2:	e008      	b.n	29b6 <xTaskResumeFromISR+0x8a>
				else
				{
					/* The delayed or ready lists cannot be accessed so the task
					is held in the pending ready list until the scheduler is
					unsuspended. */
					vListInsertEnd( &( xPendingReadyList ), &( pxTCB->xEventListItem ) );
    29a4:	1c29      	adds	r1, r5, #0
    29a6:	3118      	adds	r1, #24
    29a8:	4811      	ldr	r0, [pc, #68]	; (29f0 <xTaskResumeFromISR+0xc4>)
    29aa:	4478      	add	r0, pc
    29ac:	3014      	adds	r0, #20
    29ae:	4b0f      	ldr	r3, [pc, #60]	; (29ec <xTaskResumeFromISR+0xc0>)
    29b0:	58e3      	ldr	r3, [r4, r3]
    29b2:	4798      	blx	r3

#if ( ( INCLUDE_xTaskResumeFromISR == 1 ) && ( INCLUDE_vTaskSuspend == 1 ) )

	BaseType_t xTaskResumeFromISR( TaskHandle_t xTaskToResume )
	{
	BaseType_t xYieldRequired = pdFALSE;
    29b4:	2600      	movs	r6, #0
			else
			{
				mtCOVERAGE_TEST_MARKER();
			}
		}
		portCLEAR_INTERRUPT_MASK_FROM_ISR( uxSavedInterruptStatus );
    29b6:	4640      	mov	r0, r8
    29b8:	4b0e      	ldr	r3, [pc, #56]	; (29f4 <xTaskResumeFromISR+0xc8>)
    29ba:	58e3      	ldr	r3, [r4, r3]
    29bc:	4798      	blx	r3

		return xYieldRequired;
	}
    29be:	1c30      	adds	r0, r6, #0
    29c0:	b002      	add	sp, #8
    29c2:	bc04      	pop	{r2}
    29c4:	4690      	mov	r8, r2
    29c6:	bdf0      	pop	{r4, r5, r6, r7, pc}
    29c8:	00001df0 	.word	0x00001df0
    29cc:	000001f8 	.word	0x000001f8
    29d0:	fffffbfb 	.word	0xfffffbfb
    29d4:	1ffff326 	.word	0x1ffff326
    29d8:	0000003c 	.word	0x0000003c
    29dc:	00000108 	.word	0x00000108
    29e0:	1ffff302 	.word	0x1ffff302
    29e4:	1ffff2f8 	.word	0x1ffff2f8
    29e8:	1ffff26c 	.word	0x1ffff26c
    29ec:	0000007c 	.word	0x0000007c
    29f0:	1ffff256 	.word	0x1ffff256
    29f4:	000000f8 	.word	0x000000f8

000029f8 <vTaskStartScheduler>:

#endif /* ( ( INCLUDE_xTaskResumeFromISR == 1 ) && ( INCLUDE_vTaskSuspend == 1 ) ) */
/*-----------------------------------------------------------*/

void vTaskStartScheduler( void )
{
    29f8:	b530      	push	{r4, r5, lr}
    29fa:	b087      	sub	sp, #28
    29fc:	4c14      	ldr	r4, [pc, #80]	; (2a50 <vTaskStartScheduler+0x58>)
    29fe:	447c      	add	r4, pc
		xReturn = xTaskCreate( prvIdleTask, "IDLE", tskIDLE_STACK_SIZE, ( void * ) NULL, ( tskIDLE_PRIORITY | portPRIVILEGE_BIT ), &xIdleTaskHandle ); /*lint !e961 MISRA exception, justified as it is not a redundant explicit cast to all supported compilers. */
	}
	#else
	{
		/* Create the idle task without storing its handle. */
		xReturn = xTaskCreate( prvIdleTask, "IDLE", tskIDLE_STACK_SIZE, ( void * ) NULL, ( tskIDLE_PRIORITY | portPRIVILEGE_BIT ), NULL );  /*lint !e961 MISRA exception, justified as it is not a redundant explicit cast to all supported compilers. */
    2a00:	2300      	movs	r3, #0
    2a02:	9300      	str	r3, [sp, #0]
    2a04:	9301      	str	r3, [sp, #4]
    2a06:	9302      	str	r3, [sp, #8]
    2a08:	9303      	str	r3, [sp, #12]
    2a0a:	4812      	ldr	r0, [pc, #72]	; (2a54 <vTaskStartScheduler+0x5c>)
    2a0c:	4478      	add	r0, pc
    2a0e:	4912      	ldr	r1, [pc, #72]	; (2a58 <vTaskStartScheduler+0x60>)
    2a10:	4479      	add	r1, pc
    2a12:	228c      	movs	r2, #140	; 0x8c
    2a14:	4d11      	ldr	r5, [pc, #68]	; (2a5c <vTaskStartScheduler+0x64>)
    2a16:	5965      	ldr	r5, [r4, r5]
    2a18:	47a8      	blx	r5
	}
	#endif /* INCLUDE_xTaskGetIdleTaskHandle */

	#if ( configUSE_TIMERS == 1 )
	{
		if( xReturn == pdPASS )
    2a1a:	2801      	cmp	r0, #1
    2a1c:	d111      	bne.n	2a42 <vTaskStartScheduler+0x4a>
		{
			xReturn = xTimerCreateTimerTask();
    2a1e:	4b10      	ldr	r3, [pc, #64]	; (2a60 <vTaskStartScheduler+0x68>)
    2a20:	58e3      	ldr	r3, [r4, r3]
    2a22:	4798      	blx	r3
			mtCOVERAGE_TEST_MARKER();
		}
	}
	#endif /* configUSE_TIMERS */

	if( xReturn == pdPASS )
    2a24:	2801      	cmp	r0, #1
    2a26:	d10c      	bne.n	2a42 <vTaskStartScheduler+0x4a>
		/* Interrupts are turned off here, to ensure a tick does not occur
		before or during the call to xPortStartScheduler().  The stacks of
		the created tasks contain a status word with interrupts switched on
		so interrupts will automatically get re-enabled when the first task
		starts to run. */
		portDISABLE_INTERRUPTS();
    2a28:	b672      	cpsid	i
			structure specific to the task that will run first. */
			_impure_ptr = &( pxCurrentTCB->xNewLib_reent );
		}
		#endif /* configUSE_NEWLIB_REENTRANT */

		xSchedulerRunning = pdTRUE;
    2a2a:	2201      	movs	r2, #1
    2a2c:	4b0d      	ldr	r3, [pc, #52]	; (2a64 <vTaskStartScheduler+0x6c>)
    2a2e:	447b      	add	r3, pc
    2a30:	659a      	str	r2, [r3, #88]	; 0x58
		xTickCount = ( TickType_t ) 0U;
    2a32:	2200      	movs	r2, #0
    2a34:	4b0c      	ldr	r3, [pc, #48]	; (2a68 <vTaskStartScheduler+0x70>)
    2a36:	447b      	add	r3, pc
    2a38:	62da      	str	r2, [r3, #44]	; 0x2c
		the run time counter time base. */
		portCONFIGURE_TIMER_FOR_RUN_TIME_STATS();

		/* Setting up the timer tick is hardware specific and thus in the
		portable interface. */
		if( xPortStartScheduler() != pdFALSE )
    2a3a:	4b0c      	ldr	r3, [pc, #48]	; (2a6c <vTaskStartScheduler+0x74>)
    2a3c:	58e3      	ldr	r3, [r4, r3]
    2a3e:	4798      	blx	r3
    2a40:	e003      	b.n	2a4a <vTaskStartScheduler+0x52>
	else
	{
		/* This line will only be reached if the kernel could not be started,
		because there was not enough FreeRTOS heap to create the idle task
		or the timer task. */
		configASSERT( xReturn );
    2a42:	2800      	cmp	r0, #0
    2a44:	d101      	bne.n	2a4a <vTaskStartScheduler+0x52>
    2a46:	b672      	cpsid	i
    2a48:	e7fe      	b.n	2a48 <vTaskStartScheduler+0x50>
	}
}
    2a4a:	b007      	add	sp, #28
    2a4c:	bd30      	pop	{r4, r5, pc}
    2a4e:	46c0      	nop			; (mov r8, r8)
    2a50:	00001d2a 	.word	0x00001d2a
    2a54:	000003bd 	.word	0x000003bd
    2a58:	00001cdc 	.word	0x00001cdc
    2a5c:	00000058 	.word	0x00000058
    2a60:	00000164 	.word	0x00000164
    2a64:	1ffff252 	.word	0x1ffff252
    2a68:	1ffff1ca 	.word	0x1ffff1ca
    2a6c:	0000004c 	.word	0x0000004c

00002a70 <vTaskSuspendAll>:
{
	/* A critical section is not required as the variable is of type
	BaseType_t.  Please read Richard Barry's reply in the following link to a
	post in the FreeRTOS support forum before reporting this as a bug! -
	http://goo.gl/wu4acr */
	++uxSchedulerSuspended;
    2a70:	4b02      	ldr	r3, [pc, #8]	; (2a7c <vTaskSuspendAll+0xc>)
    2a72:	447b      	add	r3, pc
    2a74:	6e9a      	ldr	r2, [r3, #104]	; 0x68
    2a76:	3201      	adds	r2, #1
    2a78:	669a      	str	r2, [r3, #104]	; 0x68
}
    2a7a:	4770      	bx	lr
    2a7c:	1ffff20e 	.word	0x1ffff20e

00002a80 <xTaskGetTickCount>:
	return xAlreadyYielded;
}
/*-----------------------------------------------------------*/

TickType_t xTaskGetTickCount( void )
{
    2a80:	b530      	push	{r4, r5, lr}
    2a82:	b083      	sub	sp, #12
    2a84:	4c06      	ldr	r4, [pc, #24]	; (2aa0 <xTaskGetTickCount+0x20>)
    2a86:	447c      	add	r4, pc
TickType_t xTicks;

	/* Critical section required if running on a 16 bit processor. */
	taskENTER_CRITICAL();
    2a88:	4b06      	ldr	r3, [pc, #24]	; (2aa4 <xTaskGetTickCount+0x24>)
    2a8a:	58e3      	ldr	r3, [r4, r3]
    2a8c:	4798      	blx	r3
	{
		xTicks = xTickCount;
    2a8e:	4b06      	ldr	r3, [pc, #24]	; (2aa8 <xTaskGetTickCount+0x28>)
    2a90:	447b      	add	r3, pc
    2a92:	6add      	ldr	r5, [r3, #44]	; 0x2c
	}
	taskEXIT_CRITICAL();
    2a94:	4b05      	ldr	r3, [pc, #20]	; (2aac <xTaskGetTickCount+0x2c>)
    2a96:	58e3      	ldr	r3, [r4, r3]
    2a98:	4798      	blx	r3

	return xTicks;
}
    2a9a:	1c28      	adds	r0, r5, #0
    2a9c:	b003      	add	sp, #12
    2a9e:	bd30      	pop	{r4, r5, pc}
    2aa0:	00001ca2 	.word	0x00001ca2
    2aa4:	00000220 	.word	0x00000220
    2aa8:	1ffff170 	.word	0x1ffff170
    2aac:	0000000c 	.word	0x0000000c

00002ab0 <xTaskGetTickCountFromISR>:
/*-----------------------------------------------------------*/

TickType_t xTaskGetTickCountFromISR( void )
{
    2ab0:	b530      	push	{r4, r5, lr}
    2ab2:	b083      	sub	sp, #12
    2ab4:	4c06      	ldr	r4, [pc, #24]	; (2ad0 <xTaskGetTickCountFromISR+0x20>)
    2ab6:	447c      	add	r4, pc
	safe API to ensure interrupt entry is as fast and as simple as possible.
	More information (albeit Cortex-M specific) is provided on the following
	link: http://www.freertos.org/RTOS-Cortex-M3-M4.html */
	portASSERT_IF_INTERRUPT_PRIORITY_INVALID();

	uxSavedInterruptStatus = portSET_INTERRUPT_MASK_FROM_ISR();
    2ab8:	4b06      	ldr	r3, [pc, #24]	; (2ad4 <xTaskGetTickCountFromISR+0x24>)
    2aba:	58e3      	ldr	r3, [r4, r3]
    2abc:	4798      	blx	r3
	{
		xReturn = xTickCount;
    2abe:	4b06      	ldr	r3, [pc, #24]	; (2ad8 <xTaskGetTickCountFromISR+0x28>)
    2ac0:	447b      	add	r3, pc
    2ac2:	6add      	ldr	r5, [r3, #44]	; 0x2c
	}
	portCLEAR_INTERRUPT_MASK_FROM_ISR( uxSavedInterruptStatus );
    2ac4:	4b05      	ldr	r3, [pc, #20]	; (2adc <xTaskGetTickCountFromISR+0x2c>)
    2ac6:	58e3      	ldr	r3, [r4, r3]
    2ac8:	4798      	blx	r3

	return xReturn;
}
    2aca:	1c28      	adds	r0, r5, #0
    2acc:	b003      	add	sp, #12
    2ace:	bd30      	pop	{r4, r5, pc}
    2ad0:	00001c72 	.word	0x00001c72
    2ad4:	000001f8 	.word	0x000001f8
    2ad8:	1ffff140 	.word	0x1ffff140
    2adc:	000000f8 	.word	0x000000f8

00002ae0 <xTaskIncrementTick>:

#endif /* configUSE_TICKLESS_IDLE */
/*----------------------------------------------------------*/

BaseType_t xTaskIncrementTick( void )
{
    2ae0:	b5f0      	push	{r4, r5, r6, r7, lr}
    2ae2:	4657      	mov	r7, sl
    2ae4:	464e      	mov	r6, r9
    2ae6:	4645      	mov	r5, r8
    2ae8:	b4e0      	push	{r5, r6, r7}
    2aea:	b082      	sub	sp, #8
    2aec:	4d4a      	ldr	r5, [pc, #296]	; (2c18 <xTaskIncrementTick+0x138>)
    2aee:	447d      	add	r5, pc

	/* Called by the portable layer each time a tick interrupt occurs.
	Increments the tick then checks to see if the new tick value will cause any
	tasks to be unblocked. */
	traceTASK_INCREMENT_TICK( xTickCount );
	if( uxSchedulerSuspended == ( UBaseType_t ) pdFALSE )
    2af0:	4b4a      	ldr	r3, [pc, #296]	; (2c1c <xTaskIncrementTick+0x13c>)
    2af2:	447b      	add	r3, pc
    2af4:	6e9b      	ldr	r3, [r3, #104]	; 0x68
    2af6:	2b00      	cmp	r3, #0
    2af8:	d000      	beq.n	2afc <xTaskIncrementTick+0x1c>
    2afa:	e078      	b.n	2bee <xTaskIncrementTick+0x10e>
	{
		/* Increment the RTOS tick, switching the delayed and overflowed
		delayed lists if it wraps to 0. */
		++xTickCount;
    2afc:	4b48      	ldr	r3, [pc, #288]	; (2c20 <xTaskIncrementTick+0x140>)
    2afe:	447b      	add	r3, pc
    2b00:	6ada      	ldr	r2, [r3, #44]	; 0x2c
    2b02:	3201      	adds	r2, #1
    2b04:	62da      	str	r2, [r3, #44]	; 0x2c

		{
			/* Minor optimisation.  The tick count cannot change in this
			block. */
			const TickType_t xConstTickCount = xTickCount;
    2b06:	6adf      	ldr	r7, [r3, #44]	; 0x2c

			if( xConstTickCount == ( TickType_t ) 0U )
    2b08:	2f00      	cmp	r7, #0
    2b0a:	d115      	bne.n	2b38 <xTaskIncrementTick+0x58>
			{
				taskSWITCH_DELAYED_LISTS();
    2b0c:	4b45      	ldr	r3, [pc, #276]	; (2c24 <xTaskIncrementTick+0x144>)
    2b0e:	447b      	add	r3, pc
    2b10:	6a9b      	ldr	r3, [r3, #40]	; 0x28
    2b12:	681b      	ldr	r3, [r3, #0]
    2b14:	2b00      	cmp	r3, #0
    2b16:	d001      	beq.n	2b1c <xTaskIncrementTick+0x3c>
    2b18:	b672      	cpsid	i
    2b1a:	e7fe      	b.n	2b1a <xTaskIncrementTick+0x3a>
    2b1c:	4b42      	ldr	r3, [pc, #264]	; (2c28 <xTaskIncrementTick+0x148>)
    2b1e:	447b      	add	r3, pc
    2b20:	6a9a      	ldr	r2, [r3, #40]	; 0x28
    2b22:	6b19      	ldr	r1, [r3, #48]	; 0x30
    2b24:	6299      	str	r1, [r3, #40]	; 0x28
    2b26:	631a      	str	r2, [r3, #48]	; 0x30
    2b28:	4b40      	ldr	r3, [pc, #256]	; (2c2c <xTaskIncrementTick+0x14c>)
    2b2a:	447b      	add	r3, pc
    2b2c:	6eda      	ldr	r2, [r3, #108]	; 0x6c
    2b2e:	3201      	adds	r2, #1
    2b30:	66da      	str	r2, [r3, #108]	; 0x6c
    2b32:	4b3f      	ldr	r3, [pc, #252]	; (2c30 <xTaskIncrementTick+0x150>)
    2b34:	447b      	add	r3, pc
    2b36:	4798      	blx	r3

			/* See if this tick has made a timeout expire.  Tasks are stored in
			the	queue in the order of their wake time - meaning once one task
			has been found whose block time has not expired there is no need to
			look any further	down the list. */
			if( xConstTickCount >= xNextTaskUnblockTime )
    2b38:	4b3e      	ldr	r3, [pc, #248]	; (2c34 <xTaskIncrementTick+0x154>)
    2b3a:	447b      	add	r3, pc
    2b3c:	681b      	ldr	r3, [r3, #0]

BaseType_t xTaskIncrementTick( void )
{
TCB_t * pxTCB;
TickType_t xItemValue;
BaseType_t xSwitchRequired = pdFALSE;
    2b3e:	2400      	movs	r4, #0

			/* See if this tick has made a timeout expire.  Tasks are stored in
			the	queue in the order of their wake time - meaning once one task
			has been found whose block time has not expired there is no need to
			look any further	down the list. */
			if( xConstTickCount >= xNextTaskUnblockTime )
    2b40:	429f      	cmp	r7, r3
    2b42:	d346      	bcc.n	2bd2 <xTaskIncrementTick+0xf2>
			{
				for( ;; )
				{
					if( listLIST_IS_EMPTY( pxDelayedTaskList ) != pdFALSE )
    2b44:	4a3c      	ldr	r2, [pc, #240]	; (2c38 <xTaskIncrementTick+0x158>)
    2b46:	447a      	add	r2, pc
    2b48:	4692      	mov	sl, r2
							mtCOVERAGE_TEST_MARKER();
						}

						/* Place the unblocked task into the appropriate ready
						list. */
						prvAddTaskToReadyList( pxTCB );
    2b4a:	4b3c      	ldr	r3, [pc, #240]	; (2c3c <xTaskIncrementTick+0x15c>)
    2b4c:	447b      	add	r3, pc
    2b4e:	3338      	adds	r3, #56	; 0x38
    2b50:	4699      	mov	r9, r3
    2b52:	e000      	b.n	2b56 <xTaskIncrementTick+0x76>
							only be performed if the unblocked task has a
							priority that is equal to or higher than the
							currently executing task. */
							if( pxTCB->uxPriority >= pxCurrentTCB->uxPriority )
							{
								xSwitchRequired = pdTRUE;
    2b54:	2401      	movs	r4, #1
			look any further	down the list. */
			if( xConstTickCount >= xNextTaskUnblockTime )
			{
				for( ;; )
				{
					if( listLIST_IS_EMPTY( pxDelayedTaskList ) != pdFALSE )
    2b56:	4652      	mov	r2, sl
    2b58:	6a93      	ldr	r3, [r2, #40]	; 0x28
    2b5a:	681b      	ldr	r3, [r3, #0]
    2b5c:	2b00      	cmp	r3, #0
    2b5e:	d105      	bne.n	2b6c <xTaskIncrementTick+0x8c>
						/* The delayed list is empty.  Set xNextTaskUnblockTime
						to the maximum possible value so it is extremely
						unlikely that the
						if( xTickCount >= xNextTaskUnblockTime ) test will pass
						next time through. */
						xNextTaskUnblockTime = portMAX_DELAY;
    2b60:	2201      	movs	r2, #1
    2b62:	4252      	negs	r2, r2
    2b64:	4b36      	ldr	r3, [pc, #216]	; (2c40 <xTaskIncrementTick+0x160>)
    2b66:	447b      	add	r3, pc
    2b68:	601a      	str	r2, [r3, #0]
						break;
    2b6a:	e032      	b.n	2bd2 <xTaskIncrementTick+0xf2>
					{
						/* The delayed list is not empty, get the value of the
						item at the head of the delayed list.  This is the time
						at which the task at the head of the delayed list must
						be removed from the Blocked state. */
						pxTCB = ( TCB_t * ) listGET_OWNER_OF_HEAD_ENTRY( pxDelayedTaskList );
    2b6c:	4b35      	ldr	r3, [pc, #212]	; (2c44 <xTaskIncrementTick+0x164>)
    2b6e:	447b      	add	r3, pc
    2b70:	6a9b      	ldr	r3, [r3, #40]	; 0x28
    2b72:	68db      	ldr	r3, [r3, #12]
    2b74:	68de      	ldr	r6, [r3, #12]
						xItemValue = listGET_LIST_ITEM_VALUE( &( pxTCB->xGenericListItem ) );
    2b76:	6873      	ldr	r3, [r6, #4]

						if( xConstTickCount < xItemValue )
    2b78:	429f      	cmp	r7, r3
    2b7a:	d203      	bcs.n	2b84 <xTaskIncrementTick+0xa4>
							/* It is not time to unblock this item yet, but the
							item value is the time at which the task at the head
							of the blocked list must be removed from the Blocked
							state -	so record the item value in
							xNextTaskUnblockTime. */
							xNextTaskUnblockTime = xItemValue;
    2b7c:	4a32      	ldr	r2, [pc, #200]	; (2c48 <xTaskIncrementTick+0x168>)
    2b7e:	447a      	add	r2, pc
    2b80:	6013      	str	r3, [r2, #0]
							break;
    2b82:	e026      	b.n	2bd2 <xTaskIncrementTick+0xf2>
						{
							mtCOVERAGE_TEST_MARKER();
						}

						/* It is time to remove the item from the Blocked state. */
						( void ) uxListRemove( &( pxTCB->xGenericListItem ) );
    2b84:	1d33      	adds	r3, r6, #4
    2b86:	4698      	mov	r8, r3
    2b88:	1c18      	adds	r0, r3, #0
    2b8a:	4b30      	ldr	r3, [pc, #192]	; (2c4c <xTaskIncrementTick+0x16c>)
    2b8c:	58eb      	ldr	r3, [r5, r3]
    2b8e:	4798      	blx	r3

						/* Is the task waiting on an event also?  If so remove
						it from the event list. */
						if( listLIST_ITEM_CONTAINER( &( pxTCB->xEventListItem ) ) != NULL )
    2b90:	6ab2      	ldr	r2, [r6, #40]	; 0x28
    2b92:	2a00      	cmp	r2, #0
    2b94:	d004      	beq.n	2ba0 <xTaskIncrementTick+0xc0>
						{
							( void ) uxListRemove( &( pxTCB->xEventListItem ) );
    2b96:	1c30      	adds	r0, r6, #0
    2b98:	3018      	adds	r0, #24
    2b9a:	4b2c      	ldr	r3, [pc, #176]	; (2c4c <xTaskIncrementTick+0x16c>)
    2b9c:	58eb      	ldr	r3, [r5, r3]
    2b9e:	4798      	blx	r3
							mtCOVERAGE_TEST_MARKER();
						}

						/* Place the unblocked task into the appropriate ready
						list. */
						prvAddTaskToReadyList( pxTCB );
    2ba0:	6af3      	ldr	r3, [r6, #44]	; 0x2c
    2ba2:	4a2b      	ldr	r2, [pc, #172]	; (2c50 <xTaskIncrementTick+0x170>)
    2ba4:	447a      	add	r2, pc
    2ba6:	6e12      	ldr	r2, [r2, #96]	; 0x60
    2ba8:	4293      	cmp	r3, r2
    2baa:	d902      	bls.n	2bb2 <xTaskIncrementTick+0xd2>
    2bac:	4a29      	ldr	r2, [pc, #164]	; (2c54 <xTaskIncrementTick+0x174>)
    2bae:	447a      	add	r2, pc
    2bb0:	6613      	str	r3, [r2, #96]	; 0x60
    2bb2:	0098      	lsls	r0, r3, #2
    2bb4:	18c0      	adds	r0, r0, r3
    2bb6:	0080      	lsls	r0, r0, #2
    2bb8:	4448      	add	r0, r9
    2bba:	4641      	mov	r1, r8
    2bbc:	4b26      	ldr	r3, [pc, #152]	; (2c58 <xTaskIncrementTick+0x178>)
    2bbe:	58eb      	ldr	r3, [r5, r3]
    2bc0:	4798      	blx	r3
						{
							/* Preemption is on, but a context switch should
							only be performed if the unblocked task has a
							priority that is equal to or higher than the
							currently executing task. */
							if( pxTCB->uxPriority >= pxCurrentTCB->uxPriority )
    2bc2:	4b26      	ldr	r3, [pc, #152]	; (2c5c <xTaskIncrementTick+0x17c>)
    2bc4:	58eb      	ldr	r3, [r5, r3]
    2bc6:	681b      	ldr	r3, [r3, #0]
    2bc8:	6af2      	ldr	r2, [r6, #44]	; 0x2c
    2bca:	6adb      	ldr	r3, [r3, #44]	; 0x2c
    2bcc:	429a      	cmp	r2, r3
    2bce:	d2c1      	bcs.n	2b54 <xTaskIncrementTick+0x74>
    2bd0:	e7c1      	b.n	2b56 <xTaskIncrementTick+0x76>
		/* Tasks of equal priority to the currently running task will share
		processing time (time slice) if preemption is on, and the application
		writer has not explicitly turned time slicing off. */
		#if ( ( configUSE_PREEMPTION == 1 ) && ( configUSE_TIME_SLICING == 1 ) )
		{
			if( listCURRENT_LIST_LENGTH( &( pxReadyTasksLists[ pxCurrentTCB->uxPriority ] ) ) > ( UBaseType_t ) 1 )
    2bd2:	4b22      	ldr	r3, [pc, #136]	; (2c5c <xTaskIncrementTick+0x17c>)
    2bd4:	58eb      	ldr	r3, [r5, r3]
    2bd6:	681b      	ldr	r3, [r3, #0]
    2bd8:	6adb      	ldr	r3, [r3, #44]	; 0x2c
    2bda:	009a      	lsls	r2, r3, #2
    2bdc:	18d3      	adds	r3, r2, r3
    2bde:	009b      	lsls	r3, r3, #2
    2be0:	4a1f      	ldr	r2, [pc, #124]	; (2c60 <xTaskIncrementTick+0x180>)
    2be2:	447a      	add	r2, pc
    2be4:	18d3      	adds	r3, r2, r3
    2be6:	6b9b      	ldr	r3, [r3, #56]	; 0x38
    2be8:	2b01      	cmp	r3, #1
    2bea:	d807      	bhi.n	2bfc <xTaskIncrementTick+0x11c>
    2bec:	e007      	b.n	2bfe <xTaskIncrementTick+0x11e>
		}
		#endif /* configUSE_TICK_HOOK */
	}
	else
	{
		++uxPendedTicks;
    2bee:	4b1d      	ldr	r3, [pc, #116]	; (2c64 <xTaskIncrementTick+0x184>)
    2bf0:	447b      	add	r3, pc
    2bf2:	6f1a      	ldr	r2, [r3, #112]	; 0x70
    2bf4:	3201      	adds	r2, #1
    2bf6:	671a      	str	r2, [r3, #112]	; 0x70

BaseType_t xTaskIncrementTick( void )
{
TCB_t * pxTCB;
TickType_t xItemValue;
BaseType_t xSwitchRequired = pdFALSE;
    2bf8:	2400      	movs	r4, #0
    2bfa:	e000      	b.n	2bfe <xTaskIncrementTick+0x11e>
		writer has not explicitly turned time slicing off. */
		#if ( ( configUSE_PREEMPTION == 1 ) && ( configUSE_TIME_SLICING == 1 ) )
		{
			if( listCURRENT_LIST_LENGTH( &( pxReadyTasksLists[ pxCurrentTCB->uxPriority ] ) ) > ( UBaseType_t ) 1 )
			{
				xSwitchRequired = pdTRUE;
    2bfc:	2401      	movs	r4, #1
		#endif
	}

	#if ( configUSE_PREEMPTION == 1 )
	{
		if( xYieldPending != pdFALSE )
    2bfe:	4b1a      	ldr	r3, [pc, #104]	; (2c68 <xTaskIncrementTick+0x188>)
    2c00:	447b      	add	r3, pc
    2c02:	6f5b      	ldr	r3, [r3, #116]	; 0x74
    2c04:	2b00      	cmp	r3, #0
    2c06:	d000      	beq.n	2c0a <xTaskIncrementTick+0x12a>
		{
			xSwitchRequired = pdTRUE;
    2c08:	2401      	movs	r4, #1
		}
	}
	#endif /* configUSE_PREEMPTION */

	return xSwitchRequired;
}
    2c0a:	1c20      	adds	r0, r4, #0
    2c0c:	b002      	add	sp, #8
    2c0e:	bc1c      	pop	{r2, r3, r4}
    2c10:	4690      	mov	r8, r2
    2c12:	4699      	mov	r9, r3
    2c14:	46a2      	mov	sl, r4
    2c16:	bdf0      	pop	{r4, r5, r6, r7, pc}
    2c18:	00001c3a 	.word	0x00001c3a
    2c1c:	1ffff18e 	.word	0x1ffff18e
    2c20:	1ffff102 	.word	0x1ffff102
    2c24:	1ffff0f2 	.word	0x1ffff0f2
    2c28:	1ffff0e2 	.word	0x1ffff0e2
    2c2c:	1ffff156 	.word	0x1ffff156
    2c30:	fffffa49 	.word	0xfffffa49
    2c34:	1fffd4c6 	.word	0x1fffd4c6
    2c38:	1ffff0ba 	.word	0x1ffff0ba
    2c3c:	1ffff0b4 	.word	0x1ffff0b4
    2c40:	1fffd49a 	.word	0x1fffd49a
    2c44:	1ffff092 	.word	0x1ffff092
    2c48:	1fffd482 	.word	0x1fffd482
    2c4c:	00000108 	.word	0x00000108
    2c50:	1ffff0dc 	.word	0x1ffff0dc
    2c54:	1ffff0d2 	.word	0x1ffff0d2
    2c58:	0000007c 	.word	0x0000007c
    2c5c:	0000003c 	.word	0x0000003c
    2c60:	1ffff01e 	.word	0x1ffff01e
    2c64:	1ffff090 	.word	0x1ffff090
    2c68:	1ffff080 	.word	0x1ffff080

00002c6c <xTaskResumeAll>:

#endif /* configUSE_TICKLESS_IDLE */
/*----------------------------------------------------------*/

BaseType_t xTaskResumeAll( void )
{
    2c6c:	b5f0      	push	{r4, r5, r6, r7, lr}
    2c6e:	464f      	mov	r7, r9
    2c70:	b480      	push	{r7}
    2c72:	b082      	sub	sp, #8
    2c74:	4c3f      	ldr	r4, [pc, #252]	; (2d74 <xTaskResumeAll+0x108>)
    2c76:	447c      	add	r4, pc
TCB_t *pxTCB;
BaseType_t xAlreadyYielded = pdFALSE;

	/* If uxSchedulerSuspended is zero then this function does not match a
	previous call to vTaskSuspendAll(). */
	configASSERT( uxSchedulerSuspended );
    2c78:	4b3f      	ldr	r3, [pc, #252]	; (2d78 <xTaskResumeAll+0x10c>)
    2c7a:	447b      	add	r3, pc
    2c7c:	6e9b      	ldr	r3, [r3, #104]	; 0x68
    2c7e:	2b00      	cmp	r3, #0
    2c80:	d101      	bne.n	2c86 <xTaskResumeAll+0x1a>
    2c82:	b672      	cpsid	i
    2c84:	e7fe      	b.n	2c84 <xTaskResumeAll+0x18>
	/* It is possible that an ISR caused a task to be removed from an event
	list while the scheduler was suspended.  If this was the case then the
	removed task will have been added to the xPendingReadyList.  Once the
	scheduler has been resumed it is safe to move all the pending ready
	tasks from this list into their appropriate ready list. */
	taskENTER_CRITICAL();
    2c86:	4b3d      	ldr	r3, [pc, #244]	; (2d7c <xTaskResumeAll+0x110>)
    2c88:	58e3      	ldr	r3, [r4, r3]
    2c8a:	4798      	blx	r3
	{
		--uxSchedulerSuspended;
    2c8c:	4b3c      	ldr	r3, [pc, #240]	; (2d80 <xTaskResumeAll+0x114>)
    2c8e:	447b      	add	r3, pc
    2c90:	6e9a      	ldr	r2, [r3, #104]	; 0x68
    2c92:	3a01      	subs	r2, #1
    2c94:	669a      	str	r2, [r3, #104]	; 0x68

		if( uxSchedulerSuspended == ( UBaseType_t ) pdFALSE )
    2c96:	6e9b      	ldr	r3, [r3, #104]	; 0x68
/*----------------------------------------------------------*/

BaseType_t xTaskResumeAll( void )
{
TCB_t *pxTCB;
BaseType_t xAlreadyYielded = pdFALSE;
    2c98:	2500      	movs	r5, #0
	tasks from this list into their appropriate ready list. */
	taskENTER_CRITICAL();
	{
		--uxSchedulerSuspended;

		if( uxSchedulerSuspended == ( UBaseType_t ) pdFALSE )
    2c9a:	2b00      	cmp	r3, #0
    2c9c:	d161      	bne.n	2d62 <xTaskResumeAll+0xf6>
		{
			if( uxCurrentNumberOfTasks > ( UBaseType_t ) 0U )
    2c9e:	4b39      	ldr	r3, [pc, #228]	; (2d84 <xTaskResumeAll+0x118>)
    2ca0:	447b      	add	r3, pc
    2ca2:	6b5b      	ldr	r3, [r3, #52]	; 0x34
    2ca4:	2b00      	cmp	r3, #0
    2ca6:	d05c      	beq.n	2d62 <xTaskResumeAll+0xf6>
			{
				/* Move any readied tasks from the pending list into the
				appropriate ready list. */
				while( listLIST_IS_EMPTY( &xPendingReadyList ) == pdFALSE )
    2ca8:	4a37      	ldr	r2, [pc, #220]	; (2d88 <xTaskResumeAll+0x11c>)
    2caa:	447a      	add	r2, pc
    2cac:	4691      	mov	r9, r2
				{
					pxTCB = ( TCB_t * ) listGET_OWNER_OF_HEAD_ENTRY( ( &xPendingReadyList ) );
					( void ) uxListRemove( &( pxTCB->xEventListItem ) );
					( void ) uxListRemove( &( pxTCB->xGenericListItem ) );
					prvAddTaskToReadyList( pxTCB );
    2cae:	4b37      	ldr	r3, [pc, #220]	; (2d8c <xTaskResumeAll+0x120>)
    2cb0:	447b      	add	r3, pc
    2cb2:	1c1e      	adds	r6, r3, #0
    2cb4:	3638      	adds	r6, #56	; 0x38
    2cb6:	e029      	b.n	2d0c <xTaskResumeAll+0xa0>
			{
				/* Move any readied tasks from the pending list into the
				appropriate ready list. */
				while( listLIST_IS_EMPTY( &xPendingReadyList ) == pdFALSE )
				{
					pxTCB = ( TCB_t * ) listGET_OWNER_OF_HEAD_ENTRY( ( &xPendingReadyList ) );
    2cb8:	4b35      	ldr	r3, [pc, #212]	; (2d90 <xTaskResumeAll+0x124>)
    2cba:	447b      	add	r3, pc
    2cbc:	6a1b      	ldr	r3, [r3, #32]
    2cbe:	68dd      	ldr	r5, [r3, #12]
					( void ) uxListRemove( &( pxTCB->xEventListItem ) );
    2cc0:	1c28      	adds	r0, r5, #0
    2cc2:	3018      	adds	r0, #24
    2cc4:	4b33      	ldr	r3, [pc, #204]	; (2d94 <xTaskResumeAll+0x128>)
    2cc6:	58e3      	ldr	r3, [r4, r3]
    2cc8:	9301      	str	r3, [sp, #4]
    2cca:	4798      	blx	r3
					( void ) uxListRemove( &( pxTCB->xGenericListItem ) );
    2ccc:	1d2f      	adds	r7, r5, #4
    2cce:	1c38      	adds	r0, r7, #0
    2cd0:	9b01      	ldr	r3, [sp, #4]
    2cd2:	4798      	blx	r3
					prvAddTaskToReadyList( pxTCB );
    2cd4:	6aeb      	ldr	r3, [r5, #44]	; 0x2c
    2cd6:	4a30      	ldr	r2, [pc, #192]	; (2d98 <xTaskResumeAll+0x12c>)
    2cd8:	447a      	add	r2, pc
    2cda:	6e12      	ldr	r2, [r2, #96]	; 0x60
    2cdc:	4293      	cmp	r3, r2
    2cde:	d902      	bls.n	2ce6 <xTaskResumeAll+0x7a>
    2ce0:	4a2e      	ldr	r2, [pc, #184]	; (2d9c <xTaskResumeAll+0x130>)
    2ce2:	447a      	add	r2, pc
    2ce4:	6613      	str	r3, [r2, #96]	; 0x60
    2ce6:	0098      	lsls	r0, r3, #2
    2ce8:	18c0      	adds	r0, r0, r3
    2cea:	0080      	lsls	r0, r0, #2
    2cec:	1830      	adds	r0, r6, r0
    2cee:	1c39      	adds	r1, r7, #0
    2cf0:	4b2b      	ldr	r3, [pc, #172]	; (2da0 <xTaskResumeAll+0x134>)
    2cf2:	58e3      	ldr	r3, [r4, r3]
    2cf4:	4798      	blx	r3

					/* If we have moved a task that has a priority higher than
					the current task then we should yield. */
					if( pxTCB->uxPriority >= pxCurrentTCB->uxPriority )
    2cf6:	4b2b      	ldr	r3, [pc, #172]	; (2da4 <xTaskResumeAll+0x138>)
    2cf8:	58e3      	ldr	r3, [r4, r3]
    2cfa:	681b      	ldr	r3, [r3, #0]
    2cfc:	6aea      	ldr	r2, [r5, #44]	; 0x2c
    2cfe:	6adb      	ldr	r3, [r3, #44]	; 0x2c
    2d00:	429a      	cmp	r2, r3
    2d02:	d303      	bcc.n	2d0c <xTaskResumeAll+0xa0>
					{
						xYieldPending = pdTRUE;
    2d04:	2201      	movs	r2, #1
    2d06:	4b28      	ldr	r3, [pc, #160]	; (2da8 <xTaskResumeAll+0x13c>)
    2d08:	447b      	add	r3, pc
    2d0a:	675a      	str	r2, [r3, #116]	; 0x74
		{
			if( uxCurrentNumberOfTasks > ( UBaseType_t ) 0U )
			{
				/* Move any readied tasks from the pending list into the
				appropriate ready list. */
				while( listLIST_IS_EMPTY( &xPendingReadyList ) == pdFALSE )
    2d0c:	464a      	mov	r2, r9
    2d0e:	6952      	ldr	r2, [r2, #20]
    2d10:	2a00      	cmp	r2, #0
    2d12:	d1d1      	bne.n	2cb8 <xTaskResumeAll+0x4c>

				/* If any ticks occurred while the scheduler was suspended then
				they should be processed now.  This ensures the tick count does
				not	slip, and that any delayed tasks are resumed at the correct
				time. */
				if( uxPendedTicks > ( UBaseType_t ) 0U )
    2d14:	4b25      	ldr	r3, [pc, #148]	; (2dac <xTaskResumeAll+0x140>)
    2d16:	447b      	add	r3, pc
    2d18:	6f1b      	ldr	r3, [r3, #112]	; 0x70
    2d1a:	2b00      	cmp	r3, #0
    2d1c:	d017      	beq.n	2d4e <xTaskResumeAll+0xe2>
				{
					while( uxPendedTicks > ( UBaseType_t ) 0U )
    2d1e:	4b24      	ldr	r3, [pc, #144]	; (2db0 <xTaskResumeAll+0x144>)
    2d20:	447b      	add	r3, pc
    2d22:	6f1b      	ldr	r3, [r3, #112]	; 0x70
    2d24:	2b00      	cmp	r3, #0
    2d26:	d012      	beq.n	2d4e <xTaskResumeAll+0xe2>
					{
						if( xTaskIncrementTick() != pdFALSE )
    2d28:	4b22      	ldr	r3, [pc, #136]	; (2db4 <xTaskResumeAll+0x148>)
    2d2a:	58e3      	ldr	r3, [r4, r3]
    2d2c:	9301      	str	r3, [sp, #4]
						{
							xYieldPending = pdTRUE;
    2d2e:	4e22      	ldr	r6, [pc, #136]	; (2db8 <xTaskResumeAll+0x14c>)
    2d30:	447e      	add	r6, pc
    2d32:	2501      	movs	r5, #1
				time. */
				if( uxPendedTicks > ( UBaseType_t ) 0U )
				{
					while( uxPendedTicks > ( UBaseType_t ) 0U )
					{
						if( xTaskIncrementTick() != pdFALSE )
    2d34:	9b01      	ldr	r3, [sp, #4]
    2d36:	4798      	blx	r3
    2d38:	2800      	cmp	r0, #0
    2d3a:	d000      	beq.n	2d3e <xTaskResumeAll+0xd2>
						{
							xYieldPending = pdTRUE;
    2d3c:	6775      	str	r5, [r6, #116]	; 0x74
						}
						else
						{
							mtCOVERAGE_TEST_MARKER();
						}
						--uxPendedTicks;
    2d3e:	4b1f      	ldr	r3, [pc, #124]	; (2dbc <xTaskResumeAll+0x150>)
    2d40:	447b      	add	r3, pc
    2d42:	6f1a      	ldr	r2, [r3, #112]	; 0x70
    2d44:	3a01      	subs	r2, #1
    2d46:	671a      	str	r2, [r3, #112]	; 0x70
				they should be processed now.  This ensures the tick count does
				not	slip, and that any delayed tasks are resumed at the correct
				time. */
				if( uxPendedTicks > ( UBaseType_t ) 0U )
				{
					while( uxPendedTicks > ( UBaseType_t ) 0U )
    2d48:	6f1b      	ldr	r3, [r3, #112]	; 0x70
    2d4a:	2b00      	cmp	r3, #0
    2d4c:	d1f2      	bne.n	2d34 <xTaskResumeAll+0xc8>
				else
				{
					mtCOVERAGE_TEST_MARKER();
				}

				if( xYieldPending == pdTRUE )
    2d4e:	4b1c      	ldr	r3, [pc, #112]	; (2dc0 <xTaskResumeAll+0x154>)
    2d50:	447b      	add	r3, pc
    2d52:	6f5b      	ldr	r3, [r3, #116]	; 0x74
/*----------------------------------------------------------*/

BaseType_t xTaskResumeAll( void )
{
TCB_t *pxTCB;
BaseType_t xAlreadyYielded = pdFALSE;
    2d54:	2500      	movs	r5, #0
				else
				{
					mtCOVERAGE_TEST_MARKER();
				}

				if( xYieldPending == pdTRUE )
    2d56:	2b01      	cmp	r3, #1
    2d58:	d103      	bne.n	2d62 <xTaskResumeAll+0xf6>
					#if( configUSE_PREEMPTION != 0 )
					{
						xAlreadyYielded = pdTRUE;
					}
					#endif
					taskYIELD_IF_USING_PREEMPTION();
    2d5a:	4b1a      	ldr	r3, [pc, #104]	; (2dc4 <xTaskResumeAll+0x158>)
    2d5c:	58e3      	ldr	r3, [r4, r3]
    2d5e:	4798      	blx	r3

				if( xYieldPending == pdTRUE )
				{
					#if( configUSE_PREEMPTION != 0 )
					{
						xAlreadyYielded = pdTRUE;
    2d60:	2501      	movs	r5, #1
		else
		{
			mtCOVERAGE_TEST_MARKER();
		}
	}
	taskEXIT_CRITICAL();
    2d62:	4b19      	ldr	r3, [pc, #100]	; (2dc8 <xTaskResumeAll+0x15c>)
    2d64:	58e3      	ldr	r3, [r4, r3]
    2d66:	4798      	blx	r3

	return xAlreadyYielded;
}
    2d68:	1c28      	adds	r0, r5, #0
    2d6a:	b002      	add	sp, #8
    2d6c:	bc04      	pop	{r2}
    2d6e:	4691      	mov	r9, r2
    2d70:	bdf0      	pop	{r4, r5, r6, r7, pc}
    2d72:	46c0      	nop			; (mov r8, r8)
    2d74:	00001ab2 	.word	0x00001ab2
    2d78:	1ffff006 	.word	0x1ffff006
    2d7c:	00000220 	.word	0x00000220
    2d80:	1fffeff2 	.word	0x1fffeff2
    2d84:	1fffef60 	.word	0x1fffef60
    2d88:	1fffef56 	.word	0x1fffef56
    2d8c:	1fffef50 	.word	0x1fffef50
    2d90:	1fffef46 	.word	0x1fffef46
    2d94:	00000108 	.word	0x00000108
    2d98:	1fffefa8 	.word	0x1fffefa8
    2d9c:	1fffef9e 	.word	0x1fffef9e
    2da0:	0000007c 	.word	0x0000007c
    2da4:	0000003c 	.word	0x0000003c
    2da8:	1fffef78 	.word	0x1fffef78
    2dac:	1fffef6a 	.word	0x1fffef6a
    2db0:	1fffef60 	.word	0x1fffef60
    2db4:	000001d0 	.word	0x000001d0
    2db8:	1fffef50 	.word	0x1fffef50
    2dbc:	1fffef40 	.word	0x1fffef40
    2dc0:	1fffef30 	.word	0x1fffef30
    2dc4:	00000148 	.word	0x00000148
    2dc8:	0000000c 	.word	0x0000000c

00002dcc <prvIdleTask>:
 *
 * void prvIdleTask( void *pvParameters );
 *
 */
static portTASK_FUNCTION( prvIdleTask, pvParameters )
{
    2dcc:	b5f0      	push	{r4, r5, r6, r7, lr}
    2dce:	464f      	mov	r7, r9
    2dd0:	4646      	mov	r6, r8
    2dd2:	b4c0      	push	{r6, r7}
    2dd4:	b083      	sub	sp, #12
    2dd6:	4c1e      	ldr	r4, [pc, #120]	; (2e50 <prvIdleTask+0x84>)
    2dd8:	447c      	add	r4, pc
	{
		BaseType_t xListIsEmpty;

		/* ucTasksDeleted is used to prevent vTaskSuspendAll() being called
		too often in the idle task. */
		while( uxTasksDeleted > ( UBaseType_t ) 0U )
    2dda:	4e1e      	ldr	r6, [pc, #120]	; (2e54 <prvIdleTask+0x88>)
    2ddc:	447e      	add	r6, pc

			A critical region is not required here as we are just reading from
			the list, and an occasional incorrect value will not matter.  If
			the ready list at the idle priority contains more than one task
			then a task other than the idle task is ready to execute. */
			if( listCURRENT_LIST_LENGTH( &( pxReadyTasksLists[ tskIDLE_PRIORITY ] ) ) > ( UBaseType_t ) 1 )
    2dde:	4a1e      	ldr	r2, [pc, #120]	; (2e58 <prvIdleTask+0x8c>)
    2de0:	447a      	add	r2, pc
    2de2:	4690      	mov	r8, r2
		too often in the idle task. */
		while( uxTasksDeleted > ( UBaseType_t ) 0U )
		{
			vTaskSuspendAll();
			{
				xListIsEmpty = listLIST_IS_EMPTY( &xTasksWaitingTermination );
    2de4:	4f1d      	ldr	r7, [pc, #116]	; (2e5c <prvIdleTask+0x90>)
    2de6:	447f      	add	r7, pc
    2de8:	e027      	b.n	2e3a <prvIdleTask+0x6e>

		/* ucTasksDeleted is used to prevent vTaskSuspendAll() being called
		too often in the idle task. */
		while( uxTasksDeleted > ( UBaseType_t ) 0U )
		{
			vTaskSuspendAll();
    2dea:	4b1d      	ldr	r3, [pc, #116]	; (2e60 <prvIdleTask+0x94>)
    2dec:	58e3      	ldr	r3, [r4, r3]
    2dee:	4798      	blx	r3
			{
				xListIsEmpty = listLIST_IS_EMPTY( &xTasksWaitingTermination );
    2df0:	6c7d      	ldr	r5, [r7, #68]	; 0x44
			}
			( void ) xTaskResumeAll();
    2df2:	4b1c      	ldr	r3, [pc, #112]	; (2e64 <prvIdleTask+0x98>)
    2df4:	58e3      	ldr	r3, [r4, r3]
    2df6:	4798      	blx	r3

			if( xListIsEmpty == pdFALSE )
    2df8:	2d00      	cmp	r5, #0
    2dfa:	d01e      	beq.n	2e3a <prvIdleTask+0x6e>
			{
				TCB_t *pxTCB;

				taskENTER_CRITICAL();
    2dfc:	4b1a      	ldr	r3, [pc, #104]	; (2e68 <prvIdleTask+0x9c>)
    2dfe:	58e3      	ldr	r3, [r4, r3]
    2e00:	4798      	blx	r3
				{
					pxTCB = ( TCB_t * ) listGET_OWNER_OF_HEAD_ENTRY( ( &xTasksWaitingTermination ) );
    2e02:	4d1a      	ldr	r5, [pc, #104]	; (2e6c <prvIdleTask+0xa0>)
    2e04:	447d      	add	r5, pc
    2e06:	6d2b      	ldr	r3, [r5, #80]	; 0x50
    2e08:	68da      	ldr	r2, [r3, #12]
    2e0a:	4691      	mov	r9, r2
					( void ) uxListRemove( &( pxTCB->xGenericListItem ) );
    2e0c:	1c10      	adds	r0, r2, #0
    2e0e:	3004      	adds	r0, #4
    2e10:	4b17      	ldr	r3, [pc, #92]	; (2e70 <prvIdleTask+0xa4>)
    2e12:	58e3      	ldr	r3, [r4, r3]
    2e14:	4798      	blx	r3
					--uxCurrentNumberOfTasks;
    2e16:	4b17      	ldr	r3, [pc, #92]	; (2e74 <prvIdleTask+0xa8>)
    2e18:	447b      	add	r3, pc
    2e1a:	6b5a      	ldr	r2, [r3, #52]	; 0x34
    2e1c:	3a01      	subs	r2, #1
    2e1e:	635a      	str	r2, [r3, #52]	; 0x34
					--uxTasksDeleted;
    2e20:	6e6b      	ldr	r3, [r5, #100]	; 0x64
    2e22:	3b01      	subs	r3, #1
    2e24:	666b      	str	r3, [r5, #100]	; 0x64
				}
				taskEXIT_CRITICAL();
    2e26:	4b14      	ldr	r3, [pc, #80]	; (2e78 <prvIdleTask+0xac>)
    2e28:	58e3      	ldr	r3, [r4, r3]
    2e2a:	4798      	blx	r3
		#if ( configUSE_NEWLIB_REENTRANT == 1 )
		{
			_reclaim_reent( &( pxTCB->xNewLib_reent ) );
		}
		#endif /* configUSE_NEWLIB_REENTRANT */
		vPortFreeAligned( pxTCB->pxStack );
    2e2c:	464b      	mov	r3, r9
    2e2e:	6b18      	ldr	r0, [r3, #48]	; 0x30
    2e30:	4b12      	ldr	r3, [pc, #72]	; (2e7c <prvIdleTask+0xb0>)
    2e32:	58e5      	ldr	r5, [r4, r3]
    2e34:	47a8      	blx	r5
		vPortFree( pxTCB );
    2e36:	4648      	mov	r0, r9
    2e38:	47a8      	blx	r5
	{
		BaseType_t xListIsEmpty;

		/* ucTasksDeleted is used to prevent vTaskSuspendAll() being called
		too often in the idle task. */
		while( uxTasksDeleted > ( UBaseType_t ) 0U )
    2e3a:	6e73      	ldr	r3, [r6, #100]	; 0x64
    2e3c:	2b00      	cmp	r3, #0
    2e3e:	d1d4      	bne.n	2dea <prvIdleTask+0x1e>

			A critical region is not required here as we are just reading from
			the list, and an occasional incorrect value will not matter.  If
			the ready list at the idle priority contains more than one task
			then a task other than the idle task is ready to execute. */
			if( listCURRENT_LIST_LENGTH( &( pxReadyTasksLists[ tskIDLE_PRIORITY ] ) ) > ( UBaseType_t ) 1 )
    2e40:	4642      	mov	r2, r8
    2e42:	6b92      	ldr	r2, [r2, #56]	; 0x38
    2e44:	2a01      	cmp	r2, #1
    2e46:	d9f8      	bls.n	2e3a <prvIdleTask+0x6e>
			{
				taskYIELD();
    2e48:	4b0d      	ldr	r3, [pc, #52]	; (2e80 <prvIdleTask+0xb4>)
    2e4a:	58e3      	ldr	r3, [r4, r3]
    2e4c:	4798      	blx	r3
    2e4e:	e7f4      	b.n	2e3a <prvIdleTask+0x6e>
    2e50:	00001950 	.word	0x00001950
    2e54:	1fffeea4 	.word	0x1fffeea4
    2e58:	1fffee20 	.word	0x1fffee20
    2e5c:	1fffee9a 	.word	0x1fffee9a
    2e60:	000000fc 	.word	0x000000fc
    2e64:	000001a0 	.word	0x000001a0
    2e68:	00000220 	.word	0x00000220
    2e6c:	1fffee7c 	.word	0x1fffee7c
    2e70:	00000108 	.word	0x00000108
    2e74:	1fffede8 	.word	0x1fffede8
    2e78:	0000000c 	.word	0x0000000c
    2e7c:	0000006c 	.word	0x0000006c
    2e80:	00000148 	.word	0x00000148

00002e84 <vTaskSwitchContext>:

#endif /* configUSE_APPLICATION_TASK_TAG */
/*-----------------------------------------------------------*/

void vTaskSwitchContext( void )
{
    2e84:	b530      	push	{r4, r5, lr}
    2e86:	4827      	ldr	r0, [pc, #156]	; (2f24 <vTaskSwitchContext+0xa0>)
    2e88:	4478      	add	r0, pc
	if( uxSchedulerSuspended != ( UBaseType_t ) pdFALSE )
    2e8a:	4b27      	ldr	r3, [pc, #156]	; (2f28 <vTaskSwitchContext+0xa4>)
    2e8c:	447b      	add	r3, pc
    2e8e:	6e9b      	ldr	r3, [r3, #104]	; 0x68
    2e90:	2b00      	cmp	r3, #0
    2e92:	d004      	beq.n	2e9e <vTaskSwitchContext+0x1a>
	{
		/* The scheduler is currently suspended - do not allow a context
		switch. */
		xYieldPending = pdTRUE;
    2e94:	2201      	movs	r2, #1
    2e96:	4b25      	ldr	r3, [pc, #148]	; (2f2c <vTaskSwitchContext+0xa8>)
    2e98:	447b      	add	r3, pc
    2e9a:	675a      	str	r2, [r3, #116]	; 0x74
    2e9c:	e041      	b.n	2f22 <vTaskSwitchContext+0x9e>
	}
	else
	{
		xYieldPending = pdFALSE;
    2e9e:	4b24      	ldr	r3, [pc, #144]	; (2f30 <vTaskSwitchContext+0xac>)
    2ea0:	447b      	add	r3, pc
    2ea2:	2200      	movs	r2, #0
    2ea4:	675a      	str	r2, [r3, #116]	; 0x74
		#endif /* configGENERATE_RUN_TIME_STATS */

		taskFIRST_CHECK_FOR_STACK_OVERFLOW();
		taskSECOND_CHECK_FOR_STACK_OVERFLOW();

		taskSELECT_HIGHEST_PRIORITY_TASK();
    2ea6:	6e1b      	ldr	r3, [r3, #96]	; 0x60
    2ea8:	009a      	lsls	r2, r3, #2
    2eaa:	18d3      	adds	r3, r2, r3
    2eac:	009b      	lsls	r3, r3, #2
    2eae:	4a21      	ldr	r2, [pc, #132]	; (2f34 <vTaskSwitchContext+0xb0>)
    2eb0:	447a      	add	r2, pc
    2eb2:	18d3      	adds	r3, r2, r3
    2eb4:	6b9b      	ldr	r3, [r3, #56]	; 0x38
    2eb6:	2b00      	cmp	r3, #0
    2eb8:	d11b      	bne.n	2ef2 <vTaskSwitchContext+0x6e>
    2eba:	4b1f      	ldr	r3, [pc, #124]	; (2f38 <vTaskSwitchContext+0xb4>)
    2ebc:	447b      	add	r3, pc
    2ebe:	6e1b      	ldr	r3, [r3, #96]	; 0x60
    2ec0:	2b00      	cmp	r3, #0
    2ec2:	d105      	bne.n	2ed0 <vTaskSwitchContext+0x4c>
    2ec4:	e002      	b.n	2ecc <vTaskSwitchContext+0x48>
    2ec6:	6e22      	ldr	r2, [r4, #96]	; 0x60
    2ec8:	2a00      	cmp	r2, #0
    2eca:	d107      	bne.n	2edc <vTaskSwitchContext+0x58>
    2ecc:	b672      	cpsid	i
    2ece:	e7fe      	b.n	2ece <vTaskSwitchContext+0x4a>
    2ed0:	4b1a      	ldr	r3, [pc, #104]	; (2f3c <vTaskSwitchContext+0xb8>)
    2ed2:	447b      	add	r3, pc
    2ed4:	4d1a      	ldr	r5, [pc, #104]	; (2f40 <vTaskSwitchContext+0xbc>)
    2ed6:	447d      	add	r5, pc
    2ed8:	4c1a      	ldr	r4, [pc, #104]	; (2f44 <vTaskSwitchContext+0xc0>)
    2eda:	447c      	add	r4, pc
    2edc:	6e1a      	ldr	r2, [r3, #96]	; 0x60
    2ede:	3a01      	subs	r2, #1
    2ee0:	661a      	str	r2, [r3, #96]	; 0x60
    2ee2:	6e1a      	ldr	r2, [r3, #96]	; 0x60
    2ee4:	0091      	lsls	r1, r2, #2
    2ee6:	188a      	adds	r2, r1, r2
    2ee8:	0092      	lsls	r2, r2, #2
    2eea:	18aa      	adds	r2, r5, r2
    2eec:	6b92      	ldr	r2, [r2, #56]	; 0x38
    2eee:	2a00      	cmp	r2, #0
    2ef0:	d0e9      	beq.n	2ec6 <vTaskSwitchContext+0x42>
    2ef2:	4b15      	ldr	r3, [pc, #84]	; (2f48 <vTaskSwitchContext+0xc4>)
    2ef4:	447b      	add	r3, pc
    2ef6:	6e1b      	ldr	r3, [r3, #96]	; 0x60
    2ef8:	009a      	lsls	r2, r3, #2
    2efa:	18d3      	adds	r3, r2, r3
    2efc:	009b      	lsls	r3, r3, #2
    2efe:	4a13      	ldr	r2, [pc, #76]	; (2f4c <vTaskSwitchContext+0xc8>)
    2f00:	447a      	add	r2, pc
    2f02:	3238      	adds	r2, #56	; 0x38
    2f04:	18d3      	adds	r3, r2, r3
    2f06:	685a      	ldr	r2, [r3, #4]
    2f08:	6852      	ldr	r2, [r2, #4]
    2f0a:	605a      	str	r2, [r3, #4]
    2f0c:	1c19      	adds	r1, r3, #0
    2f0e:	3108      	adds	r1, #8
    2f10:	428a      	cmp	r2, r1
    2f12:	d101      	bne.n	2f18 <vTaskSwitchContext+0x94>
    2f14:	6852      	ldr	r2, [r2, #4]
    2f16:	605a      	str	r2, [r3, #4]
    2f18:	685b      	ldr	r3, [r3, #4]
    2f1a:	68da      	ldr	r2, [r3, #12]
    2f1c:	4b0c      	ldr	r3, [pc, #48]	; (2f50 <vTaskSwitchContext+0xcc>)
    2f1e:	58c3      	ldr	r3, [r0, r3]
    2f20:	601a      	str	r2, [r3, #0]
			structure specific to this task. */
			_impure_ptr = &( pxCurrentTCB->xNewLib_reent );
		}
		#endif /* configUSE_NEWLIB_REENTRANT */
	}
}
    2f22:	bd30      	pop	{r4, r5, pc}
    2f24:	000018a0 	.word	0x000018a0
    2f28:	1fffedf4 	.word	0x1fffedf4
    2f2c:	1fffede8 	.word	0x1fffede8
    2f30:	1fffede0 	.word	0x1fffede0
    2f34:	1fffed50 	.word	0x1fffed50
    2f38:	1fffedc4 	.word	0x1fffedc4
    2f3c:	1fffedae 	.word	0x1fffedae
    2f40:	1fffed2a 	.word	0x1fffed2a
    2f44:	1fffeda6 	.word	0x1fffeda6
    2f48:	1fffed8c 	.word	0x1fffed8c
    2f4c:	1fffed00 	.word	0x1fffed00
    2f50:	0000003c 	.word	0x0000003c

00002f54 <vTaskSuspend>:
/*-----------------------------------------------------------*/

#if ( INCLUDE_vTaskSuspend == 1 )

	void vTaskSuspend( TaskHandle_t xTaskToSuspend )
	{
    2f54:	b570      	push	{r4, r5, r6, lr}
    2f56:	b082      	sub	sp, #8
    2f58:	1c05      	adds	r5, r0, #0
    2f5a:	4c2a      	ldr	r4, [pc, #168]	; (3004 <vTaskSuspend+0xb0>)
    2f5c:	447c      	add	r4, pc
	TCB_t *pxTCB;

		taskENTER_CRITICAL();
    2f5e:	4b2a      	ldr	r3, [pc, #168]	; (3008 <vTaskSuspend+0xb4>)
    2f60:	58e3      	ldr	r3, [r4, r3]
    2f62:	4798      	blx	r3
		{
			/* If null is passed in here then it is the running task that is
			being suspended. */
			pxTCB = prvGetTCBFromHandle( xTaskToSuspend );
    2f64:	2d00      	cmp	r5, #0
    2f66:	d102      	bne.n	2f6e <vTaskSuspend+0x1a>
    2f68:	4b28      	ldr	r3, [pc, #160]	; (300c <vTaskSuspend+0xb8>)
    2f6a:	58e3      	ldr	r3, [r4, r3]
    2f6c:	681d      	ldr	r5, [r3, #0]

			traceTASK_SUSPEND( pxTCB );

			/* Remove task from the ready/delayed list and place in the
			suspended list. */
			if( uxListRemove( &( pxTCB->xGenericListItem ) ) == ( UBaseType_t ) 0 )
    2f6e:	1d2e      	adds	r6, r5, #4
    2f70:	1c30      	adds	r0, r6, #0
    2f72:	4b27      	ldr	r3, [pc, #156]	; (3010 <vTaskSuspend+0xbc>)
    2f74:	58e3      	ldr	r3, [r4, r3]
    2f76:	4798      	blx	r3
			{
				mtCOVERAGE_TEST_MARKER();
			}

			/* Is the task waiting on an event also? */
			if( listLIST_ITEM_CONTAINER( &( pxTCB->xEventListItem ) ) != NULL )
    2f78:	6aab      	ldr	r3, [r5, #40]	; 0x28
    2f7a:	2b00      	cmp	r3, #0
    2f7c:	d004      	beq.n	2f88 <vTaskSuspend+0x34>
			{
				( void ) uxListRemove( &( pxTCB->xEventListItem ) );
    2f7e:	1c28      	adds	r0, r5, #0
    2f80:	3018      	adds	r0, #24
    2f82:	4b23      	ldr	r3, [pc, #140]	; (3010 <vTaskSuspend+0xbc>)
    2f84:	58e3      	ldr	r3, [r4, r3]
    2f86:	4798      	blx	r3
			else
			{
				mtCOVERAGE_TEST_MARKER();
			}

			vListInsertEnd( &xSuspendedTaskList, &( pxTCB->xGenericListItem ) );
    2f88:	4822      	ldr	r0, [pc, #136]	; (3014 <vTaskSuspend+0xc0>)
    2f8a:	4478      	add	r0, pc
    2f8c:	1c31      	adds	r1, r6, #0
    2f8e:	4b22      	ldr	r3, [pc, #136]	; (3018 <vTaskSuspend+0xc4>)
    2f90:	58e3      	ldr	r3, [r4, r3]
    2f92:	4798      	blx	r3
		}
		taskEXIT_CRITICAL();
    2f94:	4b21      	ldr	r3, [pc, #132]	; (301c <vTaskSuspend+0xc8>)
    2f96:	58e3      	ldr	r3, [r4, r3]
    2f98:	4798      	blx	r3

		if( pxTCB == pxCurrentTCB )
    2f9a:	4b1c      	ldr	r3, [pc, #112]	; (300c <vTaskSuspend+0xb8>)
    2f9c:	58e3      	ldr	r3, [r4, r3]
    2f9e:	681b      	ldr	r3, [r3, #0]
    2fa0:	429d      	cmp	r5, r3
    2fa2:	d11e      	bne.n	2fe2 <vTaskSuspend+0x8e>
		{
			if( xSchedulerRunning != pdFALSE )
    2fa4:	4b1e      	ldr	r3, [pc, #120]	; (3020 <vTaskSuspend+0xcc>)
    2fa6:	447b      	add	r3, pc
    2fa8:	6d9b      	ldr	r3, [r3, #88]	; 0x58
    2faa:	2b00      	cmp	r3, #0
    2fac:	d00a      	beq.n	2fc4 <vTaskSuspend+0x70>
			{
				/* The current task has just been suspended. */
				configASSERT( uxSchedulerSuspended == 0 );
    2fae:	4b1d      	ldr	r3, [pc, #116]	; (3024 <vTaskSuspend+0xd0>)
    2fb0:	447b      	add	r3, pc
    2fb2:	6e9b      	ldr	r3, [r3, #104]	; 0x68
    2fb4:	2b00      	cmp	r3, #0
    2fb6:	d001      	beq.n	2fbc <vTaskSuspend+0x68>
    2fb8:	b672      	cpsid	i
    2fba:	e7fe      	b.n	2fba <vTaskSuspend+0x66>
				portYIELD_WITHIN_API();
    2fbc:	4b1a      	ldr	r3, [pc, #104]	; (3028 <vTaskSuspend+0xd4>)
    2fbe:	58e3      	ldr	r3, [r4, r3]
    2fc0:	4798      	blx	r3
    2fc2:	e01c      	b.n	2ffe <vTaskSuspend+0xaa>
			else
			{
				/* The scheduler is not running, but the task that was pointed
				to by pxCurrentTCB has just been suspended and pxCurrentTCB
				must be adjusted to point to a different task. */
				if( listCURRENT_LIST_LENGTH( &xSuspendedTaskList ) == uxCurrentNumberOfTasks )
    2fc4:	4b19      	ldr	r3, [pc, #100]	; (302c <vTaskSuspend+0xd8>)
    2fc6:	447b      	add	r3, pc
    2fc8:	6b5a      	ldr	r2, [r3, #52]	; 0x34
    2fca:	681b      	ldr	r3, [r3, #0]
    2fcc:	4293      	cmp	r3, r2
    2fce:	d104      	bne.n	2fda <vTaskSuspend+0x86>
				{
					/* No other tasks are ready, so set pxCurrentTCB back to
					NULL so when the next task is created pxCurrentTCB will
					be set to point to it no matter what its relative priority
					is. */
					pxCurrentTCB = NULL;
    2fd0:	4b0e      	ldr	r3, [pc, #56]	; (300c <vTaskSuspend+0xb8>)
    2fd2:	58e3      	ldr	r3, [r4, r3]
    2fd4:	2200      	movs	r2, #0
    2fd6:	601a      	str	r2, [r3, #0]
    2fd8:	e011      	b.n	2ffe <vTaskSuspend+0xaa>
				}
				else
				{
					vTaskSwitchContext();
    2fda:	4b15      	ldr	r3, [pc, #84]	; (3030 <vTaskSuspend+0xdc>)
    2fdc:	58e3      	ldr	r3, [r4, r3]
    2fde:	4798      	blx	r3
    2fe0:	e00d      	b.n	2ffe <vTaskSuspend+0xaa>
				}
			}
		}
		else
		{
			if( xSchedulerRunning != pdFALSE )
    2fe2:	4b14      	ldr	r3, [pc, #80]	; (3034 <vTaskSuspend+0xe0>)
    2fe4:	447b      	add	r3, pc
    2fe6:	6d9b      	ldr	r3, [r3, #88]	; 0x58
    2fe8:	2b00      	cmp	r3, #0
    2fea:	d008      	beq.n	2ffe <vTaskSuspend+0xaa>
			{
				/* A task other than the currently running task was suspended,
				reset the next expected unblock time in case it referred to the
				task that is now in the Suspended state. */
				taskENTER_CRITICAL();
    2fec:	4b06      	ldr	r3, [pc, #24]	; (3008 <vTaskSuspend+0xb4>)
    2fee:	58e3      	ldr	r3, [r4, r3]
    2ff0:	4798      	blx	r3
				{
					prvResetNextTaskUnblockTime();
    2ff2:	4b11      	ldr	r3, [pc, #68]	; (3038 <vTaskSuspend+0xe4>)
    2ff4:	447b      	add	r3, pc
    2ff6:	4798      	blx	r3
				}
				taskEXIT_CRITICAL();
    2ff8:	4b08      	ldr	r3, [pc, #32]	; (301c <vTaskSuspend+0xc8>)
    2ffa:	58e3      	ldr	r3, [r4, r3]
    2ffc:	4798      	blx	r3
			else
			{
				mtCOVERAGE_TEST_MARKER();
			}
		}
	}
    2ffe:	b002      	add	sp, #8
    3000:	bd70      	pop	{r4, r5, r6, pc}
    3002:	46c0      	nop			; (mov r8, r8)
    3004:	000017cc 	.word	0x000017cc
    3008:	00000220 	.word	0x00000220
    300c:	0000003c 	.word	0x0000003c
    3010:	00000108 	.word	0x00000108
    3014:	1fffec76 	.word	0x1fffec76
    3018:	0000007c 	.word	0x0000007c
    301c:	0000000c 	.word	0x0000000c
    3020:	1fffecda 	.word	0x1fffecda
    3024:	1fffecd0 	.word	0x1fffecd0
    3028:	00000148 	.word	0x00000148
    302c:	1fffec3a 	.word	0x1fffec3a
    3030:	00000124 	.word	0x00000124
    3034:	1fffec9c 	.word	0x1fffec9c
    3038:	fffff589 	.word	0xfffff589

0000303c <vTaskPlaceOnEventList>:
	}
}
/*-----------------------------------------------------------*/

void vTaskPlaceOnEventList( List_t * const pxEventList, const TickType_t xTicksToWait )
{
    303c:	b570      	push	{r4, r5, r6, lr}
    303e:	b082      	sub	sp, #8
    3040:	1c0d      	adds	r5, r1, #0
    3042:	4c13      	ldr	r4, [pc, #76]	; (3090 <vTaskPlaceOnEventList+0x54>)
    3044:	447c      	add	r4, pc
TickType_t xTimeToWake;

	configASSERT( pxEventList );
    3046:	2800      	cmp	r0, #0
    3048:	d101      	bne.n	304e <vTaskPlaceOnEventList+0x12>
    304a:	b672      	cpsid	i
    304c:	e7fe      	b.n	304c <vTaskPlaceOnEventList+0x10>

	/* Place the event list item of the TCB in the appropriate event list.
	This is placed in the list in priority order so the highest priority task
	is the first to be woken by the event.  The queue that contains the event
	list is locked, preventing simultaneous access from interrupts. */
	vListInsert( pxEventList, &( pxCurrentTCB->xEventListItem ) );
    304e:	4b11      	ldr	r3, [pc, #68]	; (3094 <vTaskPlaceOnEventList+0x58>)
    3050:	58e6      	ldr	r6, [r4, r3]
    3052:	6831      	ldr	r1, [r6, #0]
    3054:	3118      	adds	r1, #24
    3056:	4b10      	ldr	r3, [pc, #64]	; (3098 <vTaskPlaceOnEventList+0x5c>)
    3058:	58e3      	ldr	r3, [r4, r3]
    305a:	4798      	blx	r3

	/* The task must be removed from from the ready list before it is added to
	the blocked list as the same list item is used for both lists.  Exclusive
	access to the ready lists guaranteed because the scheduler is locked. */
	if( uxListRemove( &( pxCurrentTCB->xGenericListItem ) ) == ( UBaseType_t ) 0 )
    305c:	6830      	ldr	r0, [r6, #0]
    305e:	3004      	adds	r0, #4
    3060:	4b0e      	ldr	r3, [pc, #56]	; (309c <vTaskPlaceOnEventList+0x60>)
    3062:	58e3      	ldr	r3, [r4, r3]
    3064:	4798      	blx	r3
		mtCOVERAGE_TEST_MARKER();
	}

	#if ( INCLUDE_vTaskSuspend == 1 )
	{
		if( xTicksToWait == portMAX_DELAY )
    3066:	1c6b      	adds	r3, r5, #1
    3068:	d109      	bne.n	307e <vTaskPlaceOnEventList+0x42>
		{
			/* Add the task to the suspended task list instead of a delayed task
			list to ensure the task is not woken by a timing event.  It will
			block indefinitely. */
			vListInsertEnd( &xSuspendedTaskList, &( pxCurrentTCB->xGenericListItem ) );
    306a:	4b0a      	ldr	r3, [pc, #40]	; (3094 <vTaskPlaceOnEventList+0x58>)
    306c:	58e3      	ldr	r3, [r4, r3]
    306e:	6819      	ldr	r1, [r3, #0]
    3070:	3104      	adds	r1, #4
    3072:	480b      	ldr	r0, [pc, #44]	; (30a0 <vTaskPlaceOnEventList+0x64>)
    3074:	4478      	add	r0, pc
    3076:	4b0b      	ldr	r3, [pc, #44]	; (30a4 <vTaskPlaceOnEventList+0x68>)
    3078:	58e3      	ldr	r3, [r4, r3]
    307a:	4798      	blx	r3
    307c:	e006      	b.n	308c <vTaskPlaceOnEventList+0x50>
		else
		{
			/* Calculate the time at which the task should be woken if the event
			does not occur.  This may overflow but this doesn't matter, the
			scheduler will handle it. */
			xTimeToWake = xTickCount + xTicksToWait;
    307e:	4b0a      	ldr	r3, [pc, #40]	; (30a8 <vTaskPlaceOnEventList+0x6c>)
    3080:	447b      	add	r3, pc
    3082:	6ad8      	ldr	r0, [r3, #44]	; 0x2c
    3084:	1828      	adds	r0, r5, r0
			prvAddCurrentTaskToDelayedList( xTimeToWake );
    3086:	4b09      	ldr	r3, [pc, #36]	; (30ac <vTaskPlaceOnEventList+0x70>)
    3088:	447b      	add	r3, pc
    308a:	4798      	blx	r3
			will handle it. */
			xTimeToWake = xTickCount + xTicksToWait;
			prvAddCurrentTaskToDelayedList( xTimeToWake );
	}
	#endif /* INCLUDE_vTaskSuspend */
}
    308c:	b002      	add	sp, #8
    308e:	bd70      	pop	{r4, r5, r6, pc}
    3090:	000016e4 	.word	0x000016e4
    3094:	0000003c 	.word	0x0000003c
    3098:	0000015c 	.word	0x0000015c
    309c:	00000108 	.word	0x00000108
    30a0:	1fffeb8c 	.word	0x1fffeb8c
    30a4:	0000007c 	.word	0x0000007c
    30a8:	1fffeb80 	.word	0x1fffeb80
    30ac:	fffff531 	.word	0xfffff531

000030b0 <vTaskPlaceOnEventListRestricted>:
/*-----------------------------------------------------------*/

#if configUSE_TIMERS == 1

	void vTaskPlaceOnEventListRestricted( List_t * const pxEventList, const TickType_t xTicksToWait )
	{
    30b0:	b570      	push	{r4, r5, r6, lr}
    30b2:	b082      	sub	sp, #8
    30b4:	1c0e      	adds	r6, r1, #0
    30b6:	4c0d      	ldr	r4, [pc, #52]	; (30ec <vTaskPlaceOnEventListRestricted+0x3c>)
    30b8:	447c      	add	r4, pc
	TickType_t xTimeToWake;

		configASSERT( pxEventList );
    30ba:	2800      	cmp	r0, #0
    30bc:	d101      	bne.n	30c2 <vTaskPlaceOnEventListRestricted+0x12>
    30be:	b672      	cpsid	i
    30c0:	e7fe      	b.n	30c0 <vTaskPlaceOnEventListRestricted+0x10>

		/* Place the event list item of the TCB in the appropriate event list.
		In this case it is assume that this is the only task that is going to
		be waiting on this event list, so the faster vListInsertEnd() function
		can be used in place of vListInsert. */
		vListInsertEnd( pxEventList, &( pxCurrentTCB->xEventListItem ) );
    30c2:	4b0b      	ldr	r3, [pc, #44]	; (30f0 <vTaskPlaceOnEventListRestricted+0x40>)
    30c4:	58e5      	ldr	r5, [r4, r3]
    30c6:	6829      	ldr	r1, [r5, #0]
    30c8:	3118      	adds	r1, #24
    30ca:	4b0a      	ldr	r3, [pc, #40]	; (30f4 <vTaskPlaceOnEventListRestricted+0x44>)
    30cc:	58e3      	ldr	r3, [r4, r3]
    30ce:	4798      	blx	r3

		/* We must remove this task from the ready list before adding it to the
		blocked list as the same list item is used for both lists.  This
		function is called form a critical section. */
		if( uxListRemove( &( pxCurrentTCB->xGenericListItem ) ) == ( UBaseType_t ) 0 )
    30d0:	6828      	ldr	r0, [r5, #0]
    30d2:	3004      	adds	r0, #4
    30d4:	4b08      	ldr	r3, [pc, #32]	; (30f8 <vTaskPlaceOnEventListRestricted+0x48>)
    30d6:	58e3      	ldr	r3, [r4, r3]
    30d8:	4798      	blx	r3
			mtCOVERAGE_TEST_MARKER();
		}

		/* Calculate the time at which the task should be woken if the event does
		not occur.  This may overflow but this doesn't matter. */
		xTimeToWake = xTickCount + xTicksToWait;
    30da:	4b08      	ldr	r3, [pc, #32]	; (30fc <vTaskPlaceOnEventListRestricted+0x4c>)
    30dc:	447b      	add	r3, pc
    30de:	6ad8      	ldr	r0, [r3, #44]	; 0x2c
    30e0:	1830      	adds	r0, r6, r0

		traceTASK_DELAY_UNTIL();
		prvAddCurrentTaskToDelayedList( xTimeToWake );
    30e2:	4b07      	ldr	r3, [pc, #28]	; (3100 <vTaskPlaceOnEventListRestricted+0x50>)
    30e4:	447b      	add	r3, pc
    30e6:	4798      	blx	r3
	}
    30e8:	b002      	add	sp, #8
    30ea:	bd70      	pop	{r4, r5, r6, pc}
    30ec:	00001670 	.word	0x00001670
    30f0:	0000003c 	.word	0x0000003c
    30f4:	0000007c 	.word	0x0000007c
    30f8:	00000108 	.word	0x00000108
    30fc:	1fffeb24 	.word	0x1fffeb24
    3100:	fffff4d5 	.word	0xfffff4d5

00003104 <xTaskRemoveFromEventList>:

#endif /* configUSE_TIMERS */
/*-----------------------------------------------------------*/

BaseType_t xTaskRemoveFromEventList( const List_t * const pxEventList )
{
    3104:	b570      	push	{r4, r5, r6, lr}
    3106:	b082      	sub	sp, #8
    3108:	4c21      	ldr	r4, [pc, #132]	; (3190 <xTaskRemoveFromEventList+0x8c>)
    310a:	447c      	add	r4, pc
	get called - the lock count on the queue will get modified instead.  This
	means exclusive access to the event list is guaranteed here.

	This function assumes that a check has already been made to ensure that
	pxEventList is not empty. */
	pxUnblockedTCB = ( TCB_t * ) listGET_OWNER_OF_HEAD_ENTRY( pxEventList );
    310c:	68c3      	ldr	r3, [r0, #12]
    310e:	68dd      	ldr	r5, [r3, #12]
	configASSERT( pxUnblockedTCB );
    3110:	2d00      	cmp	r5, #0
    3112:	d101      	bne.n	3118 <xTaskRemoveFromEventList+0x14>
    3114:	b672      	cpsid	i
    3116:	e7fe      	b.n	3116 <xTaskRemoveFromEventList+0x12>
	( void ) uxListRemove( &( pxUnblockedTCB->xEventListItem ) );
    3118:	1c2e      	adds	r6, r5, #0
    311a:	3618      	adds	r6, #24
    311c:	1c30      	adds	r0, r6, #0
    311e:	4b1d      	ldr	r3, [pc, #116]	; (3194 <xTaskRemoveFromEventList+0x90>)
    3120:	58e3      	ldr	r3, [r4, r3]
    3122:	4798      	blx	r3

	if( uxSchedulerSuspended == ( UBaseType_t ) pdFALSE )
    3124:	4b1c      	ldr	r3, [pc, #112]	; (3198 <xTaskRemoveFromEventList+0x94>)
    3126:	447b      	add	r3, pc
    3128:	6e9b      	ldr	r3, [r3, #104]	; 0x68
    312a:	2b00      	cmp	r3, #0
    312c:	d119      	bne.n	3162 <xTaskRemoveFromEventList+0x5e>
	{
		( void ) uxListRemove( &( pxUnblockedTCB->xGenericListItem ) );
    312e:	1d2e      	adds	r6, r5, #4
    3130:	1c30      	adds	r0, r6, #0
    3132:	4b18      	ldr	r3, [pc, #96]	; (3194 <xTaskRemoveFromEventList+0x90>)
    3134:	58e3      	ldr	r3, [r4, r3]
    3136:	4798      	blx	r3
		prvAddTaskToReadyList( pxUnblockedTCB );
    3138:	6aeb      	ldr	r3, [r5, #44]	; 0x2c
    313a:	4a18      	ldr	r2, [pc, #96]	; (319c <xTaskRemoveFromEventList+0x98>)
    313c:	447a      	add	r2, pc
    313e:	6e12      	ldr	r2, [r2, #96]	; 0x60
    3140:	4293      	cmp	r3, r2
    3142:	d902      	bls.n	314a <xTaskRemoveFromEventList+0x46>
    3144:	4a16      	ldr	r2, [pc, #88]	; (31a0 <xTaskRemoveFromEventList+0x9c>)
    3146:	447a      	add	r2, pc
    3148:	6613      	str	r3, [r2, #96]	; 0x60
    314a:	009a      	lsls	r2, r3, #2
    314c:	18d3      	adds	r3, r2, r3
    314e:	009b      	lsls	r3, r3, #2
    3150:	4814      	ldr	r0, [pc, #80]	; (31a4 <xTaskRemoveFromEventList+0xa0>)
    3152:	4478      	add	r0, pc
    3154:	3038      	adds	r0, #56	; 0x38
    3156:	18c0      	adds	r0, r0, r3
    3158:	1c31      	adds	r1, r6, #0
    315a:	4b13      	ldr	r3, [pc, #76]	; (31a8 <xTaskRemoveFromEventList+0xa4>)
    315c:	58e3      	ldr	r3, [r4, r3]
    315e:	4798      	blx	r3
    3160:	e006      	b.n	3170 <xTaskRemoveFromEventList+0x6c>
	}
	else
	{
		/* The delayed and ready lists cannot be accessed, so hold this task
		pending until the scheduler is resumed. */
		vListInsertEnd( &( xPendingReadyList ), &( pxUnblockedTCB->xEventListItem ) );
    3162:	4812      	ldr	r0, [pc, #72]	; (31ac <xTaskRemoveFromEventList+0xa8>)
    3164:	4478      	add	r0, pc
    3166:	3014      	adds	r0, #20
    3168:	1c31      	adds	r1, r6, #0
    316a:	4b0f      	ldr	r3, [pc, #60]	; (31a8 <xTaskRemoveFromEventList+0xa4>)
    316c:	58e3      	ldr	r3, [r4, r3]
    316e:	4798      	blx	r3
	}

	if( pxUnblockedTCB->uxPriority > pxCurrentTCB->uxPriority )
    3170:	4b0f      	ldr	r3, [pc, #60]	; (31b0 <xTaskRemoveFromEventList+0xac>)
    3172:	58e3      	ldr	r3, [r4, r3]
    3174:	681b      	ldr	r3, [r3, #0]
    3176:	6aea      	ldr	r2, [r5, #44]	; 0x2c
    3178:	6adb      	ldr	r3, [r3, #44]	; 0x2c
		"xHigherPriorityTaskWoken" parameter to an ISR safe FreeRTOS function. */
		xYieldPending = pdTRUE;
	}
	else
	{
		xReturn = pdFALSE;
    317a:	2000      	movs	r0, #0
		/* The delayed and ready lists cannot be accessed, so hold this task
		pending until the scheduler is resumed. */
		vListInsertEnd( &( xPendingReadyList ), &( pxUnblockedTCB->xEventListItem ) );
	}

	if( pxUnblockedTCB->uxPriority > pxCurrentTCB->uxPriority )
    317c:	429a      	cmp	r2, r3
    317e:	d904      	bls.n	318a <xTaskRemoveFromEventList+0x86>
		it should force a context switch now. */
		xReturn = pdTRUE;

		/* Mark that a yield is pending in case the user is not using the
		"xHigherPriorityTaskWoken" parameter to an ISR safe FreeRTOS function. */
		xYieldPending = pdTRUE;
    3180:	2201      	movs	r2, #1
    3182:	4b0c      	ldr	r3, [pc, #48]	; (31b4 <xTaskRemoveFromEventList+0xb0>)
    3184:	447b      	add	r3, pc
    3186:	675a      	str	r2, [r3, #116]	; 0x74
	if( pxUnblockedTCB->uxPriority > pxCurrentTCB->uxPriority )
	{
		/* Return true if the task removed from the event list has a higher
		priority than the calling task.  This allows the calling task to know if
		it should force a context switch now. */
		xReturn = pdTRUE;
    3188:	2001      	movs	r0, #1
	{
		xReturn = pdFALSE;
	}

	return xReturn;
}
    318a:	b002      	add	sp, #8
    318c:	bd70      	pop	{r4, r5, r6, pc}
    318e:	46c0      	nop			; (mov r8, r8)
    3190:	0000161e 	.word	0x0000161e
    3194:	00000108 	.word	0x00000108
    3198:	1fffeb5a 	.word	0x1fffeb5a
    319c:	1fffeb44 	.word	0x1fffeb44
    31a0:	1fffeb3a 	.word	0x1fffeb3a
    31a4:	1fffeaae 	.word	0x1fffeaae
    31a8:	0000007c 	.word	0x0000007c
    31ac:	1fffea9c 	.word	0x1fffea9c
    31b0:	0000003c 	.word	0x0000003c
    31b4:	1fffeafc 	.word	0x1fffeafc

000031b8 <vTaskSetTimeOutState>:
}
/*-----------------------------------------------------------*/

void vTaskSetTimeOutState( TimeOut_t * const pxTimeOut )
{
	configASSERT( pxTimeOut );
    31b8:	2800      	cmp	r0, #0
    31ba:	d101      	bne.n	31c0 <vTaskSetTimeOutState+0x8>
    31bc:	b672      	cpsid	i
    31be:	e7fe      	b.n	31be <vTaskSetTimeOutState+0x6>
	pxTimeOut->xOverflowCount = xNumOfOverflows;
    31c0:	4b04      	ldr	r3, [pc, #16]	; (31d4 <vTaskSetTimeOutState+0x1c>)
    31c2:	447b      	add	r3, pc
    31c4:	6edb      	ldr	r3, [r3, #108]	; 0x6c
    31c6:	6003      	str	r3, [r0, #0]
	pxTimeOut->xTimeOnEntering = xTickCount;
    31c8:	4b03      	ldr	r3, [pc, #12]	; (31d8 <vTaskSetTimeOutState+0x20>)
    31ca:	447b      	add	r3, pc
    31cc:	6adb      	ldr	r3, [r3, #44]	; 0x2c
    31ce:	6043      	str	r3, [r0, #4]
}
    31d0:	4770      	bx	lr
    31d2:	46c0      	nop			; (mov r8, r8)
    31d4:	1fffeabe 	.word	0x1fffeabe
    31d8:	1fffea36 	.word	0x1fffea36

000031dc <xTaskCheckForTimeOut>:
/*-----------------------------------------------------------*/

BaseType_t xTaskCheckForTimeOut( TimeOut_t * const pxTimeOut, TickType_t * const pxTicksToWait )
{
    31dc:	b5f0      	push	{r4, r5, r6, r7, lr}
    31de:	b083      	sub	sp, #12
    31e0:	1c04      	adds	r4, r0, #0
    31e2:	1c0f      	adds	r7, r1, #0
    31e4:	4e18      	ldr	r6, [pc, #96]	; (3248 <xTaskCheckForTimeOut+0x6c>)
    31e6:	447e      	add	r6, pc
BaseType_t xReturn;

	configASSERT( pxTimeOut );
    31e8:	2800      	cmp	r0, #0
    31ea:	d101      	bne.n	31f0 <xTaskCheckForTimeOut+0x14>
    31ec:	b672      	cpsid	i
    31ee:	e7fe      	b.n	31ee <xTaskCheckForTimeOut+0x12>
	configASSERT( pxTicksToWait );
    31f0:	2900      	cmp	r1, #0
    31f2:	d101      	bne.n	31f8 <xTaskCheckForTimeOut+0x1c>
    31f4:	b672      	cpsid	i
    31f6:	e7fe      	b.n	31f6 <xTaskCheckForTimeOut+0x1a>

	taskENTER_CRITICAL();
    31f8:	4b14      	ldr	r3, [pc, #80]	; (324c <xTaskCheckForTimeOut+0x70>)
    31fa:	58f3      	ldr	r3, [r6, r3]
    31fc:	4798      	blx	r3
	{
		/* Minor optimisation.  The tick count cannot change in this block. */
		const TickType_t xConstTickCount = xTickCount;
    31fe:	4b14      	ldr	r3, [pc, #80]	; (3250 <xTaskCheckForTimeOut+0x74>)
    3200:	447b      	add	r3, pc
    3202:	6ada      	ldr	r2, [r3, #44]	; 0x2c

		#if ( INCLUDE_vTaskSuspend == 1 )
			/* If INCLUDE_vTaskSuspend is set to 1 and the block time specified is
			the maximum block time then the task should block indefinitely, and
			therefore never time out. */
			if( *pxTicksToWait == portMAX_DELAY )
    3204:	683b      	ldr	r3, [r7, #0]
    3206:	1c58      	adds	r0, r3, #1
    3208:	d017      	beq.n	323a <xTaskCheckForTimeOut+0x5e>
				xReturn = pdFALSE;
			}
			else /* We are not blocking indefinitely, perform the checks below. */
		#endif

		if( ( xNumOfOverflows != pxTimeOut->xOverflowCount ) && ( xConstTickCount >= pxTimeOut->xTimeOnEntering ) ) /*lint !e525 Indentation preferred as is to make code within pre-processor directives clearer. */
    320a:	4912      	ldr	r1, [pc, #72]	; (3254 <xTaskCheckForTimeOut+0x78>)
    320c:	4479      	add	r1, pc
    320e:	6ec9      	ldr	r1, [r1, #108]	; 0x6c
    3210:	6820      	ldr	r0, [r4, #0]
    3212:	4288      	cmp	r0, r1
    3214:	d003      	beq.n	321e <xTaskCheckForTimeOut+0x42>
		{
			/* The tick count is greater than the time at which vTaskSetTimeout()
			was called, but has also overflowed since vTaskSetTimeOut() was called.
			It must have wrapped all the way around and gone past us again. This
			passed since vTaskSetTimeout() was called. */
			xReturn = pdTRUE;
    3216:	2501      	movs	r5, #1
				xReturn = pdFALSE;
			}
			else /* We are not blocking indefinitely, perform the checks below. */
		#endif

		if( ( xNumOfOverflows != pxTimeOut->xOverflowCount ) && ( xConstTickCount >= pxTimeOut->xTimeOnEntering ) ) /*lint !e525 Indentation preferred as is to make code within pre-processor directives clearer. */
    3218:	6861      	ldr	r1, [r4, #4]
    321a:	428a      	cmp	r2, r1
    321c:	d20e      	bcs.n	323c <xTaskCheckForTimeOut+0x60>
			was called, but has also overflowed since vTaskSetTimeOut() was called.
			It must have wrapped all the way around and gone past us again. This
			passed since vTaskSetTimeout() was called. */
			xReturn = pdTRUE;
		}
		else if( ( xConstTickCount - pxTimeOut->xTimeOnEntering ) < *pxTicksToWait )
    321e:	6861      	ldr	r1, [r4, #4]
    3220:	1a50      	subs	r0, r2, r1
			vTaskSetTimeOutState( pxTimeOut );
			xReturn = pdFALSE;
		}
		else
		{
			xReturn = pdTRUE;
    3222:	2501      	movs	r5, #1
			was called, but has also overflowed since vTaskSetTimeOut() was called.
			It must have wrapped all the way around and gone past us again. This
			passed since vTaskSetTimeout() was called. */
			xReturn = pdTRUE;
		}
		else if( ( xConstTickCount - pxTimeOut->xTimeOnEntering ) < *pxTicksToWait )
    3224:	4283      	cmp	r3, r0
    3226:	d909      	bls.n	323c <xTaskCheckForTimeOut+0x60>
		{
			/* Not a genuine timeout. Adjust parameters for time remaining. */
			*pxTicksToWait -= ( xConstTickCount -  pxTimeOut->xTimeOnEntering );
    3228:	1a8a      	subs	r2, r1, r2
    322a:	18d3      	adds	r3, r2, r3
    322c:	603b      	str	r3, [r7, #0]
			vTaskSetTimeOutState( pxTimeOut );
    322e:	1c20      	adds	r0, r4, #0
    3230:	4b09      	ldr	r3, [pc, #36]	; (3258 <xTaskCheckForTimeOut+0x7c>)
    3232:	58f3      	ldr	r3, [r6, r3]
    3234:	4798      	blx	r3
			xReturn = pdFALSE;
    3236:	2500      	movs	r5, #0
    3238:	e000      	b.n	323c <xTaskCheckForTimeOut+0x60>
			/* If INCLUDE_vTaskSuspend is set to 1 and the block time specified is
			the maximum block time then the task should block indefinitely, and
			therefore never time out. */
			if( *pxTicksToWait == portMAX_DELAY )
			{
				xReturn = pdFALSE;
    323a:	2500      	movs	r5, #0
		else
		{
			xReturn = pdTRUE;
		}
	}
	taskEXIT_CRITICAL();
    323c:	4b07      	ldr	r3, [pc, #28]	; (325c <xTaskCheckForTimeOut+0x80>)
    323e:	58f3      	ldr	r3, [r6, r3]
    3240:	4798      	blx	r3

	return xReturn;
}
    3242:	1c28      	adds	r0, r5, #0
    3244:	b003      	add	sp, #12
    3246:	bdf0      	pop	{r4, r5, r6, r7, pc}
    3248:	00001542 	.word	0x00001542
    324c:	00000220 	.word	0x00000220
    3250:	1fffea00 	.word	0x1fffea00
    3254:	1fffea74 	.word	0x1fffea74
    3258:	0000021c 	.word	0x0000021c
    325c:	0000000c 	.word	0x0000000c

00003260 <vTaskMissedYield>:
/*-----------------------------------------------------------*/

void vTaskMissedYield( void )
{
	xYieldPending = pdTRUE;
    3260:	2201      	movs	r2, #1
    3262:	4b02      	ldr	r3, [pc, #8]	; (326c <vTaskMissedYield+0xc>)
    3264:	447b      	add	r3, pc
    3266:	675a      	str	r2, [r3, #116]	; 0x74
}
    3268:	4770      	bx	lr
    326a:	46c0      	nop			; (mov r8, r8)
    326c:	1fffea1c 	.word	0x1fffea1c

00003270 <xTaskGetCurrentTaskHandle>:
/*-----------------------------------------------------------*/

#if ( ( INCLUDE_xTaskGetCurrentTaskHandle == 1 ) || ( configUSE_MUTEXES == 1 ) )

	TaskHandle_t xTaskGetCurrentTaskHandle( void )
	{
    3270:	4b02      	ldr	r3, [pc, #8]	; (327c <xTaskGetCurrentTaskHandle+0xc>)
    3272:	447b      	add	r3, pc
	TaskHandle_t xReturn;

		/* A critical section is not required as this is not called from
		an interrupt and the current TCB will always be the same for any
		individual execution thread. */
		xReturn = pxCurrentTCB;
    3274:	4a02      	ldr	r2, [pc, #8]	; (3280 <xTaskGetCurrentTaskHandle+0x10>)
    3276:	589b      	ldr	r3, [r3, r2]
    3278:	6818      	ldr	r0, [r3, #0]

		return xReturn;
	}
    327a:	4770      	bx	lr
    327c:	000014b6 	.word	0x000014b6
    3280:	0000003c 	.word	0x0000003c

00003284 <xTaskGetSchedulerState>:

	BaseType_t xTaskGetSchedulerState( void )
	{
	BaseType_t xReturn;

		if( xSchedulerRunning == pdFALSE )
    3284:	4b06      	ldr	r3, [pc, #24]	; (32a0 <xTaskGetSchedulerState+0x1c>)
    3286:	447b      	add	r3, pc
    3288:	6d9b      	ldr	r3, [r3, #88]	; 0x58
		{
			xReturn = taskSCHEDULER_NOT_STARTED;
    328a:	2001      	movs	r0, #1

	BaseType_t xTaskGetSchedulerState( void )
	{
	BaseType_t xReturn;

		if( xSchedulerRunning == pdFALSE )
    328c:	2b00      	cmp	r3, #0
    328e:	d005      	beq.n	329c <xTaskGetSchedulerState+0x18>
		{
			xReturn = taskSCHEDULER_NOT_STARTED;
		}
		else
		{
			if( uxSchedulerSuspended == ( UBaseType_t ) pdFALSE )
    3290:	4b04      	ldr	r3, [pc, #16]	; (32a4 <xTaskGetSchedulerState+0x20>)
    3292:	447b      	add	r3, pc
    3294:	6e98      	ldr	r0, [r3, #104]	; 0x68
			{
				xReturn = taskSCHEDULER_RUNNING;
    3296:	4243      	negs	r3, r0
    3298:	4158      	adcs	r0, r3
    329a:	0040      	lsls	r0, r0, #1
				xReturn = taskSCHEDULER_SUSPENDED;
			}
		}

		return xReturn;
	}
    329c:	4770      	bx	lr
    329e:	46c0      	nop			; (mov r8, r8)
    32a0:	1fffe9fa 	.word	0x1fffe9fa
    32a4:	1fffe9ee 	.word	0x1fffe9ee

000032a8 <vTaskPriorityInherit>:
/*-----------------------------------------------------------*/

#if ( configUSE_MUTEXES == 1 )

	void vTaskPriorityInherit( TaskHandle_t const pxMutexHolder )
	{
    32a8:	b570      	push	{r4, r5, r6, lr}
    32aa:	b082      	sub	sp, #8
    32ac:	1c04      	adds	r4, r0, #0
    32ae:	4d22      	ldr	r5, [pc, #136]	; (3338 <vTaskPriorityInherit+0x90>)
    32b0:	447d      	add	r5, pc
	TCB_t * const pxTCB = ( TCB_t * ) pxMutexHolder;

		/* If the mutex was given back by an interrupt while the queue was
		locked then the mutex holder might now be NULL. */
		if( pxMutexHolder != NULL )
    32b2:	2800      	cmp	r0, #0
    32b4:	d03d      	beq.n	3332 <vTaskPriorityInherit+0x8a>
		{
			if( pxTCB->uxPriority < pxCurrentTCB->uxPriority )
    32b6:	6ac3      	ldr	r3, [r0, #44]	; 0x2c
    32b8:	4a20      	ldr	r2, [pc, #128]	; (333c <vTaskPriorityInherit+0x94>)
    32ba:	58aa      	ldr	r2, [r5, r2]
    32bc:	6812      	ldr	r2, [r2, #0]
    32be:	6ad2      	ldr	r2, [r2, #44]	; 0x2c
    32c0:	4293      	cmp	r3, r2
    32c2:	d236      	bcs.n	3332 <vTaskPriorityInherit+0x8a>
			{
				/* Adjust the mutex holder state to account for its new
				priority.  Only reset the event list item value if the value is
				not	being used for anything else. */
				if( ( listGET_LIST_ITEM_VALUE( &( pxTCB->xEventListItem ) ) & taskEVENT_LIST_ITEM_VALUE_IN_USE ) == 0UL )
    32c4:	6982      	ldr	r2, [r0, #24]
    32c6:	2a00      	cmp	r2, #0
    32c8:	db06      	blt.n	32d8 <vTaskPriorityInherit+0x30>
				{
					listSET_LIST_ITEM_VALUE( &( pxTCB->xEventListItem ), ( TickType_t ) configMAX_PRIORITIES - ( TickType_t ) pxCurrentTCB->uxPriority ); /*lint !e961 MISRA exception as the casts are only redundant for some ports. */
    32ca:	4a1c      	ldr	r2, [pc, #112]	; (333c <vTaskPriorityInherit+0x94>)
    32cc:	58aa      	ldr	r2, [r5, r2]
    32ce:	6812      	ldr	r2, [r2, #0]
    32d0:	6ad2      	ldr	r2, [r2, #44]	; 0x2c
    32d2:	2105      	movs	r1, #5
    32d4:	1a8a      	subs	r2, r1, r2
    32d6:	6182      	str	r2, [r0, #24]
					mtCOVERAGE_TEST_MARKER();
				}

				/* If the task being modified is in the ready state it will need to
				be moved into a new list. */
				if( listIS_CONTAINED_WITHIN( &( pxReadyTasksLists[ pxTCB->uxPriority ] ), &( pxTCB->xGenericListItem ) ) != pdFALSE )
    32d8:	009a      	lsls	r2, r3, #2
    32da:	18d3      	adds	r3, r2, r3
    32dc:	009b      	lsls	r3, r3, #2
    32de:	4a18      	ldr	r2, [pc, #96]	; (3340 <vTaskPriorityInherit+0x98>)
    32e0:	447a      	add	r2, pc
    32e2:	3238      	adds	r2, #56	; 0x38
    32e4:	18d3      	adds	r3, r2, r3
    32e6:	6962      	ldr	r2, [r4, #20]
    32e8:	429a      	cmp	r2, r3
    32ea:	d11d      	bne.n	3328 <vTaskPriorityInherit+0x80>
				{
					if( uxListRemove( &( pxTCB->xGenericListItem ) ) == ( UBaseType_t ) 0 )
    32ec:	1d26      	adds	r6, r4, #4
    32ee:	1c30      	adds	r0, r6, #0
    32f0:	4b14      	ldr	r3, [pc, #80]	; (3344 <vTaskPriorityInherit+0x9c>)
    32f2:	58eb      	ldr	r3, [r5, r3]
    32f4:	4798      	blx	r3
					{
						mtCOVERAGE_TEST_MARKER();
					}

					/* Inherit the priority before being moved into the new list. */
					pxTCB->uxPriority = pxCurrentTCB->uxPriority;
    32f6:	4b11      	ldr	r3, [pc, #68]	; (333c <vTaskPriorityInherit+0x94>)
    32f8:	58eb      	ldr	r3, [r5, r3]
    32fa:	681b      	ldr	r3, [r3, #0]
    32fc:	6adb      	ldr	r3, [r3, #44]	; 0x2c
    32fe:	62e3      	str	r3, [r4, #44]	; 0x2c
					prvAddTaskToReadyList( pxTCB );
    3300:	4a11      	ldr	r2, [pc, #68]	; (3348 <vTaskPriorityInherit+0xa0>)
    3302:	447a      	add	r2, pc
    3304:	6e12      	ldr	r2, [r2, #96]	; 0x60
    3306:	4293      	cmp	r3, r2
    3308:	d902      	bls.n	3310 <vTaskPriorityInherit+0x68>
    330a:	4a10      	ldr	r2, [pc, #64]	; (334c <vTaskPriorityInherit+0xa4>)
    330c:	447a      	add	r2, pc
    330e:	6613      	str	r3, [r2, #96]	; 0x60
    3310:	0098      	lsls	r0, r3, #2
    3312:	18c3      	adds	r3, r0, r3
    3314:	009b      	lsls	r3, r3, #2
    3316:	480e      	ldr	r0, [pc, #56]	; (3350 <vTaskPriorityInherit+0xa8>)
    3318:	4478      	add	r0, pc
    331a:	3038      	adds	r0, #56	; 0x38
    331c:	18c0      	adds	r0, r0, r3
    331e:	1c31      	adds	r1, r6, #0
    3320:	4b0c      	ldr	r3, [pc, #48]	; (3354 <vTaskPriorityInherit+0xac>)
    3322:	58eb      	ldr	r3, [r5, r3]
    3324:	4798      	blx	r3
    3326:	e004      	b.n	3332 <vTaskPriorityInherit+0x8a>
				}
				else
				{
					/* Just inherit the priority. */
					pxTCB->uxPriority = pxCurrentTCB->uxPriority;
    3328:	4b04      	ldr	r3, [pc, #16]	; (333c <vTaskPriorityInherit+0x94>)
    332a:	58eb      	ldr	r3, [r5, r3]
    332c:	681b      	ldr	r3, [r3, #0]
    332e:	6adb      	ldr	r3, [r3, #44]	; 0x2c
    3330:	62e3      	str	r3, [r4, #44]	; 0x2c
		}
		else
		{
			mtCOVERAGE_TEST_MARKER();
		}
	}
    3332:	b002      	add	sp, #8
    3334:	bd70      	pop	{r4, r5, r6, pc}
    3336:	46c0      	nop			; (mov r8, r8)
    3338:	00001478 	.word	0x00001478
    333c:	0000003c 	.word	0x0000003c
    3340:	1fffe920 	.word	0x1fffe920
    3344:	00000108 	.word	0x00000108
    3348:	1fffe97e 	.word	0x1fffe97e
    334c:	1fffe974 	.word	0x1fffe974
    3350:	1fffe8e8 	.word	0x1fffe8e8
    3354:	0000007c 	.word	0x0000007c

00003358 <vTaskPriorityDisinherit>:
/*-----------------------------------------------------------*/

#if ( configUSE_MUTEXES == 1 )

	void vTaskPriorityDisinherit( TaskHandle_t const pxMutexHolder )
	{
    3358:	b570      	push	{r4, r5, r6, lr}
    335a:	b082      	sub	sp, #8
    335c:	1c04      	adds	r4, r0, #0
    335e:	4d15      	ldr	r5, [pc, #84]	; (33b4 <vTaskPriorityDisinherit+0x5c>)
    3360:	447d      	add	r5, pc
	TCB_t * const pxTCB = ( TCB_t * ) pxMutexHolder;

		if( pxMutexHolder != NULL )
    3362:	2800      	cmp	r0, #0
    3364:	d023      	beq.n	33ae <vTaskPriorityDisinherit+0x56>
		{
			if( pxTCB->uxPriority != pxTCB->uxBasePriority )
    3366:	6ac2      	ldr	r2, [r0, #44]	; 0x2c
    3368:	6bc3      	ldr	r3, [r0, #60]	; 0x3c
    336a:	429a      	cmp	r2, r3
    336c:	d01f      	beq.n	33ae <vTaskPriorityDisinherit+0x56>
			{
				/* We must be the running task to be able to give the mutex back.
				Remove ourselves from the ready list we currently appear in. */
				if( uxListRemove( &( pxTCB->xGenericListItem ) ) == ( UBaseType_t ) 0 )
    336e:	1d06      	adds	r6, r0, #4
    3370:	1c30      	adds	r0, r6, #0
    3372:	4b11      	ldr	r3, [pc, #68]	; (33b8 <vTaskPriorityDisinherit+0x60>)
    3374:	58eb      	ldr	r3, [r5, r3]
    3376:	4798      	blx	r3
				}

				/* Disinherit the priority before adding the task into the new
				ready list. */
				traceTASK_PRIORITY_DISINHERIT( pxTCB, pxTCB->uxBasePriority );
				pxTCB->uxPriority = pxTCB->uxBasePriority;
    3378:	6be3      	ldr	r3, [r4, #60]	; 0x3c
    337a:	62e3      	str	r3, [r4, #44]	; 0x2c

				/* Only reset the event list item value if the value is not
				being used for anything else. */
				if( ( listGET_LIST_ITEM_VALUE( &( pxTCB->xEventListItem ) ) & taskEVENT_LIST_ITEM_VALUE_IN_USE ) == 0UL )
    337c:	69a2      	ldr	r2, [r4, #24]
    337e:	2a00      	cmp	r2, #0
    3380:	db02      	blt.n	3388 <vTaskPriorityDisinherit+0x30>
				{
					listSET_LIST_ITEM_VALUE( &( pxTCB->xEventListItem ), ( TickType_t ) configMAX_PRIORITIES - ( TickType_t ) pxTCB->uxPriority ); /*lint !e961 MISRA exception as the casts are only redundant for some ports. */
    3382:	2205      	movs	r2, #5
    3384:	1ad2      	subs	r2, r2, r3
    3386:	61a2      	str	r2, [r4, #24]
				}
				else
				{
					mtCOVERAGE_TEST_MARKER();
				}
				prvAddTaskToReadyList( pxTCB );
    3388:	4a0c      	ldr	r2, [pc, #48]	; (33bc <vTaskPriorityDisinherit+0x64>)
    338a:	447a      	add	r2, pc
    338c:	6e12      	ldr	r2, [r2, #96]	; 0x60
    338e:	4293      	cmp	r3, r2
    3390:	d902      	bls.n	3398 <vTaskPriorityDisinherit+0x40>
    3392:	4a0b      	ldr	r2, [pc, #44]	; (33c0 <vTaskPriorityDisinherit+0x68>)
    3394:	447a      	add	r2, pc
    3396:	6613      	str	r3, [r2, #96]	; 0x60
    3398:	0098      	lsls	r0, r3, #2
    339a:	18c3      	adds	r3, r0, r3
    339c:	009b      	lsls	r3, r3, #2
    339e:	4809      	ldr	r0, [pc, #36]	; (33c4 <vTaskPriorityDisinherit+0x6c>)
    33a0:	4478      	add	r0, pc
    33a2:	3038      	adds	r0, #56	; 0x38
    33a4:	18c0      	adds	r0, r0, r3
    33a6:	1c31      	adds	r1, r6, #0
    33a8:	4b07      	ldr	r3, [pc, #28]	; (33c8 <vTaskPriorityDisinherit+0x70>)
    33aa:	58eb      	ldr	r3, [r5, r3]
    33ac:	4798      	blx	r3
		}
		else
		{
			mtCOVERAGE_TEST_MARKER();
		}
	}
    33ae:	b002      	add	sp, #8
    33b0:	bd70      	pop	{r4, r5, r6, pc}
    33b2:	46c0      	nop			; (mov r8, r8)
    33b4:	000013c8 	.word	0x000013c8
    33b8:	00000108 	.word	0x00000108
    33bc:	1fffe8f6 	.word	0x1fffe8f6
    33c0:	1fffe8ec 	.word	0x1fffe8ec
    33c4:	1fffe860 	.word	0x1fffe860
    33c8:	0000007c 	.word	0x0000007c

000033cc <prvInsertTimerInActiveList>:
	return xTimeNow;
}
/*-----------------------------------------------------------*/

static BaseType_t prvInsertTimerInActiveList( Timer_t * const pxTimer, const TickType_t xNextExpiryTime, const TickType_t xTimeNow, const TickType_t xCommandTime )
{
    33cc:	b530      	push	{r4, r5, lr}
    33ce:	b083      	sub	sp, #12
    33d0:	1c04      	adds	r4, r0, #0
    33d2:	4d11      	ldr	r5, [pc, #68]	; (3418 <prvInsertTimerInActiveList+0x4c>)
    33d4:	447d      	add	r5, pc
BaseType_t xProcessTimerNow = pdFALSE;

	listSET_LIST_ITEM_VALUE( &( pxTimer->xTimerListItem ), xNextExpiryTime );
    33d6:	6041      	str	r1, [r0, #4]
	listSET_LIST_ITEM_OWNER( &( pxTimer->xTimerListItem ), pxTimer );
    33d8:	6120      	str	r0, [r4, #16]

	if( xNextExpiryTime <= xTimeNow )
    33da:	4291      	cmp	r1, r2
    33dc:	d80d      	bhi.n	33fa <prvInsertTimerInActiveList+0x2e>
	{
		/* Has the expiry time elapsed between the command to start/reset a
		timer was issued, and the time the command was processed? */
		if( ( xTimeNow - xCommandTime ) >= pxTimer->xTimerPeriodInTicks )
    33de:	1ad2      	subs	r2, r2, r3
		{
			/* The time between a command being issued and the command being
			processed actually exceeds the timers period.  */
			xProcessTimerNow = pdTRUE;
    33e0:	2001      	movs	r0, #1

	if( xNextExpiryTime <= xTimeNow )
	{
		/* Has the expiry time elapsed between the command to start/reset a
		timer was issued, and the time the command was processed? */
		if( ( xTimeNow - xCommandTime ) >= pxTimer->xTimerPeriodInTicks )
    33e2:	69a3      	ldr	r3, [r4, #24]
    33e4:	429a      	cmp	r2, r3
    33e6:	d215      	bcs.n	3414 <prvInsertTimerInActiveList+0x48>
			processed actually exceeds the timers period.  */
			xProcessTimerNow = pdTRUE;
		}
		else
		{
			vListInsert( pxOverflowTimerList, &( pxTimer->xTimerListItem ) );
    33e8:	4b0c      	ldr	r3, [pc, #48]	; (341c <prvInsertTimerInActiveList+0x50>)
    33ea:	447b      	add	r3, pc
    33ec:	6818      	ldr	r0, [r3, #0]
    33ee:	1d21      	adds	r1, r4, #4
    33f0:	4b0b      	ldr	r3, [pc, #44]	; (3420 <prvInsertTimerInActiveList+0x54>)
    33f2:	58eb      	ldr	r3, [r5, r3]
    33f4:	4798      	blx	r3
}
/*-----------------------------------------------------------*/

static BaseType_t prvInsertTimerInActiveList( Timer_t * const pxTimer, const TickType_t xNextExpiryTime, const TickType_t xTimeNow, const TickType_t xCommandTime )
{
BaseType_t xProcessTimerNow = pdFALSE;
    33f6:	2000      	movs	r0, #0
    33f8:	e00c      	b.n	3414 <prvInsertTimerInActiveList+0x48>
			vListInsert( pxOverflowTimerList, &( pxTimer->xTimerListItem ) );
		}
	}
	else
	{
		if( ( xTimeNow < xCommandTime ) && ( xNextExpiryTime >= xCommandTime ) )
    33fa:	429a      	cmp	r2, r3
    33fc:	d202      	bcs.n	3404 <prvInsertTimerInActiveList+0x38>
		{
			/* If, since the command was issued, the tick count has overflowed
			but the expiry time has not, then the timer must have already passed
			its expiry time and should be processed immediately. */
			xProcessTimerNow = pdTRUE;
    33fe:	2001      	movs	r0, #1
			vListInsert( pxOverflowTimerList, &( pxTimer->xTimerListItem ) );
		}
	}
	else
	{
		if( ( xTimeNow < xCommandTime ) && ( xNextExpiryTime >= xCommandTime ) )
    3400:	4299      	cmp	r1, r3
    3402:	d207      	bcs.n	3414 <prvInsertTimerInActiveList+0x48>
			its expiry time and should be processed immediately. */
			xProcessTimerNow = pdTRUE;
		}
		else
		{
			vListInsert( pxCurrentTimerList, &( pxTimer->xTimerListItem ) );
    3404:	4b07      	ldr	r3, [pc, #28]	; (3424 <prvInsertTimerInActiveList+0x58>)
    3406:	447b      	add	r3, pc
    3408:	6858      	ldr	r0, [r3, #4]
    340a:	1d21      	adds	r1, r4, #4
    340c:	4b04      	ldr	r3, [pc, #16]	; (3420 <prvInsertTimerInActiveList+0x54>)
    340e:	58eb      	ldr	r3, [r5, r3]
    3410:	4798      	blx	r3
}
/*-----------------------------------------------------------*/

static BaseType_t prvInsertTimerInActiveList( Timer_t * const pxTimer, const TickType_t xNextExpiryTime, const TickType_t xTimeNow, const TickType_t xCommandTime )
{
BaseType_t xProcessTimerNow = pdFALSE;
    3412:	2000      	movs	r0, #0
			vListInsert( pxCurrentTimerList, &( pxTimer->xTimerListItem ) );
		}
	}

	return xProcessTimerNow;
}
    3414:	b003      	add	sp, #12
    3416:	bd30      	pop	{r4, r5, pc}
    3418:	00001354 	.word	0x00001354
    341c:	1fffe912 	.word	0x1fffe912
    3420:	0000015c 	.word	0x0000015c
    3424:	1fffe8f6 	.word	0x1fffe8f6

00003428 <prvCheckForValidListAndQueue>:
	pxOverflowTimerList = pxTemp;
}
/*-----------------------------------------------------------*/

static void prvCheckForValidListAndQueue( void )
{
    3428:	b5f0      	push	{r4, r5, r6, r7, lr}
    342a:	b083      	sub	sp, #12
    342c:	4c16      	ldr	r4, [pc, #88]	; (3488 <prvCheckForValidListAndQueue+0x60>)
    342e:	447c      	add	r4, pc
	/* Check that the list from which active timers are referenced, and the
	queue used to communicate with the timer service, have been
	initialised. */
	taskENTER_CRITICAL();
    3430:	4b16      	ldr	r3, [pc, #88]	; (348c <prvCheckForValidListAndQueue+0x64>)
    3432:	58e3      	ldr	r3, [r4, r3]
    3434:	4798      	blx	r3
	{
		if( xTimerQueue == NULL )
    3436:	4b16      	ldr	r3, [pc, #88]	; (3490 <prvCheckForValidListAndQueue+0x68>)
    3438:	447b      	add	r3, pc
    343a:	689b      	ldr	r3, [r3, #8]
    343c:	2b00      	cmp	r3, #0
    343e:	d11d      	bne.n	347c <prvCheckForValidListAndQueue+0x54>
		{
			vListInitialise( &xActiveTimerList1 );
    3440:	4d14      	ldr	r5, [pc, #80]	; (3494 <prvCheckForValidListAndQueue+0x6c>)
    3442:	447d      	add	r5, pc
    3444:	1c2e      	adds	r6, r5, #0
    3446:	360c      	adds	r6, #12
    3448:	1c30      	adds	r0, r6, #0
    344a:	4b13      	ldr	r3, [pc, #76]	; (3498 <prvCheckForValidListAndQueue+0x70>)
    344c:	58e3      	ldr	r3, [r4, r3]
    344e:	9301      	str	r3, [sp, #4]
    3450:	4798      	blx	r3
			vListInitialise( &xActiveTimerList2 );
    3452:	1c2f      	adds	r7, r5, #0
    3454:	3720      	adds	r7, #32
    3456:	1c38      	adds	r0, r7, #0
    3458:	9b01      	ldr	r3, [sp, #4]
    345a:	4798      	blx	r3
			pxCurrentTimerList = &xActiveTimerList1;
    345c:	606e      	str	r6, [r5, #4]
			pxOverflowTimerList = &xActiveTimerList2;
    345e:	602f      	str	r7, [r5, #0]
			xTimerQueue = xQueueCreate( ( UBaseType_t ) configTIMER_QUEUE_LENGTH, sizeof( DaemonTaskMessage_t ) );
    3460:	2002      	movs	r0, #2
    3462:	210c      	movs	r1, #12
    3464:	2200      	movs	r2, #0
    3466:	4b0d      	ldr	r3, [pc, #52]	; (349c <prvCheckForValidListAndQueue+0x74>)
    3468:	58e3      	ldr	r3, [r4, r3]
    346a:	4798      	blx	r3
			configASSERT( xTimerQueue );
    346c:	2800      	cmp	r0, #0
    346e:	d003      	beq.n	3478 <prvCheckForValidListAndQueue+0x50>
		{
			vListInitialise( &xActiveTimerList1 );
			vListInitialise( &xActiveTimerList2 );
			pxCurrentTimerList = &xActiveTimerList1;
			pxOverflowTimerList = &xActiveTimerList2;
			xTimerQueue = xQueueCreate( ( UBaseType_t ) configTIMER_QUEUE_LENGTH, sizeof( DaemonTaskMessage_t ) );
    3470:	4b0b      	ldr	r3, [pc, #44]	; (34a0 <prvCheckForValidListAndQueue+0x78>)
    3472:	447b      	add	r3, pc
    3474:	6098      	str	r0, [r3, #8]
    3476:	e001      	b.n	347c <prvCheckForValidListAndQueue+0x54>
			configASSERT( xTimerQueue );
    3478:	b672      	cpsid	i
    347a:	e7fe      	b.n	347a <prvCheckForValidListAndQueue+0x52>
		else
		{
			mtCOVERAGE_TEST_MARKER();
		}
	}
	taskEXIT_CRITICAL();
    347c:	4b09      	ldr	r3, [pc, #36]	; (34a4 <prvCheckForValidListAndQueue+0x7c>)
    347e:	58e3      	ldr	r3, [r4, r3]
    3480:	4798      	blx	r3
}
    3482:	b003      	add	sp, #12
    3484:	bdf0      	pop	{r4, r5, r6, r7, pc}
    3486:	46c0      	nop			; (mov r8, r8)
    3488:	000012fa 	.word	0x000012fa
    348c:	00000220 	.word	0x00000220
    3490:	1fffe8c4 	.word	0x1fffe8c4
    3494:	1fffe8ba 	.word	0x1fffe8ba
    3498:	000000b8 	.word	0x000000b8
    349c:	0000017c 	.word	0x0000017c
    34a0:	1fffe88a 	.word	0x1fffe88a
    34a4:	0000000c 	.word	0x0000000c

000034a8 <xTimerCreateTimerTask>:
static void prvProcessTimerOrBlockTask( const TickType_t xNextExpireTime, const BaseType_t xListWasEmpty ) PRIVILEGED_FUNCTION;

/*-----------------------------------------------------------*/

BaseType_t xTimerCreateTimerTask( void )
{
    34a8:	b530      	push	{r4, r5, lr}
    34aa:	b087      	sub	sp, #28
    34ac:	4c0f      	ldr	r4, [pc, #60]	; (34ec <xTimerCreateTimerTask+0x44>)
    34ae:	447c      	add	r4, pc

	/* This function is called when the scheduler is started if
	configUSE_TIMERS is set to 1.  Check that the infrastructure used by the
	timer service task has been created/initialised.  If timers have already
	been created then the initialisation will already have been performed. */
	prvCheckForValidListAndQueue();
    34b0:	4b0f      	ldr	r3, [pc, #60]	; (34f0 <xTimerCreateTimerTask+0x48>)
    34b2:	447b      	add	r3, pc
    34b4:	4798      	blx	r3

	if( xTimerQueue != NULL )
    34b6:	4b0f      	ldr	r3, [pc, #60]	; (34f4 <xTimerCreateTimerTask+0x4c>)
    34b8:	447b      	add	r3, pc
    34ba:	689b      	ldr	r3, [r3, #8]
    34bc:	2b00      	cmp	r3, #0
    34be:	d010      	beq.n	34e2 <xTimerCreateTimerTask+0x3a>
			xReturn = xTaskCreate( prvTimerTask, "Tmr Svc", ( uint16_t ) configTIMER_TASK_STACK_DEPTH, NULL, ( ( UBaseType_t ) configTIMER_TASK_PRIORITY ) | portPRIVILEGE_BIT, &xTimerTaskHandle );
		}
		#else
		{
			/* Create the timer task without storing its handle. */
			xReturn = xTaskCreate( prvTimerTask, "Tmr Svc", ( uint16_t ) configTIMER_TASK_STACK_DEPTH, NULL, ( ( UBaseType_t ) configTIMER_TASK_PRIORITY ) | portPRIVILEGE_BIT, NULL);
    34c0:	2302      	movs	r3, #2
    34c2:	9300      	str	r3, [sp, #0]
    34c4:	2300      	movs	r3, #0
    34c6:	9301      	str	r3, [sp, #4]
    34c8:	9302      	str	r3, [sp, #8]
    34ca:	9303      	str	r3, [sp, #12]
    34cc:	480a      	ldr	r0, [pc, #40]	; (34f8 <xTimerCreateTimerTask+0x50>)
    34ce:	4478      	add	r0, pc
    34d0:	490a      	ldr	r1, [pc, #40]	; (34fc <xTimerCreateTimerTask+0x54>)
    34d2:	4479      	add	r1, pc
    34d4:	2250      	movs	r2, #80	; 0x50
    34d6:	4d0a      	ldr	r5, [pc, #40]	; (3500 <xTimerCreateTimerTask+0x58>)
    34d8:	5965      	ldr	r5, [r4, r5]
    34da:	9505      	str	r5, [sp, #20]
    34dc:	47a8      	blx	r5
	else
	{
		mtCOVERAGE_TEST_MARKER();
	}

	configASSERT( xReturn );
    34de:	2800      	cmp	r0, #0
    34e0:	d101      	bne.n	34e6 <xTimerCreateTimerTask+0x3e>
    34e2:	b672      	cpsid	i
    34e4:	e7fe      	b.n	34e4 <xTimerCreateTimerTask+0x3c>
	return xReturn;
}
    34e6:	b007      	add	sp, #28
    34e8:	bd30      	pop	{r4, r5, pc}
    34ea:	46c0      	nop			; (mov r8, r8)
    34ec:	0000127a 	.word	0x0000127a
    34f0:	ffffff73 	.word	0xffffff73
    34f4:	1fffe844 	.word	0x1fffe844
    34f8:	0000020b 	.word	0x0000020b
    34fc:	00001222 	.word	0x00001222
    3500:	00000058 	.word	0x00000058

00003504 <xTimerCreate>:
/*-----------------------------------------------------------*/

TimerHandle_t xTimerCreate( const char * const pcTimerName, const TickType_t xTimerPeriodInTicks, const UBaseType_t uxAutoReload, void * const pvTimerID, TimerCallbackFunction_t pxCallbackFunction ) /*lint !e971 Unqualified char types are allowed for strings and single characters only. */
{
    3504:	b5f0      	push	{r4, r5, r6, r7, lr}
    3506:	464f      	mov	r7, r9
    3508:	4646      	mov	r6, r8
    350a:	b4c0      	push	{r6, r7}
    350c:	b083      	sub	sp, #12
    350e:	4681      	mov	r9, r0
    3510:	1c0e      	adds	r6, r1, #0
    3512:	4690      	mov	r8, r2
    3514:	1c1f      	adds	r7, r3, #0
    3516:	4d11      	ldr	r5, [pc, #68]	; (355c <xTimerCreate+0x58>)
    3518:	447d      	add	r5, pc
Timer_t *pxNewTimer;

	/* Allocate the timer structure. */
	if( xTimerPeriodInTicks == ( TickType_t ) 0U )
    351a:	2900      	cmp	r1, #0
    351c:	d016      	beq.n	354c <xTimerCreate+0x48>
	{
		pxNewTimer = NULL;
	}
	else
	{
		pxNewTimer = ( Timer_t * ) pvPortMalloc( sizeof( Timer_t ) );
    351e:	2028      	movs	r0, #40	; 0x28
    3520:	4b0f      	ldr	r3, [pc, #60]	; (3560 <xTimerCreate+0x5c>)
    3522:	58eb      	ldr	r3, [r5, r3]
    3524:	4798      	blx	r3
    3526:	1e04      	subs	r4, r0, #0
		if( pxNewTimer != NULL )
    3528:	d012      	beq.n	3550 <xTimerCreate+0x4c>
		{
			/* Ensure the infrastructure used by the timer service task has been
			created/initialised. */
			prvCheckForValidListAndQueue();
    352a:	4b0e      	ldr	r3, [pc, #56]	; (3564 <xTimerCreate+0x60>)
    352c:	447b      	add	r3, pc
    352e:	4798      	blx	r3

			/* Initialise the timer structure members using the function parameters. */
			pxNewTimer->pcTimerName = pcTimerName;
    3530:	464b      	mov	r3, r9
    3532:	6023      	str	r3, [r4, #0]
			pxNewTimer->xTimerPeriodInTicks = xTimerPeriodInTicks;
    3534:	61a6      	str	r6, [r4, #24]
			pxNewTimer->uxAutoReload = uxAutoReload;
    3536:	4643      	mov	r3, r8
    3538:	61e3      	str	r3, [r4, #28]
			pxNewTimer->pvTimerID = pvTimerID;
    353a:	6227      	str	r7, [r4, #32]
			pxNewTimer->pxCallbackFunction = pxCallbackFunction;
    353c:	9b0a      	ldr	r3, [sp, #40]	; 0x28
    353e:	6263      	str	r3, [r4, #36]	; 0x24
			vListInitialiseItem( &( pxNewTimer->xTimerListItem ) );
    3540:	1d20      	adds	r0, r4, #4
    3542:	4b09      	ldr	r3, [pc, #36]	; (3568 <xTimerCreate+0x64>)
    3544:	58eb      	ldr	r3, [r5, r3]
    3546:	4798      	blx	r3
    3548:	e002      	b.n	3550 <xTimerCreate+0x4c>
    354a:	e7fe      	b.n	354a <xTimerCreate+0x46>
			traceTIMER_CREATE_FAILED();
		}
	}

	/* 0 is not a valid value for xTimerPeriodInTicks. */
	configASSERT( ( xTimerPeriodInTicks > 0 ) );
    354c:	b672      	cpsid	i
    354e:	e7fc      	b.n	354a <xTimerCreate+0x46>

	return ( TimerHandle_t ) pxNewTimer;
}
    3550:	1c20      	adds	r0, r4, #0
    3552:	b003      	add	sp, #12
    3554:	bc0c      	pop	{r2, r3}
    3556:	4690      	mov	r8, r2
    3558:	4699      	mov	r9, r3
    355a:	bdf0      	pop	{r4, r5, r6, r7, pc}
    355c:	00001210 	.word	0x00001210
    3560:	000000b0 	.word	0x000000b0
    3564:	fffffef9 	.word	0xfffffef9
    3568:	00000090 	.word	0x00000090

0000356c <xTimerGenericCommand>:
/*-----------------------------------------------------------*/

BaseType_t xTimerGenericCommand( TimerHandle_t xTimer, const BaseType_t xCommandID, const TickType_t xOptionalValue, BaseType_t * const pxHigherPriorityTaskWoken, const TickType_t xTicksToWait )
{
    356c:	b570      	push	{r4, r5, r6, lr}
    356e:	b086      	sub	sp, #24
    3570:	4c19      	ldr	r4, [pc, #100]	; (35d8 <xTimerGenericCommand+0x6c>)
    3572:	447c      	add	r4, pc
BaseType_t xReturn = pdFAIL;
DaemonTaskMessage_t xMessage;

	/* Send a message to the timer service task to perform a particular action
	on a particular timer definition. */
	if( xTimerQueue != NULL )
    3574:	4d19      	ldr	r5, [pc, #100]	; (35dc <xTimerGenericCommand+0x70>)
    3576:	447d      	add	r5, pc
    3578:	68ae      	ldr	r6, [r5, #8]
    357a:	2e00      	cmp	r6, #0
    357c:	d028      	beq.n	35d0 <xTimerGenericCommand+0x64>
	{
		/* Send a command to the timer service task to start the xTimer timer. */
		xMessage.xMessageID = xCommandID;
    357e:	9103      	str	r1, [sp, #12]
		xMessage.u.xTimerParameters.xMessageValue = xOptionalValue;
    3580:	9204      	str	r2, [sp, #16]
		xMessage.u.xTimerParameters.pxTimer = ( Timer_t * ) xTimer;
    3582:	9005      	str	r0, [sp, #20]

		if( xCommandID < tmrFIRST_FROM_ISR_COMMAND )
    3584:	2905      	cmp	r1, #5
    3586:	dc1a      	bgt.n	35be <xTimerGenericCommand+0x52>
		{
			if( xTaskGetSchedulerState() == taskSCHEDULER_RUNNING )
    3588:	4b15      	ldr	r3, [pc, #84]	; (35e0 <xTimerGenericCommand+0x74>)
    358a:	58e3      	ldr	r3, [r4, r3]
    358c:	4798      	blx	r3
    358e:	2802      	cmp	r0, #2
    3590:	d10a      	bne.n	35a8 <xTimerGenericCommand+0x3c>
			{
				xReturn = xQueueSendToBack( xTimerQueue, &xMessage, xTicksToWait );
    3592:	4b14      	ldr	r3, [pc, #80]	; (35e4 <xTimerGenericCommand+0x78>)
    3594:	447b      	add	r3, pc
    3596:	6898      	ldr	r0, [r3, #8]
    3598:	a903      	add	r1, sp, #12
    359a:	9a0a      	ldr	r2, [sp, #40]	; 0x28
    359c:	2300      	movs	r3, #0
    359e:	4d12      	ldr	r5, [pc, #72]	; (35e8 <xTimerGenericCommand+0x7c>)
    35a0:	5965      	ldr	r5, [r4, r5]
    35a2:	9501      	str	r5, [sp, #4]
    35a4:	47a8      	blx	r5
    35a6:	e014      	b.n	35d2 <xTimerGenericCommand+0x66>
			}
			else
			{
				xReturn = xQueueSendToBack( xTimerQueue, &xMessage, tmrNO_DELAY );
    35a8:	4b10      	ldr	r3, [pc, #64]	; (35ec <xTimerGenericCommand+0x80>)
    35aa:	447b      	add	r3, pc
    35ac:	6898      	ldr	r0, [r3, #8]
    35ae:	a903      	add	r1, sp, #12
    35b0:	2200      	movs	r2, #0
    35b2:	2300      	movs	r3, #0
    35b4:	4d0c      	ldr	r5, [pc, #48]	; (35e8 <xTimerGenericCommand+0x7c>)
    35b6:	5965      	ldr	r5, [r4, r5]
    35b8:	9501      	str	r5, [sp, #4]
    35ba:	47a8      	blx	r5
    35bc:	e009      	b.n	35d2 <xTimerGenericCommand+0x66>
			}
		}
		else
		{
			xReturn = xQueueSendToBackFromISR( xTimerQueue, &xMessage, pxHigherPriorityTaskWoken );
    35be:	1c30      	adds	r0, r6, #0
    35c0:	a903      	add	r1, sp, #12
    35c2:	1c1a      	adds	r2, r3, #0
    35c4:	2300      	movs	r3, #0
    35c6:	4d0a      	ldr	r5, [pc, #40]	; (35f0 <xTimerGenericCommand+0x84>)
    35c8:	5965      	ldr	r5, [r4, r5]
    35ca:	9501      	str	r5, [sp, #4]
    35cc:	47a8      	blx	r5
    35ce:	e000      	b.n	35d2 <xTimerGenericCommand+0x66>
}
/*-----------------------------------------------------------*/

BaseType_t xTimerGenericCommand( TimerHandle_t xTimer, const BaseType_t xCommandID, const TickType_t xOptionalValue, BaseType_t * const pxHigherPriorityTaskWoken, const TickType_t xTicksToWait )
{
BaseType_t xReturn = pdFAIL;
    35d0:	2000      	movs	r0, #0
	{
		mtCOVERAGE_TEST_MARKER();
	}

	return xReturn;
}
    35d2:	b006      	add	sp, #24
    35d4:	bd70      	pop	{r4, r5, r6, pc}
    35d6:	46c0      	nop			; (mov r8, r8)
    35d8:	000011b6 	.word	0x000011b6
    35dc:	1fffe786 	.word	0x1fffe786
    35e0:	00000200 	.word	0x00000200
    35e4:	1fffe768 	.word	0x1fffe768
    35e8:	000000c4 	.word	0x000000c4
    35ec:	1fffe752 	.word	0x1fffe752
    35f0:	00000020 	.word	0x00000020

000035f4 <prvSampleTimeNow>:
	return xNextExpireTime;
}
/*-----------------------------------------------------------*/

static TickType_t prvSampleTimeNow( BaseType_t * const pxTimerListsWereSwitched )
{
    35f4:	b5f0      	push	{r4, r5, r6, r7, lr}
    35f6:	465f      	mov	r7, fp
    35f8:	4656      	mov	r6, sl
    35fa:	464d      	mov	r5, r9
    35fc:	4644      	mov	r4, r8
    35fe:	b4f0      	push	{r4, r5, r6, r7}
    3600:	b085      	sub	sp, #20
    3602:	4682      	mov	sl, r0
    3604:	4e2b      	ldr	r6, [pc, #172]	; (36b4 <prvSampleTimeNow+0xc0>)
    3606:	447e      	add	r6, pc
TickType_t xTimeNow;
PRIVILEGED_DATA static TickType_t xLastTime = ( TickType_t ) 0U; /*lint !e956 Variable is only accessible to one task. */

	xTimeNow = xTaskGetTickCount();
    3608:	4b2b      	ldr	r3, [pc, #172]	; (36b8 <prvSampleTimeNow+0xc4>)
    360a:	58f3      	ldr	r3, [r6, r3]
    360c:	4798      	blx	r3
    360e:	4681      	mov	r9, r0

	if( xTimeNow < xLastTime )
    3610:	4b2a      	ldr	r3, [pc, #168]	; (36bc <prvSampleTimeNow+0xc8>)
    3612:	447b      	add	r3, pc
    3614:	6b5b      	ldr	r3, [r3, #52]	; 0x34
    3616:	4298      	cmp	r0, r3
    3618:	d23d      	bcs.n	3696 <prvSampleTimeNow+0xa2>

	/* The tick count has overflowed.  The timer lists must be switched.
	If there are any timers still referenced from the current timer list
	then they must have expired and should be processed before the lists
	are switched. */
	while( listLIST_IS_EMPTY( pxCurrentTimerList ) == pdFALSE )
    361a:	4929      	ldr	r1, [pc, #164]	; (36c0 <prvSampleTimeNow+0xcc>)
    361c:	4479      	add	r1, pc
    361e:	4688      	mov	r8, r1
				listSET_LIST_ITEM_OWNER( &( pxTimer->xTimerListItem ), pxTimer );
				vListInsert( pxCurrentTimerList, &( pxTimer->xTimerListItem ) );
			}
			else
			{
				xResult = xTimerGenericCommand( pxTimer, tmrCOMMAND_START_DONT_TRACE, xNextExpireTime, NULL, tmrNO_DELAY );
    3620:	2200      	movs	r2, #0
    3622:	4693      	mov	fp, r2
			xReloadTime = ( xNextExpireTime + pxTimer->xTimerPeriodInTicks );
			if( xReloadTime > xNextExpireTime )
			{
				listSET_LIST_ITEM_VALUE( &( pxTimer->xTimerListItem ), xReloadTime );
				listSET_LIST_ITEM_OWNER( &( pxTimer->xTimerListItem ), pxTimer );
				vListInsert( pxCurrentTimerList, &( pxTimer->xTimerListItem ) );
    3624:	4c27      	ldr	r4, [pc, #156]	; (36c4 <prvSampleTimeNow+0xd0>)
    3626:	447c      	add	r4, pc
    3628:	9403      	str	r4, [sp, #12]
    362a:	e026      	b.n	367a <prvSampleTimeNow+0x86>
	If there are any timers still referenced from the current timer list
	then they must have expired and should be processed before the lists
	are switched. */
	while( listLIST_IS_EMPTY( pxCurrentTimerList ) == pdFALSE )
	{
		xNextExpireTime = listGET_ITEM_VALUE_OF_HEAD_ENTRY( pxCurrentTimerList );
    362c:	68db      	ldr	r3, [r3, #12]
    362e:	681f      	ldr	r7, [r3, #0]

		/* Remove the timer from the list. */
		pxTimer = ( Timer_t * ) listGET_OWNER_OF_HEAD_ENTRY( pxCurrentTimerList );
    3630:	68dc      	ldr	r4, [r3, #12]
		( void ) uxListRemove( &( pxTimer->xTimerListItem ) );
    3632:	1d25      	adds	r5, r4, #4
    3634:	1c28      	adds	r0, r5, #0
    3636:	4b24      	ldr	r3, [pc, #144]	; (36c8 <prvSampleTimeNow+0xd4>)
    3638:	58f3      	ldr	r3, [r6, r3]
    363a:	4798      	blx	r3
		traceTIMER_EXPIRED( pxTimer );

		/* Execute its callback, then send a command to restart the timer if
		it is an auto-reload timer.  It cannot be restarted here as the lists
		have not yet been switched. */
		pxTimer->pxCallbackFunction( ( TimerHandle_t ) pxTimer );
    363c:	1c20      	adds	r0, r4, #0
    363e:	6a61      	ldr	r1, [r4, #36]	; 0x24
    3640:	4788      	blx	r1

		if( pxTimer->uxAutoReload == ( UBaseType_t ) pdTRUE )
    3642:	69e2      	ldr	r2, [r4, #28]
    3644:	2a01      	cmp	r2, #1
    3646:	d118      	bne.n	367a <prvSampleTimeNow+0x86>
			the timer going into the same timer list then it has already expired
			and the timer should be re-inserted into the current list so it is
			processed again within this loop.  Otherwise a command should be sent
			to restart the timer to ensure it is only inserted into a list after
			the lists have been swapped. */
			xReloadTime = ( xNextExpireTime + pxTimer->xTimerPeriodInTicks );
    3648:	69a1      	ldr	r1, [r4, #24]
    364a:	187b      	adds	r3, r7, r1
			if( xReloadTime > xNextExpireTime )
    364c:	42bb      	cmp	r3, r7
    364e:	d908      	bls.n	3662 <prvSampleTimeNow+0x6e>
			{
				listSET_LIST_ITEM_VALUE( &( pxTimer->xTimerListItem ), xReloadTime );
    3650:	6063      	str	r3, [r4, #4]
				listSET_LIST_ITEM_OWNER( &( pxTimer->xTimerListItem ), pxTimer );
    3652:	6124      	str	r4, [r4, #16]
				vListInsert( pxCurrentTimerList, &( pxTimer->xTimerListItem ) );
    3654:	9c03      	ldr	r4, [sp, #12]
    3656:	6860      	ldr	r0, [r4, #4]
    3658:	1c29      	adds	r1, r5, #0
    365a:	4b1c      	ldr	r3, [pc, #112]	; (36cc <prvSampleTimeNow+0xd8>)
    365c:	58f3      	ldr	r3, [r6, r3]
    365e:	4798      	blx	r3
    3660:	e00b      	b.n	367a <prvSampleTimeNow+0x86>
			}
			else
			{
				xResult = xTimerGenericCommand( pxTimer, tmrCOMMAND_START_DONT_TRACE, xNextExpireTime, NULL, tmrNO_DELAY );
    3662:	4659      	mov	r1, fp
    3664:	9100      	str	r1, [sp, #0]
    3666:	1c20      	adds	r0, r4, #0
    3668:	1c3a      	adds	r2, r7, #0
    366a:	465b      	mov	r3, fp
    366c:	4c18      	ldr	r4, [pc, #96]	; (36d0 <prvSampleTimeNow+0xdc>)
    366e:	5934      	ldr	r4, [r6, r4]
    3670:	47a0      	blx	r4
				configASSERT( xResult );
    3672:	2800      	cmp	r0, #0
    3674:	d101      	bne.n	367a <prvSampleTimeNow+0x86>
    3676:	b672      	cpsid	i
    3678:	e7fe      	b.n	3678 <prvSampleTimeNow+0x84>

	/* The tick count has overflowed.  The timer lists must be switched.
	If there are any timers still referenced from the current timer list
	then they must have expired and should be processed before the lists
	are switched. */
	while( listLIST_IS_EMPTY( pxCurrentTimerList ) == pdFALSE )
    367a:	4642      	mov	r2, r8
    367c:	6853      	ldr	r3, [r2, #4]
    367e:	681c      	ldr	r4, [r3, #0]
    3680:	2c00      	cmp	r4, #0
    3682:	d1d3      	bne.n	362c <prvSampleTimeNow+0x38>
			mtCOVERAGE_TEST_MARKER();
		}
	}

	pxTemp = pxCurrentTimerList;
	pxCurrentTimerList = pxOverflowTimerList;
    3684:	4a13      	ldr	r2, [pc, #76]	; (36d4 <prvSampleTimeNow+0xe0>)
    3686:	447a      	add	r2, pc
    3688:	6811      	ldr	r1, [r2, #0]
    368a:	6051      	str	r1, [r2, #4]
	pxOverflowTimerList = pxTemp;
    368c:	6013      	str	r3, [r2, #0]
	xTimeNow = xTaskGetTickCount();

	if( xTimeNow < xLastTime )
	{
		prvSwitchTimerLists();
		*pxTimerListsWereSwitched = pdTRUE;
    368e:	2301      	movs	r3, #1
    3690:	4652      	mov	r2, sl
    3692:	6013      	str	r3, [r2, #0]
    3694:	e002      	b.n	369c <prvSampleTimeNow+0xa8>
	}
	else
	{
		*pxTimerListsWereSwitched = pdFALSE;
    3696:	2300      	movs	r3, #0
    3698:	4654      	mov	r4, sl
    369a:	6023      	str	r3, [r4, #0]
	}

	xLastTime = xTimeNow;
    369c:	4b0e      	ldr	r3, [pc, #56]	; (36d8 <prvSampleTimeNow+0xe4>)
    369e:	447b      	add	r3, pc
    36a0:	4649      	mov	r1, r9
    36a2:	6359      	str	r1, [r3, #52]	; 0x34

	return xTimeNow;
}
    36a4:	4648      	mov	r0, r9
    36a6:	b005      	add	sp, #20
    36a8:	bc3c      	pop	{r2, r3, r4, r5}
    36aa:	4690      	mov	r8, r2
    36ac:	4699      	mov	r9, r3
    36ae:	46a2      	mov	sl, r4
    36b0:	46ab      	mov	fp, r5
    36b2:	bdf0      	pop	{r4, r5, r6, r7, pc}
    36b4:	00001122 	.word	0x00001122
    36b8:	000000c0 	.word	0x000000c0
    36bc:	1fffe6ea 	.word	0x1fffe6ea
    36c0:	1fffe6e0 	.word	0x1fffe6e0
    36c4:	1fffe6d6 	.word	0x1fffe6d6
    36c8:	00000108 	.word	0x00000108
    36cc:	0000015c 	.word	0x0000015c
    36d0:	00000138 	.word	0x00000138
    36d4:	1fffe676 	.word	0x1fffe676
    36d8:	1fffe65e 	.word	0x1fffe65e

000036dc <prvTimerTask>:
	pxTimer->pxCallbackFunction( ( TimerHandle_t ) pxTimer );
}
/*-----------------------------------------------------------*/

static void prvTimerTask( void *pvParameters )
{
    36dc:	b5f0      	push	{r4, r5, r6, r7, lr}
    36de:	465f      	mov	r7, fp
    36e0:	4656      	mov	r6, sl
    36e2:	464d      	mov	r5, r9
    36e4:	4644      	mov	r4, r8
    36e6:	b4f0      	push	{r4, r5, r6, r7}
    36e8:	b089      	sub	sp, #36	; 0x24
    36ea:	4869      	ldr	r0, [pc, #420]	; (3890 <prvTimerTask+0x1b4>)
    36ec:	4478      	add	r0, pc
    36ee:	4683      	mov	fp, r0
	the timer with the nearest expiry time will expire.  If there are no
	active timers then just set the next expire time to 0.  That will cause
	this task to unblock when the tick count overflows, at which point the
	timer lists will be switched and the next expiry time can be
	re-assessed.  */
	*pxListWasEmpty = listLIST_IS_EMPTY( pxCurrentTimerList );
    36f0:	4968      	ldr	r1, [pc, #416]	; (3894 <prvTimerTask+0x1b8>)
    36f2:	4479      	add	r1, pc
    36f4:	4689      	mov	r9, r1
		/* Obtain the time now to make an assessment as to whether the timer
		has expired or not.  If obtaining the time causes the lists to switch
		then don't process this timer as any timers that remained in the list
		when the lists were switched will have been processed within the
		prvSampleTimeNow() function. */
		xTimeNow = prvSampleTimeNow( &xTimerListsWereSwitched );
    36f6:	ac05      	add	r4, sp, #20
    36f8:	4a67      	ldr	r2, [pc, #412]	; (3898 <prvTimerTask+0x1bc>)
    36fa:	447a      	add	r2, pc
    36fc:	4692      	mov	sl, r2
	the timer with the nearest expiry time will expire.  If there are no
	active timers then just set the next expire time to 0.  That will cause
	this task to unblock when the tick count overflows, at which point the
	timer lists will be switched and the next expiry time can be
	re-assessed.  */
	*pxListWasEmpty = listLIST_IS_EMPTY( pxCurrentTimerList );
    36fe:	464d      	mov	r5, r9
    3700:	686b      	ldr	r3, [r5, #4]
	if( *pxListWasEmpty == pdFALSE )
    3702:	681e      	ldr	r6, [r3, #0]
    3704:	2e00      	cmp	r6, #0
    3706:	d100      	bne.n	370a <prvTimerTask+0x2e>
    3708:	e0b5      	b.n	3876 <prvTimerTask+0x19a>
	{
		xNextExpireTime = listGET_ITEM_VALUE_OF_HEAD_ENTRY( pxCurrentTimerList );
    370a:	68db      	ldr	r3, [r3, #12]
    370c:	681d      	ldr	r5, [r3, #0]
static void prvProcessTimerOrBlockTask( const TickType_t xNextExpireTime, const BaseType_t xListWasEmpty )
{
TickType_t xTimeNow;
BaseType_t xTimerListsWereSwitched;

	vTaskSuspendAll();
    370e:	4b63      	ldr	r3, [pc, #396]	; (389c <prvTimerTask+0x1c0>)
    3710:	465f      	mov	r7, fp
    3712:	58fb      	ldr	r3, [r7, r3]
    3714:	4798      	blx	r3
		/* Obtain the time now to make an assessment as to whether the timer
		has expired or not.  If obtaining the time causes the lists to switch
		then don't process this timer as any timers that remained in the list
		when the lists were switched will have been processed within the
		prvSampleTimeNow() function. */
		xTimeNow = prvSampleTimeNow( &xTimerListsWereSwitched );
    3716:	1c20      	adds	r0, r4, #0
    3718:	4b61      	ldr	r3, [pc, #388]	; (38a0 <prvTimerTask+0x1c4>)
    371a:	447b      	add	r3, pc
    371c:	4798      	blx	r3
    371e:	1c06      	adds	r6, r0, #0
		if( xTimerListsWereSwitched == pdFALSE )
    3720:	9805      	ldr	r0, [sp, #20]
    3722:	2800      	cmp	r0, #0
    3724:	d140      	bne.n	37a8 <prvTimerTask+0xcc>
		{
			/* The tick count has not overflowed, has the timer expired? */
			if( ( xListWasEmpty == pdFALSE ) && ( xNextExpireTime <= xTimeNow ) )
    3726:	42b5      	cmp	r5, r6
    3728:	d82d      	bhi.n	3786 <prvTimerTask+0xaa>
			{
				( void ) xTaskResumeAll();
    372a:	4b5e      	ldr	r3, [pc, #376]	; (38a4 <prvTimerTask+0x1c8>)
    372c:	58fb      	ldr	r3, [r7, r3]
    372e:	4798      	blx	r3
/*-----------------------------------------------------------*/

static void prvProcessExpiredTimer( const TickType_t xNextExpireTime, const TickType_t xTimeNow )
{
BaseType_t xResult;
Timer_t * const pxTimer = ( Timer_t * ) listGET_OWNER_OF_HEAD_ENTRY( pxCurrentTimerList );
    3730:	4b5d      	ldr	r3, [pc, #372]	; (38a8 <prvTimerTask+0x1cc>)
    3732:	447b      	add	r3, pc
    3734:	685b      	ldr	r3, [r3, #4]
    3736:	68db      	ldr	r3, [r3, #12]
    3738:	68d9      	ldr	r1, [r3, #12]
    373a:	4688      	mov	r8, r1

	/* Remove the timer from the list of active timers.  A check has already
	been performed to ensure the list is not empty. */
	( void ) uxListRemove( &( pxTimer->xTimerListItem ) );
    373c:	1c08      	adds	r0, r1, #0
    373e:	3004      	adds	r0, #4
    3740:	4b5a      	ldr	r3, [pc, #360]	; (38ac <prvTimerTask+0x1d0>)
    3742:	58fb      	ldr	r3, [r7, r3]
    3744:	4798      	blx	r3
	traceTIMER_EXPIRED( pxTimer );

	/* If the timer is an auto reload timer then calculate the next
	expiry time and re-insert the timer in the list of active timers. */
	if( pxTimer->uxAutoReload == ( UBaseType_t ) pdTRUE )
    3746:	4642      	mov	r2, r8
    3748:	69d2      	ldr	r2, [r2, #28]
    374a:	2a01      	cmp	r2, #1
    374c:	d116      	bne.n	377c <prvTimerTask+0xa0>
	{
		/* The timer is inserted into a list using a time relative to anything
		other than the current time.  It will therefore be inserted into the
		correct list relative to the time this task thinks it is now. */
		if( prvInsertTimerInActiveList( pxTimer, ( xNextExpireTime + pxTimer->xTimerPeriodInTicks ), xTimeNow, xNextExpireTime ) == pdTRUE )
    374e:	4643      	mov	r3, r8
    3750:	699b      	ldr	r3, [r3, #24]
    3752:	18e9      	adds	r1, r5, r3
    3754:	4640      	mov	r0, r8
    3756:	1c32      	adds	r2, r6, #0
    3758:	1c2b      	adds	r3, r5, #0
    375a:	4e55      	ldr	r6, [pc, #340]	; (38b0 <prvTimerTask+0x1d4>)
    375c:	447e      	add	r6, pc
    375e:	47b0      	blx	r6
    3760:	2801      	cmp	r0, #1
    3762:	d10b      	bne.n	377c <prvTimerTask+0xa0>
		{
			/* The timer expired before it was added to the active timer
			list.  Reload it now.  */
			xResult = xTimerGenericCommand( pxTimer, tmrCOMMAND_START_DONT_TRACE, xNextExpireTime, NULL, tmrNO_DELAY );
    3764:	2300      	movs	r3, #0
    3766:	9300      	str	r3, [sp, #0]
    3768:	4640      	mov	r0, r8
    376a:	2100      	movs	r1, #0
    376c:	1c2a      	adds	r2, r5, #0
    376e:	4d51      	ldr	r5, [pc, #324]	; (38b4 <prvTimerTask+0x1d8>)
    3770:	597d      	ldr	r5, [r7, r5]
    3772:	47a8      	blx	r5
			configASSERT( xResult );
    3774:	2800      	cmp	r0, #0
    3776:	d101      	bne.n	377c <prvTimerTask+0xa0>
    3778:	b672      	cpsid	i
    377a:	e7fe      	b.n	377a <prvTimerTask+0x9e>
	{
		mtCOVERAGE_TEST_MARKER();
	}

	/* Call the timer callback. */
	pxTimer->pxCallbackFunction( ( TimerHandle_t ) pxTimer );
    377c:	4645      	mov	r5, r8
    377e:	6a6b      	ldr	r3, [r5, #36]	; 0x24
    3780:	4640      	mov	r0, r8
    3782:	4798      	blx	r3
    3784:	e014      	b.n	37b0 <prvTimerTask+0xd4>
				time has not been reached yet.  This task should therefore
				block to wait for the next expire time or a command to be
				received - whichever comes first.  The following line cannot
				be reached unless xNextExpireTime > xTimeNow, except in the
				case when the current timer list is empty. */
				vQueueWaitForMessageRestricted( xTimerQueue, ( xNextExpireTime - xTimeNow ) );
    3786:	4b4c      	ldr	r3, [pc, #304]	; (38b8 <prvTimerTask+0x1dc>)
    3788:	447b      	add	r3, pc
    378a:	6898      	ldr	r0, [r3, #8]
    378c:	1ba9      	subs	r1, r5, r6
    378e:	4b4b      	ldr	r3, [pc, #300]	; (38bc <prvTimerTask+0x1e0>)
    3790:	465e      	mov	r6, fp
    3792:	58f3      	ldr	r3, [r6, r3]
    3794:	4798      	blx	r3

				if( xTaskResumeAll() == pdFALSE )
    3796:	4b43      	ldr	r3, [pc, #268]	; (38a4 <prvTimerTask+0x1c8>)
    3798:	58f3      	ldr	r3, [r6, r3]
    379a:	4798      	blx	r3
    379c:	2800      	cmp	r0, #0
    379e:	d107      	bne.n	37b0 <prvTimerTask+0xd4>
				{
					/* Yield to wait for either a command to arrive, or the block time
					to expire.  If a command arrived between the critical section being
					exited and this yield then the yield will not cause the task
					to block. */
					portYIELD_WITHIN_API();
    37a0:	4b47      	ldr	r3, [pc, #284]	; (38c0 <prvTimerTask+0x1e4>)
    37a2:	58f3      	ldr	r3, [r6, r3]
    37a4:	4798      	blx	r3
    37a6:	e003      	b.n	37b0 <prvTimerTask+0xd4>
				}
			}
		}
		else
		{
			( void ) xTaskResumeAll();
    37a8:	4b3e      	ldr	r3, [pc, #248]	; (38a4 <prvTimerTask+0x1c8>)
    37aa:	465f      	mov	r7, fp
    37ac:	58fb      	ldr	r3, [r7, r3]
    37ae:	4798      	blx	r3
DaemonTaskMessage_t xMessage;
Timer_t *pxTimer;
BaseType_t xTimerListsWereSwitched, xResult;
TickType_t xTimeNow;

	while( xQueueReceive( xTimerQueue, &xMessage, tmrNO_DELAY ) != pdFAIL ) /*lint !e603 xMessage does not have to be initialised as it is passed out, not in, and it is not used unless xQueueReceive() returns pdTRUE. */
    37b0:	4e44      	ldr	r6, [pc, #272]	; (38c4 <prvTimerTask+0x1e8>)
    37b2:	447e      	add	r6, pc
    37b4:	4b44      	ldr	r3, [pc, #272]	; (38c8 <prvTimerTask+0x1ec>)
    37b6:	4658      	mov	r0, fp
    37b8:	58c5      	ldr	r5, [r0, r3]
    37ba:	e054      	b.n	3866 <prvTimerTask+0x18a>
		}
		#endif /* INCLUDE_xTimerPendFunctionCall */

		/* Commands that are positive are timer commands rather than pended
		function calls. */
		if( xMessage.xMessageID >= ( BaseType_t ) 0 )
    37bc:	6821      	ldr	r1, [r4, #0]
    37be:	2900      	cmp	r1, #0
    37c0:	db51      	blt.n	3866 <prvTimerTask+0x18a>
		{
			/* The messages uses the xTimerParameters member to work on a
			software timer. */
			pxTimer = xMessage.u.xTimerParameters.pxTimer;
    37c2:	68a2      	ldr	r2, [r4, #8]
    37c4:	4690      	mov	r8, r2

			if( listIS_CONTAINED_WITHIN( NULL, &( pxTimer->xTimerListItem ) ) == pdFALSE )
    37c6:	6953      	ldr	r3, [r2, #20]
    37c8:	2b00      	cmp	r3, #0
    37ca:	d005      	beq.n	37d8 <prvTimerTask+0xfc>
			{
				/* The timer is in a list, remove it. */
				( void ) uxListRemove( &( pxTimer->xTimerListItem ) );
    37cc:	1c10      	adds	r0, r2, #0
    37ce:	3004      	adds	r0, #4
    37d0:	4b36      	ldr	r3, [pc, #216]	; (38ac <prvTimerTask+0x1d0>)
    37d2:	465f      	mov	r7, fp
    37d4:	58fb      	ldr	r3, [r7, r3]
    37d6:	4798      	blx	r3
			it must be present in the function call.  prvSampleTimeNow() must be
			called after the message is received from xTimerQueue so there is no
			possibility of a higher priority task adding a message to the message
			queue with a time that is ahead of the timer daemon task (because it
			pre-empted the timer daemon task after the xTimeNow value was set). */
			xTimeNow = prvSampleTimeNow( &xTimerListsWereSwitched );
    37d8:	a804      	add	r0, sp, #16
    37da:	4b3c      	ldr	r3, [pc, #240]	; (38cc <prvTimerTask+0x1f0>)
    37dc:	447b      	add	r3, pc
    37de:	4798      	blx	r3
    37e0:	1c03      	adds	r3, r0, #0

			switch( xMessage.xMessageID )
    37e2:	6820      	ldr	r0, [r4, #0]
    37e4:	2809      	cmp	r0, #9
    37e6:	d83e      	bhi.n	3866 <prvTimerTask+0x18a>
    37e8:	f000 fdf2 	bl	43d0 <__gnu_thumb1_case_uqi>
    37ec:	3d050505 	.word	0x3d050505
    37f0:	0505382a 	.word	0x0505382a
    37f4:	2a3d      	.short	0x2a3d
			    case tmrCOMMAND_START_FROM_ISR :
			    case tmrCOMMAND_RESET :
			    case tmrCOMMAND_RESET_FROM_ISR :
				case tmrCOMMAND_START_DONT_TRACE :
					/* Start or restart a timer. */
					if( prvInsertTimerInActiveList( pxTimer,  xMessage.u.xTimerParameters.xMessageValue + pxTimer->xTimerPeriodInTicks, xTimeNow, xMessage.u.xTimerParameters.xMessageValue ) == pdTRUE )
    37f6:	6867      	ldr	r7, [r4, #4]
    37f8:	4640      	mov	r0, r8
    37fa:	6980      	ldr	r0, [r0, #24]
    37fc:	1839      	adds	r1, r7, r0
    37fe:	4640      	mov	r0, r8
    3800:	1c1a      	adds	r2, r3, #0
    3802:	1c3b      	adds	r3, r7, #0
    3804:	4f32      	ldr	r7, [pc, #200]	; (38d0 <prvTimerTask+0x1f4>)
    3806:	447f      	add	r7, pc
    3808:	47b8      	blx	r7
    380a:	2801      	cmp	r0, #1
    380c:	d12b      	bne.n	3866 <prvTimerTask+0x18a>
					{
						/* The timer expired before it was added to the active
						timer list.  Process it now. */
						pxTimer->pxCallbackFunction( ( TimerHandle_t ) pxTimer );
    380e:	4640      	mov	r0, r8
    3810:	6a41      	ldr	r1, [r0, #36]	; 0x24
    3812:	4788      	blx	r1
						traceTIMER_EXPIRED( pxTimer );

						if( pxTimer->uxAutoReload == ( UBaseType_t ) pdTRUE )
    3814:	4642      	mov	r2, r8
    3816:	69d2      	ldr	r2, [r2, #28]
    3818:	2a01      	cmp	r2, #1
    381a:	d124      	bne.n	3866 <prvTimerTask+0x18a>
						{
							xResult = xTimerGenericCommand( pxTimer, tmrCOMMAND_START_DONT_TRACE, xMessage.u.xTimerParameters.xMessageValue + pxTimer->xTimerPeriodInTicks, NULL, tmrNO_DELAY );
    381c:	4643      	mov	r3, r8
    381e:	699b      	ldr	r3, [r3, #24]
    3820:	6867      	ldr	r7, [r4, #4]
    3822:	19da      	adds	r2, r3, r7
    3824:	2300      	movs	r3, #0
    3826:	9300      	str	r3, [sp, #0]
    3828:	4640      	mov	r0, r8
    382a:	2100      	movs	r1, #0
    382c:	4f21      	ldr	r7, [pc, #132]	; (38b4 <prvTimerTask+0x1d8>)
    382e:	46bc      	mov	ip, r7
    3830:	465f      	mov	r7, fp
    3832:	4467      	add	r7, ip
    3834:	683f      	ldr	r7, [r7, #0]
    3836:	47b8      	blx	r7
							configASSERT( xResult );
    3838:	2800      	cmp	r0, #0
    383a:	d114      	bne.n	3866 <prvTimerTask+0x18a>
    383c:	b672      	cpsid	i
    383e:	e7fe      	b.n	383e <prvTimerTask+0x162>
					There is nothing to do here. */
					break;

				case tmrCOMMAND_CHANGE_PERIOD :
				case tmrCOMMAND_CHANGE_PERIOD_FROM_ISR :
					pxTimer->xTimerPeriodInTicks = xMessage.u.xTimerParameters.xMessageValue;
    3840:	6861      	ldr	r1, [r4, #4]
    3842:	4640      	mov	r0, r8
    3844:	6181      	str	r1, [r0, #24]
					configASSERT( ( pxTimer->xTimerPeriodInTicks > 0 ) );
    3846:	2900      	cmp	r1, #0
    3848:	d101      	bne.n	384e <prvTimerTask+0x172>
    384a:	b672      	cpsid	i
    384c:	e7fe      	b.n	384c <prvTimerTask+0x170>
					longer or shorter than the old one.  The command time is
					therefore set to the current time, and as the period cannot be
					zero the next expiry time can only be in the future, meaning
					(unlike for the xTimerStart() case above) there is no fail case
					that needs to be handled here. */
					( void ) prvInsertTimerInActiveList( pxTimer, ( xTimeNow + pxTimer->xTimerPeriodInTicks ), xTimeNow, xTimeNow );
    384e:	1859      	adds	r1, r3, r1
    3850:	4640      	mov	r0, r8
    3852:	1c1a      	adds	r2, r3, #0
    3854:	4f1f      	ldr	r7, [pc, #124]	; (38d4 <prvTimerTask+0x1f8>)
    3856:	447f      	add	r7, pc
    3858:	47b8      	blx	r7
    385a:	e004      	b.n	3866 <prvTimerTask+0x18a>
					break;

				case tmrCOMMAND_DELETE :
					/* The timer has already been removed from the active list,
					just free up the memory. */
					vPortFree( pxTimer );
    385c:	4640      	mov	r0, r8
    385e:	4b1e      	ldr	r3, [pc, #120]	; (38d8 <prvTimerTask+0x1fc>)
    3860:	4659      	mov	r1, fp
    3862:	58cb      	ldr	r3, [r1, r3]
    3864:	4798      	blx	r3
DaemonTaskMessage_t xMessage;
Timer_t *pxTimer;
BaseType_t xTimerListsWereSwitched, xResult;
TickType_t xTimeNow;

	while( xQueueReceive( xTimerQueue, &xMessage, tmrNO_DELAY ) != pdFAIL ) /*lint !e603 xMessage does not have to be initialised as it is passed out, not in, and it is not used unless xQueueReceive() returns pdTRUE. */
    3866:	68b0      	ldr	r0, [r6, #8]
    3868:	1c21      	adds	r1, r4, #0
    386a:	2200      	movs	r2, #0
    386c:	2300      	movs	r3, #0
    386e:	47a8      	blx	r5
    3870:	2800      	cmp	r0, #0
    3872:	d1a3      	bne.n	37bc <prvTimerTask+0xe0>
    3874:	e743      	b.n	36fe <prvTimerTask+0x22>
static void prvProcessTimerOrBlockTask( const TickType_t xNextExpireTime, const BaseType_t xListWasEmpty )
{
TickType_t xTimeNow;
BaseType_t xTimerListsWereSwitched;

	vTaskSuspendAll();
    3876:	4b09      	ldr	r3, [pc, #36]	; (389c <prvTimerTask+0x1c0>)
    3878:	465a      	mov	r2, fp
    387a:	58d3      	ldr	r3, [r2, r3]
    387c:	4798      	blx	r3
		/* Obtain the time now to make an assessment as to whether the timer
		has expired or not.  If obtaining the time causes the lists to switch
		then don't process this timer as any timers that remained in the list
		when the lists were switched will have been processed within the
		prvSampleTimeNow() function. */
		xTimeNow = prvSampleTimeNow( &xTimerListsWereSwitched );
    387e:	1c20      	adds	r0, r4, #0
    3880:	47d0      	blx	sl
    3882:	1c06      	adds	r6, r0, #0
		xNextExpireTime = listGET_ITEM_VALUE_OF_HEAD_ENTRY( pxCurrentTimerList );
	}
	else
	{
		/* Ensure the task unblocks when the tick count rolls over. */
		xNextExpireTime = ( TickType_t ) 0U;
    3884:	2500      	movs	r5, #0
		has expired or not.  If obtaining the time causes the lists to switch
		then don't process this timer as any timers that remained in the list
		when the lists were switched will have been processed within the
		prvSampleTimeNow() function. */
		xTimeNow = prvSampleTimeNow( &xTimerListsWereSwitched );
		if( xTimerListsWereSwitched == pdFALSE )
    3886:	9b05      	ldr	r3, [sp, #20]
    3888:	42ab      	cmp	r3, r5
    388a:	d100      	bne.n	388e <prvTimerTask+0x1b2>
    388c:	e77b      	b.n	3786 <prvTimerTask+0xaa>
    388e:	e78b      	b.n	37a8 <prvTimerTask+0xcc>
    3890:	0000103c 	.word	0x0000103c
    3894:	1fffe60a 	.word	0x1fffe60a
    3898:	fffffef7 	.word	0xfffffef7
    389c:	000000fc 	.word	0x000000fc
    38a0:	fffffed7 	.word	0xfffffed7
    38a4:	000001a0 	.word	0x000001a0
    38a8:	1fffe5ca 	.word	0x1fffe5ca
    38ac:	00000108 	.word	0x00000108
    38b0:	fffffc6d 	.word	0xfffffc6d
    38b4:	00000138 	.word	0x00000138
    38b8:	1fffe574 	.word	0x1fffe574
    38bc:	00000014 	.word	0x00000014
    38c0:	00000148 	.word	0x00000148
    38c4:	1fffe54a 	.word	0x1fffe54a
    38c8:	000001c8 	.word	0x000001c8
    38cc:	fffffe15 	.word	0xfffffe15
    38d0:	fffffbc3 	.word	0xfffffbc3
    38d4:	fffffb73 	.word	0xfffffb73
    38d8:	0000006c 	.word	0x0000006c

000038dc <Dummy_Handler>:

/**
 * \brief Default interrupt handler for unused IRQs.
 */
void Dummy_Handler(void)
{
    38dc:	e7fe      	b.n	38dc <Dummy_Handler>
    38de:	46c0      	nop			; (mov r8, r8)

000038e0 <Reset_Handler>:
/**
 * \brief This is the code that gets called on processor reset.
 * To initialize the device, and call the main() routine.
 */
void Reset_Handler(void)
{
    38e0:	b5f0      	push	{r4, r5, r6, r7, lr}
    38e2:	b083      	sub	sp, #12
    38e4:	4c3b      	ldr	r4, [pc, #236]	; (39d4 <Reset_Handler+0xf4>)
    38e6:	447c      	add	r4, pc

        /* Initialize the relocate segment */
        pSrc = &_etext;
        pDest = &_srelocate;

        if (pSrc != pDest) {
    38e8:	4b3b      	ldr	r3, [pc, #236]	; (39d8 <Reset_Handler+0xf8>)
    38ea:	58e3      	ldr	r3, [r4, r3]
    38ec:	9300      	str	r3, [sp, #0]
    38ee:	4b3b      	ldr	r3, [pc, #236]	; (39dc <Reset_Handler+0xfc>)
    38f0:	58e3      	ldr	r3, [r4, r3]
    38f2:	9800      	ldr	r0, [sp, #0]
    38f4:	4298      	cmp	r0, r3
    38f6:	d007      	beq.n	3908 <Reset_Handler+0x28>
                for (; pDest < &_erelocate;) {
    38f8:	4b38      	ldr	r3, [pc, #224]	; (39dc <Reset_Handler+0xfc>)
    38fa:	58e3      	ldr	r3, [r4, r3]
    38fc:	9300      	str	r3, [sp, #0]
    38fe:	4b38      	ldr	r3, [pc, #224]	; (39e0 <Reset_Handler+0x100>)
    3900:	58e3      	ldr	r3, [r4, r3]
    3902:	9a00      	ldr	r2, [sp, #0]
    3904:	429a      	cmp	r2, r3
    3906:	d308      	bcc.n	391a <Reset_Handler+0x3a>
                        *pDest++ = *pSrc++;
                }
        }

        /* Clear the zero segment */
        for (pDest = &_szero; pDest < &_ezero;) {
    3908:	4b36      	ldr	r3, [pc, #216]	; (39e4 <Reset_Handler+0x104>)
    390a:	58e3      	ldr	r3, [r4, r3]
    390c:	9300      	str	r3, [sp, #0]
    390e:	4b36      	ldr	r3, [pc, #216]	; (39e8 <Reset_Handler+0x108>)
    3910:	58e3      	ldr	r3, [r4, r3]
    3912:	9d00      	ldr	r5, [sp, #0]
    3914:	429d      	cmp	r5, r3
    3916:	d318      	bcc.n	394a <Reset_Handler+0x6a>
    3918:	e026      	b.n	3968 <Reset_Handler+0x88>
    391a:	4b31      	ldr	r3, [pc, #196]	; (39e0 <Reset_Handler+0x100>)
    391c:	58e3      	ldr	r3, [r4, r3]
    391e:	9300      	str	r3, [sp, #0]
    3920:	4b2e      	ldr	r3, [pc, #184]	; (39dc <Reset_Handler+0xfc>)
    3922:	58e3      	ldr	r3, [r4, r3]
    3924:	43d9      	mvns	r1, r3
    3926:	9800      	ldr	r0, [sp, #0]
    3928:	1809      	adds	r1, r1, r0
    392a:	0889      	lsrs	r1, r1, #2
    392c:	3101      	adds	r1, #1
    392e:	0089      	lsls	r1, r1, #2
        /* Initialize the relocate segment */
        pSrc = &_etext;
        pDest = &_srelocate;

        if (pSrc != pDest) {
                for (; pDest < &_erelocate;) {
    3930:	2300      	movs	r3, #0
                        *pDest++ = *pSrc++;
    3932:	4a2a      	ldr	r2, [pc, #168]	; (39dc <Reset_Handler+0xfc>)
    3934:	58a2      	ldr	r2, [r4, r2]
    3936:	9201      	str	r2, [sp, #4]
    3938:	4a27      	ldr	r2, [pc, #156]	; (39d8 <Reset_Handler+0xf8>)
    393a:	58a2      	ldr	r2, [r4, r2]
    393c:	58d0      	ldr	r0, [r2, r3]
    393e:	9d01      	ldr	r5, [sp, #4]
    3940:	50e8      	str	r0, [r5, r3]
    3942:	3304      	adds	r3, #4
        /* Initialize the relocate segment */
        pSrc = &_etext;
        pDest = &_srelocate;

        if (pSrc != pDest) {
                for (; pDest < &_erelocate;) {
    3944:	428b      	cmp	r3, r1
    3946:	d1f9      	bne.n	393c <Reset_Handler+0x5c>
    3948:	e7de      	b.n	3908 <Reset_Handler+0x28>
    394a:	4b26      	ldr	r3, [pc, #152]	; (39e4 <Reset_Handler+0x104>)
    394c:	58e3      	ldr	r3, [r4, r3]
    394e:	1d1a      	adds	r2, r3, #4
    3950:	4925      	ldr	r1, [pc, #148]	; (39e8 <Reset_Handler+0x108>)
    3952:	5861      	ldr	r1, [r4, r1]
    3954:	9100      	str	r1, [sp, #0]
    3956:	3103      	adds	r1, #3
    3958:	1a89      	subs	r1, r1, r2
    395a:	0889      	lsrs	r1, r1, #2
    395c:	0089      	lsls	r1, r1, #2
    395e:	1852      	adds	r2, r2, r1
                }
        }

        /* Clear the zero segment */
        for (pDest = &_szero; pDest < &_ezero;) {
                *pDest++ = 0;
    3960:	2100      	movs	r1, #0
    3962:	c302      	stmia	r3!, {r1}
                        *pDest++ = *pSrc++;
                }
        }

        /* Clear the zero segment */
        for (pDest = &_szero; pDest < &_ezero;) {
    3964:	4293      	cmp	r3, r2
    3966:	d1fc      	bne.n	3962 <Reset_Handler+0x82>
                *pDest++ = 0;
        }

        /* Set the vector table base address */
        pSrc = (uint32_t *) & _sfixed;
        SCB->VTOR = ((uint32_t) pSrc & SCB_VTOR_TBLOFF_Msk);
    3968:	4b20      	ldr	r3, [pc, #128]	; (39ec <Reset_Handler+0x10c>)
    396a:	58e3      	ldr	r3, [r4, r3]
    396c:	9300      	str	r3, [sp, #0]
    396e:	23ff      	movs	r3, #255	; 0xff
    3970:	9a00      	ldr	r2, [sp, #0]
    3972:	439a      	bics	r2, r3
    3974:	4b1e      	ldr	r3, [pc, #120]	; (39f0 <Reset_Handler+0x110>)
    3976:	609a      	str	r2, [r3, #8]

        /* Change default QOS values to have the best performance and correct USB behaviour */
        SBMATRIX->SFR[SBMATRIX_SLAVE_HMCRAMC0].reg = 2;
    3978:	2102      	movs	r1, #2
    397a:	2390      	movs	r3, #144	; 0x90
    397c:	005b      	lsls	r3, r3, #1
    397e:	4a1d      	ldr	r2, [pc, #116]	; (39f4 <Reset_Handler+0x114>)
    3980:	50d1      	str	r1, [r2, r3]
#if defined(ID_USB)
        USB->DEVICE.QOSCTRL.bit.CQOS = 2;
    3982:	4b1d      	ldr	r3, [pc, #116]	; (39f8 <Reset_Handler+0x118>)
    3984:	78d8      	ldrb	r0, [r3, #3]
    3986:	2103      	movs	r1, #3
    3988:	4388      	bics	r0, r1
    398a:	2202      	movs	r2, #2
    398c:	4310      	orrs	r0, r2
    398e:	70d8      	strb	r0, [r3, #3]
        USB->DEVICE.QOSCTRL.bit.DQOS = 2;
    3990:	78de      	ldrb	r6, [r3, #3]
    3992:	250c      	movs	r5, #12
    3994:	43ae      	bics	r6, r5
    3996:	2008      	movs	r0, #8
    3998:	4306      	orrs	r6, r0
    399a:	70de      	strb	r6, [r3, #3]
#endif
        DMAC->QOSCTRL.bit.DQOS = 2;
    399c:	4b17      	ldr	r3, [pc, #92]	; (39fc <Reset_Handler+0x11c>)
    399e:	7b9f      	ldrb	r7, [r3, #14]
    39a0:	2630      	movs	r6, #48	; 0x30
    39a2:	43b7      	bics	r7, r6
    39a4:	2620      	movs	r6, #32
    39a6:	433e      	orrs	r6, r7
    39a8:	739e      	strb	r6, [r3, #14]
        DMAC->QOSCTRL.bit.FQOS = 2;
    39aa:	7b9e      	ldrb	r6, [r3, #14]
    39ac:	43ae      	bics	r6, r5
    39ae:	4330      	orrs	r0, r6
    39b0:	7398      	strb	r0, [r3, #14]
        DMAC->QOSCTRL.bit.WRBQOS = 2;
    39b2:	7b98      	ldrb	r0, [r3, #14]
    39b4:	4388      	bics	r0, r1
    39b6:	4302      	orrs	r2, r0
    39b8:	739a      	strb	r2, [r3, #14]

        /* Overwriting the default value of the NVMCTRL.CTRLB.MANW bit (errata reference 13134) */
        NVMCTRL->CTRLB.bit.MANW = 1;
    39ba:	4b11      	ldr	r3, [pc, #68]	; (3a00 <Reset_Handler+0x120>)
    39bc:	6859      	ldr	r1, [r3, #4]
    39be:	2280      	movs	r2, #128	; 0x80
    39c0:	430a      	orrs	r2, r1
    39c2:	605a      	str	r2, [r3, #4]

        /* Initialize the C library */
        __libc_init_array();
    39c4:	4b0f      	ldr	r3, [pc, #60]	; (3a04 <Reset_Handler+0x124>)
    39c6:	58e3      	ldr	r3, [r4, r3]
    39c8:	4798      	blx	r3

        /* Branch to main function */
        main();
    39ca:	4b0f      	ldr	r3, [pc, #60]	; (3a08 <Reset_Handler+0x128>)
    39cc:	58e3      	ldr	r3, [r4, r3]
    39ce:	4798      	blx	r3
    39d0:	e7fe      	b.n	39d0 <Reset_Handler+0xf0>
    39d2:	46c0      	nop			; (mov r8, r8)
    39d4:	00000e42 	.word	0x00000e42
    39d8:	00000040 	.word	0x00000040
    39dc:	00000060 	.word	0x00000060
    39e0:	000001e0 	.word	0x000001e0
    39e4:	00000048 	.word	0x00000048
    39e8:	00000168 	.word	0x00000168
    39ec:	00000030 	.word	0x00000030
    39f0:	e000ed00 	.word	0xe000ed00
    39f4:	41007000 	.word	0x41007000
    39f8:	41005000 	.word	0x41005000
    39fc:	41004800 	.word	0x41004800
    3a00:	41004000 	.word	0x41004000
    3a04:	000000a8 	.word	0x000000a8
    3a08:	00000154 	.word	0x00000154

00003a0c <system_clock_source_get_hz>:
 *
 * \returns Frequency of the given clock source, in Hz.
 */
uint32_t system_clock_source_get_hz(
		const enum system_clock_source clock_source)
{
    3a0c:	b500      	push	{lr}
    3a0e:	b083      	sub	sp, #12
    3a10:	4b23      	ldr	r3, [pc, #140]	; (3aa0 <system_clock_source_get_hz+0x94>)
    3a12:	447b      	add	r3, pc
	switch (clock_source) {
    3a14:	2808      	cmp	r0, #8
    3a16:	d83e      	bhi.n	3a96 <system_clock_source_get_hz+0x8a>
    3a18:	f000 fcda 	bl	43d0 <__gnu_thumb1_case_uqi>
    3a1c:	053d3d08 	.word	0x053d3d08
    3a20:	180c1405 	.word	0x180c1405
    3a24:	33          	.byte	0x33
    3a25:	00          	.byte	0x00

	case SYSTEM_CLOCK_SOURCE_OSC8M:
		return 8000000UL >> SYSCTRL->OSC8M.bit.PRESC;

	case SYSTEM_CLOCK_SOURCE_OSC32K:
		return 32768UL;
    3a26:	2080      	movs	r0, #128	; 0x80
    3a28:	0200      	lsls	r0, r0, #8
    3a2a:	e037      	b.n	3a9c <system_clock_source_get_hz+0x90>
uint32_t system_clock_source_get_hz(
		const enum system_clock_source clock_source)
{
	switch (clock_source) {
	case SYSTEM_CLOCK_SOURCE_XOSC:
		return _system_clock_inst.xosc.frequency;
    3a2c:	4b1d      	ldr	r3, [pc, #116]	; (3aa4 <system_clock_source_get_hz+0x98>)
    3a2e:	447b      	add	r3, pc
    3a30:	6918      	ldr	r0, [r3, #16]
    3a32:	e033      	b.n	3a9c <system_clock_source_get_hz+0x90>

	case SYSTEM_CLOCK_SOURCE_OSC8M:
		return 8000000UL >> SYSCTRL->OSC8M.bit.PRESC;
    3a34:	4b1c      	ldr	r3, [pc, #112]	; (3aa8 <system_clock_source_get_hz+0x9c>)
    3a36:	6a18      	ldr	r0, [r3, #32]
    3a38:	0580      	lsls	r0, r0, #22
    3a3a:	0f80      	lsrs	r0, r0, #30
    3a3c:	4b1b      	ldr	r3, [pc, #108]	; (3aac <system_clock_source_get_hz+0xa0>)
    3a3e:	40c3      	lsrs	r3, r0
    3a40:	1c18      	adds	r0, r3, #0
    3a42:	e02b      	b.n	3a9c <system_clock_source_get_hz+0x90>

	case SYSTEM_CLOCK_SOURCE_ULP32K:
		return 32768UL;

	case SYSTEM_CLOCK_SOURCE_XOSC32K:
		return _system_clock_inst.xosc32k.frequency;
    3a44:	4b1a      	ldr	r3, [pc, #104]	; (3ab0 <system_clock_source_get_hz+0xa4>)
    3a46:	447b      	add	r3, pc
    3a48:	6958      	ldr	r0, [r3, #20]
    3a4a:	e027      	b.n	3a9c <system_clock_source_get_hz+0x90>

	case SYSTEM_CLOCK_SOURCE_DFLL:

		/* Check if the DFLL has been configured */
		if (!(_system_clock_inst.dfll.control & SYSCTRL_DFLLCTRL_ENABLE))
    3a4c:	4a19      	ldr	r2, [pc, #100]	; (3ab4 <system_clock_source_get_hz+0xa8>)
    3a4e:	447a      	add	r2, pc
    3a50:	6812      	ldr	r2, [r2, #0]
    3a52:	2002      	movs	r0, #2
    3a54:	4010      	ands	r0, r2
    3a56:	d021      	beq.n	3a9c <system_clock_source_get_hz+0x90>
 * \internal
 * \brief Wait for sync to the DFLL control registers.
 */
static inline void _system_dfll_wait_for_sync(void)
{
	while (!(SYSCTRL->PCLKSR.reg & SYSCTRL_PCLKSR_DFLLRDY)) {
    3a58:	4813      	ldr	r0, [pc, #76]	; (3aa8 <system_clock_source_get_hz+0x9c>)
    3a5a:	2110      	movs	r1, #16
    3a5c:	68c2      	ldr	r2, [r0, #12]
    3a5e:	4211      	tst	r1, r2
    3a60:	d0fc      	beq.n	3a5c <system_clock_source_get_hz+0x50>

		/* Make sure that the DFLL module is ready */
		_system_dfll_wait_for_sync();

		/* Check if operating in closed loop mode */
		if (_system_clock_inst.dfll.control & SYSCTRL_DFLLCTRL_MODE) {
    3a62:	4a15      	ldr	r2, [pc, #84]	; (3ab8 <system_clock_source_get_hz+0xac>)
    3a64:	447a      	add	r2, pc
    3a66:	6812      	ldr	r2, [r2, #0]
    3a68:	0751      	lsls	r1, r2, #29
    3a6a:	d516      	bpl.n	3a9a <system_clock_source_get_hz+0x8e>
			return system_gclk_chan_get_hz(SYSCTRL_GCLK_ID_DFLL48) *
    3a6c:	2000      	movs	r0, #0
    3a6e:	4a13      	ldr	r2, [pc, #76]	; (3abc <system_clock_source_get_hz+0xb0>)
    3a70:	589a      	ldr	r2, [r3, r2]
    3a72:	4790      	blx	r2
					(_system_clock_inst.dfll.mul & 0xffff);
    3a74:	4b12      	ldr	r3, [pc, #72]	; (3ac0 <system_clock_source_get_hz+0xb4>)
    3a76:	447b      	add	r3, pc
    3a78:	689b      	ldr	r3, [r3, #8]
    3a7a:	041b      	lsls	r3, r3, #16
    3a7c:	0c1b      	lsrs	r3, r3, #16
		/* Make sure that the DFLL module is ready */
		_system_dfll_wait_for_sync();

		/* Check if operating in closed loop mode */
		if (_system_clock_inst.dfll.control & SYSCTRL_DFLLCTRL_MODE) {
			return system_gclk_chan_get_hz(SYSCTRL_GCLK_ID_DFLL48) *
    3a7e:	4358      	muls	r0, r3
    3a80:	e00c      	b.n	3a9c <system_clock_source_get_hz+0x90>

		return 48000000UL;

#ifdef FEATURE_SYSTEM_CLOCK_DPLL
	case SYSTEM_CLOCK_SOURCE_DPLL:
		if (!(SYSCTRL->DPLLSTATUS.reg & SYSCTRL_DPLLSTATUS_ENABLE)) {
    3a82:	2350      	movs	r3, #80	; 0x50
    3a84:	4a08      	ldr	r2, [pc, #32]	; (3aa8 <system_clock_source_get_hz+0x9c>)
    3a86:	5cd3      	ldrb	r3, [r2, r3]
			return 0;
    3a88:	2000      	movs	r0, #0

		return 48000000UL;

#ifdef FEATURE_SYSTEM_CLOCK_DPLL
	case SYSTEM_CLOCK_SOURCE_DPLL:
		if (!(SYSCTRL->DPLLSTATUS.reg & SYSCTRL_DPLLSTATUS_ENABLE)) {
    3a8a:	075a      	lsls	r2, r3, #29
    3a8c:	d506      	bpl.n	3a9c <system_clock_source_get_hz+0x90>
			return 0;
		}

		return _system_clock_inst.dpll.frequency;
    3a8e:	4b0d      	ldr	r3, [pc, #52]	; (3ac4 <system_clock_source_get_hz+0xb8>)
    3a90:	447b      	add	r3, pc
    3a92:	68d8      	ldr	r0, [r3, #12]
    3a94:	e002      	b.n	3a9c <system_clock_source_get_hz+0x90>
#endif

	default:
		return 0;
    3a96:	2000      	movs	r0, #0
    3a98:	e000      	b.n	3a9c <system_clock_source_get_hz+0x90>
		if (_system_clock_inst.dfll.control & SYSCTRL_DFLLCTRL_MODE) {
			return system_gclk_chan_get_hz(SYSCTRL_GCLK_ID_DFLL48) *
					(_system_clock_inst.dfll.mul & 0xffff);
		}

		return 48000000UL;
    3a9a:	480b      	ldr	r0, [pc, #44]	; (3ac8 <system_clock_source_get_hz+0xbc>)
#endif

	default:
		return 0;
	}
}
    3a9c:	b003      	add	sp, #12
    3a9e:	bd00      	pop	{pc}
    3aa0:	00000d16 	.word	0x00000d16
    3aa4:	1fffe306 	.word	0x1fffe306
    3aa8:	40000800 	.word	0x40000800
    3aac:	007a1200 	.word	0x007a1200
    3ab0:	1fffe2ee 	.word	0x1fffe2ee
    3ab4:	1fffe2e6 	.word	0x1fffe2e6
    3ab8:	1fffe2d0 	.word	0x1fffe2d0
    3abc:	00000114 	.word	0x00000114
    3ac0:	1fffe2be 	.word	0x1fffe2be
    3ac4:	1fffe2a4 	.word	0x1fffe2a4
    3ac8:	02dc6c00 	.word	0x02dc6c00

00003acc <system_clock_source_osc8m_set_config>:
 *
 * \param[in] config  OSC8M configuration structure containing the new config
 */
void system_clock_source_osc8m_set_config(
		struct system_clock_source_osc8m_config *const config)
{
    3acc:	b570      	push	{r4, r5, r6, lr}
	SYSCTRL_OSC8M_Type temp = SYSCTRL->OSC8M;
    3ace:	4b0c      	ldr	r3, [pc, #48]	; (3b00 <system_clock_source_osc8m_set_config+0x34>)
    3ad0:	6a1c      	ldr	r4, [r3, #32]

	/* Use temporary struct to reduce register access */
	temp.bit.PRESC    = config->prescaler;
    3ad2:	7801      	ldrb	r1, [r0, #0]
	temp.bit.ONDEMAND = config->on_demand;
    3ad4:	7885      	ldrb	r5, [r0, #2]
	temp.bit.RUNSTDBY = config->run_in_standby;

	SYSCTRL->OSC8M = temp;
    3ad6:	7840      	ldrb	r0, [r0, #1]
    3ad8:	2201      	movs	r2, #1
    3ada:	4010      	ands	r0, r2
    3adc:	0180      	lsls	r0, r0, #6
    3ade:	2640      	movs	r6, #64	; 0x40
    3ae0:	43b4      	bics	r4, r6
    3ae2:	4304      	orrs	r4, r0
    3ae4:	402a      	ands	r2, r5
    3ae6:	01d0      	lsls	r0, r2, #7
    3ae8:	2280      	movs	r2, #128	; 0x80
    3aea:	4394      	bics	r4, r2
    3aec:	1c22      	adds	r2, r4, #0
    3aee:	4302      	orrs	r2, r0
    3af0:	2003      	movs	r0, #3
    3af2:	4001      	ands	r1, r0
    3af4:	0209      	lsls	r1, r1, #8
    3af6:	4803      	ldr	r0, [pc, #12]	; (3b04 <system_clock_source_osc8m_set_config+0x38>)
    3af8:	4002      	ands	r2, r0
    3afa:	430a      	orrs	r2, r1
    3afc:	621a      	str	r2, [r3, #32]
}
    3afe:	bd70      	pop	{r4, r5, r6, pc}
    3b00:	40000800 	.word	0x40000800
    3b04:	fffffcff 	.word	0xfffffcff

00003b08 <system_clock_source_xosc32k_set_config>:
 *
 * \param[in] config  XOSC32K configuration structure containing the new config
 */
void system_clock_source_xosc32k_set_config(
		struct system_clock_source_xosc32k_config *const config)
{
    3b08:	b5f0      	push	{r4, r5, r6, r7, lr}
    3b0a:	465f      	mov	r7, fp
    3b0c:	4656      	mov	r6, sl
    3b0e:	464d      	mov	r5, r9
    3b10:	4644      	mov	r4, r8
    3b12:	b4f0      	push	{r4, r5, r6, r7}
	SYSCTRL_XOSC32K_Type temp = SYSCTRL->XOSC32K;
    3b14:	4a26      	ldr	r2, [pc, #152]	; (3bb0 <system_clock_source_xosc32k_set_config+0xa8>)
    3b16:	8a94      	ldrh	r4, [r2, #20]

	temp.bit.STARTUP = config->startup_time;
    3b18:	7845      	ldrb	r5, [r0, #1]

	if (config->external_clock == SYSTEM_CLOCK_EXTERNAL_CRYSTAL) {
    3b1a:	7803      	ldrb	r3, [r0, #0]
    3b1c:	4259      	negs	r1, r3
    3b1e:	4159      	adcs	r1, r3
    3b20:	468a      	mov	sl, r1
		temp.bit.XTALEN = 1;
	} else {
		temp.bit.XTALEN = 0;
	}

	temp.bit.AAMPEN = config->auto_gain_control;
    3b22:	7883      	ldrb	r3, [r0, #2]
    3b24:	469c      	mov	ip, r3
	temp.bit.EN1K = config->enable_1khz_output;
    3b26:	78c1      	ldrb	r1, [r0, #3]
    3b28:	4688      	mov	r8, r1
	temp.bit.EN32K = config->enable_32khz_output;
    3b2a:	7903      	ldrb	r3, [r0, #4]
    3b2c:	4699      	mov	r9, r3

	temp.bit.ONDEMAND = config->on_demand;
    3b2e:	7b46      	ldrb	r6, [r0, #13]
	temp.bit.RUNSTDBY = config->run_in_standby;
    3b30:	7b07      	ldrb	r7, [r0, #12]
	temp.bit.WRTLOCK  = config->write_once;
    3b32:	7b81      	ldrb	r1, [r0, #14]
    3b34:	468b      	mov	fp, r1

	/* Cache the new frequency in case the user needs to check the current
	 * operating frequency later */
	_system_clock_inst.xosc32k.frequency = config->frequency;
    3b36:	6880      	ldr	r0, [r0, #8]
    3b38:	4b1e      	ldr	r3, [pc, #120]	; (3bb4 <system_clock_source_xosc32k_set_config+0xac>)
    3b3a:	447b      	add	r3, pc
    3b3c:	6158      	str	r0, [r3, #20]

	SYSCTRL->XOSC32K = temp;
    3b3e:	2301      	movs	r3, #1
    3b40:	4651      	mov	r1, sl
    3b42:	0088      	lsls	r0, r1, #2
    3b44:	2104      	movs	r1, #4
    3b46:	438c      	bics	r4, r1
    3b48:	4304      	orrs	r4, r0
    3b4a:	4648      	mov	r0, r9
    3b4c:	4018      	ands	r0, r3
    3b4e:	00c0      	lsls	r0, r0, #3
    3b50:	2108      	movs	r1, #8
    3b52:	438c      	bics	r4, r1
    3b54:	4304      	orrs	r4, r0
    3b56:	4640      	mov	r0, r8
    3b58:	4018      	ands	r0, r3
    3b5a:	0100      	lsls	r0, r0, #4
    3b5c:	2110      	movs	r1, #16
    3b5e:	438c      	bics	r4, r1
    3b60:	4304      	orrs	r4, r0
    3b62:	4660      	mov	r0, ip
    3b64:	4018      	ands	r0, r3
    3b66:	0140      	lsls	r0, r0, #5
    3b68:	2120      	movs	r1, #32
    3b6a:	438c      	bics	r4, r1
    3b6c:	4304      	orrs	r4, r0
    3b6e:	1c18      	adds	r0, r3, #0
    3b70:	4038      	ands	r0, r7
    3b72:	0180      	lsls	r0, r0, #6
    3b74:	2740      	movs	r7, #64	; 0x40
    3b76:	43bc      	bics	r4, r7
    3b78:	4304      	orrs	r4, r0
    3b7a:	1c18      	adds	r0, r3, #0
    3b7c:	4030      	ands	r0, r6
    3b7e:	01c0      	lsls	r0, r0, #7
    3b80:	2680      	movs	r6, #128	; 0x80
    3b82:	43b4      	bics	r4, r6
    3b84:	4304      	orrs	r4, r0
    3b86:	2007      	movs	r0, #7
    3b88:	4028      	ands	r0, r5
    3b8a:	0200      	lsls	r0, r0, #8
    3b8c:	4d0a      	ldr	r5, [pc, #40]	; (3bb8 <system_clock_source_xosc32k_set_config+0xb0>)
    3b8e:	402c      	ands	r4, r5
    3b90:	4304      	orrs	r4, r0
    3b92:	4659      	mov	r1, fp
    3b94:	400b      	ands	r3, r1
    3b96:	0319      	lsls	r1, r3, #12
    3b98:	4808      	ldr	r0, [pc, #32]	; (3bbc <system_clock_source_xosc32k_set_config+0xb4>)
    3b9a:	1c23      	adds	r3, r4, #0
    3b9c:	4003      	ands	r3, r0
    3b9e:	430b      	orrs	r3, r1
    3ba0:	8293      	strh	r3, [r2, #20]
}
    3ba2:	bc3c      	pop	{r2, r3, r4, r5}
    3ba4:	4690      	mov	r8, r2
    3ba6:	4699      	mov	r9, r3
    3ba8:	46a2      	mov	sl, r4
    3baa:	46ab      	mov	fp, r5
    3bac:	bdf0      	pop	{r4, r5, r6, r7, pc}
    3bae:	46c0      	nop			; (mov r8, r8)
    3bb0:	40000800 	.word	0x40000800
    3bb4:	1fffe1fa 	.word	0x1fffe1fa
    3bb8:	fffff8ff 	.word	0xfffff8ff
    3bbc:	ffffefff 	.word	0xffffefff

00003bc0 <system_clock_source_dpll_set_config>:
 *
 * \param[in] config  DPLL configuration structure containing the new config
 */
void system_clock_source_dpll_set_config(
		struct system_clock_source_dpll_config *const config)
{
    3bc0:	b5f0      	push	{r4, r5, r6, r7, lr}
    3bc2:	b083      	sub	sp, #12
    3bc4:	1c04      	adds	r4, r0, #0
    3bc6:	4e26      	ldr	r6, [pc, #152]	; (3c60 <system_clock_source_dpll_set_config+0xa0>)
    3bc8:	447e      	add	r6, pc

	uint32_t tmpldr;
	uint8_t  tmpldrfrac;
	uint32_t refclk;

	refclk = config->reference_frequency;
    3bca:	68c5      	ldr	r5, [r0, #12]

	/* Only reference clock REF1 can be divided */
	if (config->reference_clock == SYSTEM_CLOCK_SOURCE_DPLL_REFERENCE_CLOCK_XOSC) {
    3bcc:	7d03      	ldrb	r3, [r0, #20]
    3bce:	2b01      	cmp	r3, #1
    3bd0:	d107      	bne.n	3be2 <system_clock_source_dpll_set_config+0x22>
		refclk = refclk / (2 * (config->reference_divider + 1));
    3bd2:	8a01      	ldrh	r1, [r0, #16]
    3bd4:	3101      	adds	r1, #1
    3bd6:	0049      	lsls	r1, r1, #1
    3bd8:	4b22      	ldr	r3, [pc, #136]	; (3c64 <system_clock_source_dpll_set_config+0xa4>)
    3bda:	58f3      	ldr	r3, [r6, r3]
    3bdc:	1c28      	adds	r0, r5, #0
    3bde:	4798      	blx	r3
    3be0:	1c05      	adds	r5, r0, #0
	}

	/* Calculate LDRFRAC and LDR */
	tmpldr = (config->output_frequency << 4) / refclk;
    3be2:	68a3      	ldr	r3, [r4, #8]
    3be4:	0118      	lsls	r0, r3, #4
    3be6:	4b1f      	ldr	r3, [pc, #124]	; (3c64 <system_clock_source_dpll_set_config+0xa4>)
    3be8:	58f3      	ldr	r3, [r6, r3]
    3bea:	1c29      	adds	r1, r5, #0
    3bec:	4798      	blx	r3
	tmpldrfrac = tmpldr & 0x0f;
    3bee:	220f      	movs	r2, #15
    3bf0:	4002      	ands	r2, r0
	tmpldr = (tmpldr >> 4) - 1;
    3bf2:	0900      	lsrs	r0, r0, #4

	SYSCTRL->DPLLCTRLA.reg =
    3bf4:	7866      	ldrb	r6, [r4, #1]
    3bf6:	01b6      	lsls	r6, r6, #6
    3bf8:	7823      	ldrb	r3, [r4, #0]
    3bfa:	01db      	lsls	r3, r3, #7
    3bfc:	431e      	orrs	r6, r3
    3bfe:	b2f6      	uxtb	r6, r6
    3c00:	4b19      	ldr	r3, [pc, #100]	; (3c68 <system_clock_source_dpll_set_config+0xa8>)
    3c02:	2144      	movs	r1, #68	; 0x44
    3c04:	545e      	strb	r6, [r3, r1]
			((uint32_t)config->on_demand << SYSCTRL_DPLLCTRLA_ONDEMAND_Pos) |
			((uint32_t)config->run_in_standby << SYSCTRL_DPLLCTRLA_RUNSTDBY_Pos);

	SYSCTRL->DPLLRATIO.reg =
			SYSCTRL_DPLLRATIO_LDRFRAC(tmpldrfrac) |
    3c06:	0416      	lsls	r6, r2, #16
	}

	/* Calculate LDRFRAC and LDR */
	tmpldr = (config->output_frequency << 4) / refclk;
	tmpldrfrac = tmpldr & 0x0f;
	tmpldr = (tmpldr >> 4) - 1;
    3c08:	1e41      	subs	r1, r0, #1
			((uint32_t)config->on_demand << SYSCTRL_DPLLCTRLA_ONDEMAND_Pos) |
			((uint32_t)config->run_in_standby << SYSCTRL_DPLLCTRLA_RUNSTDBY_Pos);

	SYSCTRL->DPLLRATIO.reg =
			SYSCTRL_DPLLRATIO_LDRFRAC(tmpldrfrac) |
			SYSCTRL_DPLLRATIO_LDR(tmpldr);
    3c0a:	0509      	lsls	r1, r1, #20
    3c0c:	0d09      	lsrs	r1, r1, #20
	SYSCTRL->DPLLCTRLA.reg =
			((uint32_t)config->on_demand << SYSCTRL_DPLLCTRLA_ONDEMAND_Pos) |
			((uint32_t)config->run_in_standby << SYSCTRL_DPLLCTRLA_RUNSTDBY_Pos);

	SYSCTRL->DPLLRATIO.reg =
			SYSCTRL_DPLLRATIO_LDRFRAC(tmpldrfrac) |
    3c0e:	4331      	orrs	r1, r6

	SYSCTRL->DPLLCTRLA.reg =
			((uint32_t)config->on_demand << SYSCTRL_DPLLCTRLA_ONDEMAND_Pos) |
			((uint32_t)config->run_in_standby << SYSCTRL_DPLLCTRLA_RUNSTDBY_Pos);

	SYSCTRL->DPLLRATIO.reg =
    3c10:	6499      	str	r1, [r3, #72]	; 0x48
	SYSCTRL->DPLLCTRLB.reg =
			SYSCTRL_DPLLCTRLB_DIV(config->reference_divider) |
			((uint32_t)config->lock_bypass << SYSCTRL_DPLLCTRLB_LBYPASS_Pos) |
			SYSCTRL_DPLLCTRLB_LTIME(config->lock_time) |
			SYSCTRL_DPLLCTRLB_REFCLK(config->reference_clock) |
			((uint32_t)config->wake_up_fast << SYSCTRL_DPLLCTRLB_WUF_Pos) |
    3c12:	78e6      	ldrb	r6, [r4, #3]
    3c14:	00f6      	lsls	r6, r6, #3
			SYSCTRL_DPLLRATIO_LDRFRAC(tmpldrfrac) |
			SYSCTRL_DPLLRATIO_LDR(tmpldr);

	SYSCTRL->DPLLCTRLB.reg =
			SYSCTRL_DPLLCTRLB_DIV(config->reference_divider) |
			((uint32_t)config->lock_bypass << SYSCTRL_DPLLCTRLB_LBYPASS_Pos) |
    3c16:	78a1      	ldrb	r1, [r4, #2]
    3c18:	0309      	lsls	r1, r1, #12
	SYSCTRL->DPLLRATIO.reg =
			SYSCTRL_DPLLRATIO_LDRFRAC(tmpldrfrac) |
			SYSCTRL_DPLLRATIO_LDR(tmpldr);

	SYSCTRL->DPLLCTRLB.reg =
			SYSCTRL_DPLLCTRLB_DIV(config->reference_divider) |
    3c1a:	4331      	orrs	r1, r6
			((uint32_t)config->lock_bypass << SYSCTRL_DPLLCTRLB_LBYPASS_Pos) |
			SYSCTRL_DPLLCTRLB_LTIME(config->lock_time) |
			SYSCTRL_DPLLCTRLB_REFCLK(config->reference_clock) |
			((uint32_t)config->wake_up_fast << SYSCTRL_DPLLCTRLB_WUF_Pos) |
			((uint32_t)config->low_power_enable << SYSCTRL_DPLLCTRLB_LPEN_Pos) |
    3c1c:	7926      	ldrb	r6, [r4, #4]
    3c1e:	00b6      	lsls	r6, r6, #2
			SYSCTRL_DPLLRATIO_LDRFRAC(tmpldrfrac) |
			SYSCTRL_DPLLRATIO_LDR(tmpldr);

	SYSCTRL->DPLLCTRLB.reg =
			SYSCTRL_DPLLCTRLB_DIV(config->reference_divider) |
			((uint32_t)config->lock_bypass << SYSCTRL_DPLLCTRLB_LBYPASS_Pos) |
    3c20:	4331      	orrs	r1, r6
			SYSCTRL_DPLLCTRLB_LTIME(config->lock_time) |
			SYSCTRL_DPLLCTRLB_REFCLK(config->reference_clock) |
			((uint32_t)config->wake_up_fast << SYSCTRL_DPLLCTRLB_WUF_Pos) |
			((uint32_t)config->low_power_enable << SYSCTRL_DPLLCTRLB_LPEN_Pos) |
			SYSCTRL_DPLLCTRLB_FILTER(config->filter);
    3c22:	7ca6      	ldrb	r6, [r4, #18]
    3c24:	2703      	movs	r7, #3
    3c26:	403e      	ands	r6, r7
			SYSCTRL_DPLLRATIO_LDR(tmpldr);

	SYSCTRL->DPLLCTRLB.reg =
			SYSCTRL_DPLLCTRLB_DIV(config->reference_divider) |
			((uint32_t)config->lock_bypass << SYSCTRL_DPLLCTRLB_LBYPASS_Pos) |
			SYSCTRL_DPLLCTRLB_LTIME(config->lock_time) |
    3c28:	4331      	orrs	r1, r6
	SYSCTRL->DPLLRATIO.reg =
			SYSCTRL_DPLLRATIO_LDRFRAC(tmpldrfrac) |
			SYSCTRL_DPLLRATIO_LDR(tmpldr);

	SYSCTRL->DPLLCTRLB.reg =
			SYSCTRL_DPLLCTRLB_DIV(config->reference_divider) |
    3c2a:	8a26      	ldrh	r6, [r4, #16]
    3c2c:	0436      	lsls	r6, r6, #16
    3c2e:	4f0f      	ldr	r7, [pc, #60]	; (3c6c <system_clock_source_dpll_set_config+0xac>)
    3c30:	403e      	ands	r6, r7
			((uint32_t)config->lock_bypass << SYSCTRL_DPLLCTRLB_LBYPASS_Pos) |
			SYSCTRL_DPLLCTRLB_LTIME(config->lock_time) |
			SYSCTRL_DPLLCTRLB_REFCLK(config->reference_clock) |
    3c32:	4331      	orrs	r1, r6
			SYSCTRL_DPLLRATIO_LDR(tmpldr);

	SYSCTRL->DPLLCTRLB.reg =
			SYSCTRL_DPLLCTRLB_DIV(config->reference_divider) |
			((uint32_t)config->lock_bypass << SYSCTRL_DPLLCTRLB_LBYPASS_Pos) |
			SYSCTRL_DPLLCTRLB_LTIME(config->lock_time) |
    3c34:	7ce7      	ldrb	r7, [r4, #19]
    3c36:	023f      	lsls	r7, r7, #8
    3c38:	26e0      	movs	r6, #224	; 0xe0
    3c3a:	00f6      	lsls	r6, r6, #3
    3c3c:	403e      	ands	r6, r7
			SYSCTRL_DPLLCTRLB_REFCLK(config->reference_clock) |
			((uint32_t)config->wake_up_fast << SYSCTRL_DPLLCTRLB_WUF_Pos) |
    3c3e:	4331      	orrs	r1, r6

	SYSCTRL->DPLLCTRLB.reg =
			SYSCTRL_DPLLCTRLB_DIV(config->reference_divider) |
			((uint32_t)config->lock_bypass << SYSCTRL_DPLLCTRLB_LBYPASS_Pos) |
			SYSCTRL_DPLLCTRLB_LTIME(config->lock_time) |
			SYSCTRL_DPLLCTRLB_REFCLK(config->reference_clock) |
    3c40:	7d24      	ldrb	r4, [r4, #20]
    3c42:	0124      	lsls	r4, r4, #4
    3c44:	2630      	movs	r6, #48	; 0x30
    3c46:	4034      	ands	r4, r6
			((uint32_t)config->wake_up_fast << SYSCTRL_DPLLCTRLB_WUF_Pos) |
			((uint32_t)config->low_power_enable << SYSCTRL_DPLLCTRLB_LPEN_Pos) |
    3c48:	4321      	orrs	r1, r4

	SYSCTRL->DPLLRATIO.reg =
			SYSCTRL_DPLLRATIO_LDRFRAC(tmpldrfrac) |
			SYSCTRL_DPLLRATIO_LDR(tmpldr);

	SYSCTRL->DPLLCTRLB.reg =
    3c4a:	64d9      	str	r1, [r3, #76]	; 0x4c

	/*
	 * Fck = Fckrx * (LDR + 1 + LDRFRAC / 16)
	 */
	_system_clock_inst.dpll.frequency =
			(refclk * (((tmpldr + 1) << 4) + tmpldrfrac)) >> 4;
    3c4c:	0100      	lsls	r0, r0, #4
    3c4e:	1812      	adds	r2, r2, r0
    3c50:	4355      	muls	r5, r2
    3c52:	092d      	lsrs	r5, r5, #4
			SYSCTRL_DPLLCTRLB_FILTER(config->filter);

	/*
	 * Fck = Fckrx * (LDR + 1 + LDRFRAC / 16)
	 */
	_system_clock_inst.dpll.frequency =
    3c54:	4b06      	ldr	r3, [pc, #24]	; (3c70 <system_clock_source_dpll_set_config+0xb0>)
    3c56:	447b      	add	r3, pc
    3c58:	60dd      	str	r5, [r3, #12]
			(refclk * (((tmpldr + 1) << 4) + tmpldrfrac)) >> 4;
}
    3c5a:	b003      	add	sp, #12
    3c5c:	bdf0      	pop	{r4, r5, r6, r7, pc}
    3c5e:	46c0      	nop			; (mov r8, r8)
    3c60:	00000b60 	.word	0x00000b60
    3c64:	00000160 	.word	0x00000160
    3c68:	40000800 	.word	0x40000800
    3c6c:	07ff0000 	.word	0x07ff0000
    3c70:	1fffe0de 	.word	0x1fffe0de

00003c74 <system_clock_source_enable>:
 * \retval STATUS_ERR_INVALID_ARG  The clock source is not available on this
 *                                 device
 */
enum status_code system_clock_source_enable(
		const enum system_clock_source clock_source)
{
    3c74:	b500      	push	{lr}
	switch (clock_source) {
    3c76:	2808      	cmp	r0, #8
    3c78:	d84f      	bhi.n	3d1a <system_clock_source_enable+0xa6>
    3c7a:	f000 fba9 	bl	43d0 <__gnu_thumb1_case_uqi>
    3c7e:	4e15      	.short	0x4e15
    3c80:	1c0e054e 	.word	0x1c0e054e
    3c84:	2307      	.short	0x2307
    3c86:	46          	.byte	0x46
    3c87:	00          	.byte	0x00
		break;
#endif

	case SYSTEM_CLOCK_SOURCE_ULP32K:
		/* Always enabled */
		return STATUS_OK;
    3c88:	2000      	movs	r0, #0
    3c8a:	e047      	b.n	3d1c <system_clock_source_enable+0xa8>
enum status_code system_clock_source_enable(
		const enum system_clock_source clock_source)
{
	switch (clock_source) {
	case SYSTEM_CLOCK_SOURCE_OSC8M:
		SYSCTRL->OSC8M.reg |= SYSCTRL_OSC8M_ENABLE;
    3c8c:	4b24      	ldr	r3, [pc, #144]	; (3d20 <system_clock_source_enable+0xac>)
    3c8e:	6a19      	ldr	r1, [r3, #32]
    3c90:	2202      	movs	r2, #2
    3c92:	430a      	orrs	r2, r1
    3c94:	621a      	str	r2, [r3, #32]
		return STATUS_OK;
    3c96:	2000      	movs	r0, #0
    3c98:	e040      	b.n	3d1c <system_clock_source_enable+0xa8>

	case SYSTEM_CLOCK_SOURCE_OSC32K:
		SYSCTRL->OSC32K.reg |= SYSCTRL_OSC32K_ENABLE;
    3c9a:	4b21      	ldr	r3, [pc, #132]	; (3d20 <system_clock_source_enable+0xac>)
    3c9c:	6999      	ldr	r1, [r3, #24]
    3c9e:	2202      	movs	r2, #2
    3ca0:	430a      	orrs	r2, r1
    3ca2:	619a      	str	r2, [r3, #24]
	default:
		Assert(false);
		return STATUS_ERR_INVALID_ARG;
	}

	return STATUS_OK;
    3ca4:	2000      	movs	r0, #0
		SYSCTRL->OSC8M.reg |= SYSCTRL_OSC8M_ENABLE;
		return STATUS_OK;

	case SYSTEM_CLOCK_SOURCE_OSC32K:
		SYSCTRL->OSC32K.reg |= SYSCTRL_OSC32K_ENABLE;
		break;
    3ca6:	e039      	b.n	3d1c <system_clock_source_enable+0xa8>

	case SYSTEM_CLOCK_SOURCE_XOSC:
		SYSCTRL->XOSC.reg |= SYSCTRL_XOSC_ENABLE;
    3ca8:	4b1d      	ldr	r3, [pc, #116]	; (3d20 <system_clock_source_enable+0xac>)
    3caa:	8a19      	ldrh	r1, [r3, #16]
    3cac:	2202      	movs	r2, #2
    3cae:	430a      	orrs	r2, r1
    3cb0:	821a      	strh	r2, [r3, #16]
	default:
		Assert(false);
		return STATUS_ERR_INVALID_ARG;
	}

	return STATUS_OK;
    3cb2:	2000      	movs	r0, #0
		SYSCTRL->OSC32K.reg |= SYSCTRL_OSC32K_ENABLE;
		break;

	case SYSTEM_CLOCK_SOURCE_XOSC:
		SYSCTRL->XOSC.reg |= SYSCTRL_XOSC_ENABLE;
		break;
    3cb4:	e032      	b.n	3d1c <system_clock_source_enable+0xa8>

	case SYSTEM_CLOCK_SOURCE_XOSC32K:
		SYSCTRL->XOSC32K.reg |= SYSCTRL_XOSC32K_ENABLE;
    3cb6:	4b1a      	ldr	r3, [pc, #104]	; (3d20 <system_clock_source_enable+0xac>)
    3cb8:	8a99      	ldrh	r1, [r3, #20]
    3cba:	2202      	movs	r2, #2
    3cbc:	430a      	orrs	r2, r1
    3cbe:	829a      	strh	r2, [r3, #20]
	default:
		Assert(false);
		return STATUS_ERR_INVALID_ARG;
	}

	return STATUS_OK;
    3cc0:	2000      	movs	r0, #0
		SYSCTRL->XOSC.reg |= SYSCTRL_XOSC_ENABLE;
		break;

	case SYSTEM_CLOCK_SOURCE_XOSC32K:
		SYSCTRL->XOSC32K.reg |= SYSCTRL_XOSC32K_ENABLE;
		break;
    3cc2:	e02b      	b.n	3d1c <system_clock_source_enable+0xa8>

	case SYSTEM_CLOCK_SOURCE_DFLL:
		_system_clock_inst.dfll.control |= SYSCTRL_DFLLCTRL_ENABLE;
    3cc4:	4a17      	ldr	r2, [pc, #92]	; (3d24 <system_clock_source_enable+0xb0>)
    3cc6:	447a      	add	r2, pc
    3cc8:	6811      	ldr	r1, [r2, #0]
    3cca:	2302      	movs	r3, #2
    3ccc:	4319      	orrs	r1, r3
    3cce:	6011      	str	r1, [r2, #0]

static inline void _system_clock_source_dfll_set_config_errata_9905(void)
{

	/* Disable ONDEMAND mode while writing configurations */
	SYSCTRL->DFLLCTRL.reg = SYSCTRL_DFLLCTRL_ENABLE;
    3cd0:	4a13      	ldr	r2, [pc, #76]	; (3d20 <system_clock_source_enable+0xac>)
    3cd2:	8493      	strh	r3, [r2, #36]	; 0x24
 * \internal
 * \brief Wait for sync to the DFLL control registers.
 */
static inline void _system_dfll_wait_for_sync(void)
{
	while (!(SYSCTRL->PCLKSR.reg & SYSCTRL_PCLKSR_DFLLRDY)) {
    3cd4:	1c11      	adds	r1, r2, #0
    3cd6:	2210      	movs	r2, #16
    3cd8:	68cb      	ldr	r3, [r1, #12]
    3cda:	421a      	tst	r2, r3
    3cdc:	d0fc      	beq.n	3cd8 <system_clock_source_enable+0x64>

	/* Disable ONDEMAND mode while writing configurations */
	SYSCTRL->DFLLCTRL.reg = SYSCTRL_DFLLCTRL_ENABLE;
	_system_dfll_wait_for_sync();

	SYSCTRL->DFLLMUL.reg = _system_clock_inst.dfll.mul;
    3cde:	4a12      	ldr	r2, [pc, #72]	; (3d28 <system_clock_source_enable+0xb4>)
    3ce0:	447a      	add	r2, pc
    3ce2:	6891      	ldr	r1, [r2, #8]
    3ce4:	4b0e      	ldr	r3, [pc, #56]	; (3d20 <system_clock_source_enable+0xac>)
    3ce6:	62d9      	str	r1, [r3, #44]	; 0x2c
	SYSCTRL->DFLLVAL.reg = _system_clock_inst.dfll.val;
    3ce8:	6852      	ldr	r2, [r2, #4]
    3cea:	629a      	str	r2, [r3, #40]	; 0x28

	/* Write full configuration to DFLL control register */
	SYSCTRL->DFLLCTRL.reg = 0;
    3cec:	2200      	movs	r2, #0
    3cee:	849a      	strh	r2, [r3, #36]	; 0x24
 * \internal
 * \brief Wait for sync to the DFLL control registers.
 */
static inline void _system_dfll_wait_for_sync(void)
{
	while (!(SYSCTRL->PCLKSR.reg & SYSCTRL_PCLKSR_DFLLRDY)) {
    3cf0:	1c19      	adds	r1, r3, #0
    3cf2:	2210      	movs	r2, #16
    3cf4:	68cb      	ldr	r3, [r1, #12]
    3cf6:	421a      	tst	r2, r3
    3cf8:	d0fc      	beq.n	3cf4 <system_clock_source_enable+0x80>
	SYSCTRL->DFLLVAL.reg = _system_clock_inst.dfll.val;

	/* Write full configuration to DFLL control register */
	SYSCTRL->DFLLCTRL.reg = 0;
	_system_dfll_wait_for_sync();
	SYSCTRL->DFLLCTRL.reg = _system_clock_inst.dfll.control;
    3cfa:	4b0c      	ldr	r3, [pc, #48]	; (3d2c <system_clock_source_enable+0xb8>)
    3cfc:	447b      	add	r3, pc
    3cfe:	681a      	ldr	r2, [r3, #0]
    3d00:	b292      	uxth	r2, r2
    3d02:	4b07      	ldr	r3, [pc, #28]	; (3d20 <system_clock_source_enable+0xac>)
    3d04:	849a      	strh	r2, [r3, #36]	; 0x24
	default:
		Assert(false);
		return STATUS_ERR_INVALID_ARG;
	}

	return STATUS_OK;
    3d06:	2000      	movs	r0, #0
    3d08:	e008      	b.n	3d1c <system_clock_source_enable+0xa8>
		_system_clock_source_dfll_set_config_errata_9905();
		break;

#ifdef FEATURE_SYSTEM_CLOCK_DPLL
	case SYSTEM_CLOCK_SOURCE_DPLL:
		SYSCTRL->DPLLCTRLA.reg |= SYSCTRL_DPLLCTRLA_ENABLE;
    3d0a:	4a05      	ldr	r2, [pc, #20]	; (3d20 <system_clock_source_enable+0xac>)
    3d0c:	2344      	movs	r3, #68	; 0x44
    3d0e:	5cd0      	ldrb	r0, [r2, r3]
    3d10:	2102      	movs	r1, #2
    3d12:	4301      	orrs	r1, r0
    3d14:	54d1      	strb	r1, [r2, r3]
	default:
		Assert(false);
		return STATUS_ERR_INVALID_ARG;
	}

	return STATUS_OK;
    3d16:	2000      	movs	r0, #0
		break;

#ifdef FEATURE_SYSTEM_CLOCK_DPLL
	case SYSTEM_CLOCK_SOURCE_DPLL:
		SYSCTRL->DPLLCTRLA.reg |= SYSCTRL_DPLLCTRLA_ENABLE;
		break;
    3d18:	e000      	b.n	3d1c <system_clock_source_enable+0xa8>
		/* Always enabled */
		return STATUS_OK;

	default:
		Assert(false);
		return STATUS_ERR_INVALID_ARG;
    3d1a:	2017      	movs	r0, #23
	}

	return STATUS_OK;
}
    3d1c:	bd00      	pop	{pc}
    3d1e:	46c0      	nop			; (mov r8, r8)
    3d20:	40000800 	.word	0x40000800
    3d24:	1fffe06e 	.word	0x1fffe06e
    3d28:	1fffe054 	.word	0x1fffe054
    3d2c:	1fffe038 	.word	0x1fffe038

00003d30 <system_clock_source_is_ready>:
 * \retval true   Clock source is enabled and ready
 * \retval false  Clock source is disabled or not yet ready
 */
bool system_clock_source_is_ready(
		const enum system_clock_source clock_source)
{
    3d30:	b500      	push	{lr}
	uint32_t mask = 0;

	switch (clock_source) {
    3d32:	2808      	cmp	r0, #8
    3d34:	d823      	bhi.n	3d7e <system_clock_source_is_ready+0x4e>
    3d36:	f000 fb4b 	bl	43d0 <__gnu_thumb1_case_uqi>
    3d3a:	2207      	.short	0x2207
    3d3c:	09190522 	.word	0x09190522
    3d40:	0b17      	.short	0x0b17
    3d42:	0d          	.byte	0x0d
    3d43:	00          	.byte	0x00
				(SYSCTRL_DPLLSTATUS_CLKRDY | SYSCTRL_DPLLSTATUS_LOCK));
#endif

	case SYSTEM_CLOCK_SOURCE_ULP32K:
		/* Not possible to disable */
		return true;
    3d44:	2001      	movs	r0, #1
    3d46:	e01b      	b.n	3d80 <system_clock_source_is_ready+0x50>
	case SYSTEM_CLOCK_SOURCE_OSC32K:
		mask = SYSCTRL_PCLKSR_OSC32KRDY;
		break;

	case SYSTEM_CLOCK_SOURCE_XOSC:
		mask = SYSCTRL_PCLKSR_XOSCRDY;
    3d48:	2301      	movs	r3, #1
		break;
    3d4a:	e010      	b.n	3d6e <system_clock_source_is_ready+0x3e>

	case SYSTEM_CLOCK_SOURCE_XOSC32K:
		mask = SYSCTRL_PCLKSR_XOSC32KRDY;
    3d4c:	2302      	movs	r3, #2
		break;
    3d4e:	e00e      	b.n	3d6e <system_clock_source_is_ready+0x3e>
	case SYSTEM_CLOCK_SOURCE_DFLL:
		if (CONF_CLOCK_DFLL_LOOP_MODE == SYSTEM_CLOCK_DFLL_LOOP_MODE_CLOSED) {
			mask = (SYSCTRL_PCLKSR_DFLLRDY |
			        SYSCTRL_PCLKSR_DFLLLCKF | SYSCTRL_PCLKSR_DFLLLCKC);
		} else {
			mask = SYSCTRL_PCLKSR_DFLLRDY;
    3d50:	2310      	movs	r3, #16
		}
		break;
    3d52:	e00c      	b.n	3d6e <system_clock_source_is_ready+0x3e>

#ifdef FEATURE_SYSTEM_CLOCK_DPLL
	case SYSTEM_CLOCK_SOURCE_DPLL:
		return ((SYSCTRL->DPLLSTATUS.reg &
    3d54:	2350      	movs	r3, #80	; 0x50
    3d56:	4a0b      	ldr	r2, [pc, #44]	; (3d84 <system_clock_source_is_ready+0x54>)
    3d58:	5cd0      	ldrb	r0, [r2, r3]
    3d5a:	2303      	movs	r3, #3
    3d5c:	4018      	ands	r0, r3
    3d5e:	3803      	subs	r0, #3
    3d60:	4243      	negs	r3, r0
    3d62:	4158      	adcs	r0, r3
    3d64:	b2c0      	uxtb	r0, r0
    3d66:	e00b      	b.n	3d80 <system_clock_source_is_ready+0x50>
{
	uint32_t mask = 0;

	switch (clock_source) {
	case SYSTEM_CLOCK_SOURCE_OSC8M:
		mask = SYSCTRL_PCLKSR_OSC8MRDY;
    3d68:	2308      	movs	r3, #8
    3d6a:	e000      	b.n	3d6e <system_clock_source_is_ready+0x3e>
		break;

	case SYSTEM_CLOCK_SOURCE_OSC32K:
		mask = SYSCTRL_PCLKSR_OSC32KRDY;
    3d6c:	2304      	movs	r3, #4

	default:
		return false;
	}

	return ((SYSCTRL->PCLKSR.reg & mask) == mask);
    3d6e:	4a05      	ldr	r2, [pc, #20]	; (3d84 <system_clock_source_is_ready+0x54>)
    3d70:	68d0      	ldr	r0, [r2, #12]
    3d72:	4018      	ands	r0, r3
    3d74:	1ac0      	subs	r0, r0, r3
    3d76:	4243      	negs	r3, r0
    3d78:	4158      	adcs	r0, r3
    3d7a:	b2c0      	uxtb	r0, r0
    3d7c:	e000      	b.n	3d80 <system_clock_source_is_ready+0x50>
	case SYSTEM_CLOCK_SOURCE_ULP32K:
		/* Not possible to disable */
		return true;

	default:
		return false;
    3d7e:	2000      	movs	r0, #0
	}

	return ((SYSCTRL->PCLKSR.reg & mask) == mask);
}
    3d80:	bd00      	pop	{pc}
    3d82:	46c0      	nop			; (mov r8, r8)
    3d84:	40000800 	.word	0x40000800

00003d88 <system_clock_init>:
 * \note OSC8M is always enabled and if user selects other clocks for GCLK generators,
 * the OSC8M default enable can be disabled after system_clock_init. Make sure the
 * clock switch successfully before disabling OSC8M.
 */
void system_clock_init(void)
{
    3d88:	b5f0      	push	{r4, r5, r6, r7, lr}
    3d8a:	b091      	sub	sp, #68	; 0x44
    3d8c:	4f48      	ldr	r7, [pc, #288]	; (3eb0 <system_clock_init+0x128>)
    3d8e:	447f      	add	r7, pc
	/* Various bits in the INTFLAG register can be set to one at startup.
	   This will ensure that these bits are cleared */
	SYSCTRL->INTFLAG.reg = SYSCTRL_INTFLAG_BOD33RDY | SYSCTRL_INTFLAG_BOD33DET |
    3d90:	22c2      	movs	r2, #194	; 0xc2
    3d92:	00d2      	lsls	r2, r2, #3
    3d94:	4b47      	ldr	r3, [pc, #284]	; (3eb4 <system_clock_init+0x12c>)
    3d96:	609a      	str	r2, [r3, #8]
static inline void system_flash_set_waitstates(uint8_t wait_states)
{
	Assert(NVMCTRL_CTRLB_RWS((uint32_t)wait_states) ==
			((uint32_t)wait_states << NVMCTRL_CTRLB_RWS_Pos));

	NVMCTRL->CTRLB.bit.RWS = wait_states;
    3d98:	4a47      	ldr	r2, [pc, #284]	; (3eb8 <system_clock_init+0x130>)
    3d9a:	6851      	ldr	r1, [r2, #4]
    3d9c:	231e      	movs	r3, #30
    3d9e:	4399      	bics	r1, r3
    3da0:	2302      	movs	r3, #2
    3da2:	4319      	orrs	r1, r3
    3da4:	6051      	str	r1, [r2, #4]
	struct system_gclk_chan_config gclk_conf;

#if CONF_CLOCK_GCLK_1_ENABLE == false
	gclk_conf.source_generator = GCLK_GENERATOR_1;
#elif CONF_CLOCK_GCLK_2_ENABLE == false
	gclk_conf.source_generator = GCLK_GENERATOR_2;
    3da6:	aa02      	add	r2, sp, #8
    3da8:	7013      	strb	r3, [r2, #0]
	gclk_conf.source_generator = GCLK_GENERATOR_7;
#else
	gclk_conf.source_generator = GCLK_GENERATOR_7;
#endif

	for (gclk_id = 0; gclk_id < GCLK_NUM; gclk_id++) {
    3daa:	2400      	movs	r4, #0
		system_gclk_chan_set_config(gclk_id, &gclk_conf);
    3dac:	1c16      	adds	r6, r2, #0
    3dae:	4b43      	ldr	r3, [pc, #268]	; (3ebc <system_clock_init+0x134>)
    3db0:	58fd      	ldr	r5, [r7, r3]
    3db2:	b2e0      	uxtb	r0, r4
    3db4:	1c31      	adds	r1, r6, #0
    3db6:	47a8      	blx	r5
	gclk_conf.source_generator = GCLK_GENERATOR_7;
#else
	gclk_conf.source_generator = GCLK_GENERATOR_7;
#endif

	for (gclk_id = 0; gclk_id < GCLK_NUM; gclk_id++) {
    3db8:	3401      	adds	r4, #1
    3dba:	2c25      	cmp	r4, #37	; 0x25
    3dbc:	d1f9      	bne.n	3db2 <system_clock_init+0x2a>
static inline void system_clock_source_xosc32k_get_config_defaults(
		struct system_clock_source_xosc32k_config *const config)
{
	Assert(config);

	config->external_clock      = SYSTEM_CLOCK_EXTERNAL_CRYSTAL;
    3dbe:	2300      	movs	r3, #0
    3dc0:	a80c      	add	r0, sp, #48	; 0x30
    3dc2:	7003      	strb	r3, [r0, #0]
	config->startup_time        = SYSTEM_XOSC32K_STARTUP_16384;
	config->auto_gain_control   = false;
    3dc4:	7083      	strb	r3, [r0, #2]
	config->frequency           = 32768UL;
    3dc6:	2280      	movs	r2, #128	; 0x80
    3dc8:	0212      	lsls	r2, r2, #8
    3dca:	6082      	str	r2, [r0, #8]
	config->enable_1khz_output  = false;
    3dcc:	70c3      	strb	r3, [r0, #3]
	config->enable_32khz_output = true;
    3dce:	2201      	movs	r2, #1
    3dd0:	7102      	strb	r2, [r0, #4]
	config->run_in_standby      = false;
    3dd2:	7303      	strb	r3, [r0, #12]
	config->on_demand           = true;
	config->write_once          = false;
    3dd4:	7383      	strb	r3, [r0, #14]
	struct system_clock_source_xosc32k_config xosc32k_conf;
	system_clock_source_xosc32k_get_config_defaults(&xosc32k_conf);

	xosc32k_conf.frequency           = 32768UL;
	xosc32k_conf.external_clock      = CONF_CLOCK_XOSC32K_EXTERNAL_CRYSTAL;
	xosc32k_conf.startup_time        = CONF_CLOCK_XOSC32K_STARTUP_TIME;
    3dd6:	2206      	movs	r2, #6
    3dd8:	7042      	strb	r2, [r0, #1]
	xosc32k_conf.auto_gain_control   = CONF_CLOCK_XOSC32K_AUTO_AMPLITUDE_CONTROL;
	xosc32k_conf.enable_1khz_output  = CONF_CLOCK_XOSC32K_ENABLE_1KHZ_OUPUT;
	xosc32k_conf.enable_32khz_output = CONF_CLOCK_XOSC32K_ENABLE_32KHZ_OUTPUT;
	xosc32k_conf.on_demand           = false;
    3dda:	7343      	strb	r3, [r0, #13]
	xosc32k_conf.run_in_standby      = CONF_CLOCK_XOSC32K_RUN_IN_STANDBY;

	system_clock_source_xosc32k_set_config(&xosc32k_conf);
    3ddc:	4b38      	ldr	r3, [pc, #224]	; (3ec0 <system_clock_init+0x138>)
    3dde:	58fb      	ldr	r3, [r7, r3]
    3de0:	4798      	blx	r3
	system_clock_source_enable(SYSTEM_CLOCK_SOURCE_XOSC32K);
    3de2:	2005      	movs	r0, #5
    3de4:	4b37      	ldr	r3, [pc, #220]	; (3ec4 <system_clock_init+0x13c>)
    3de6:	58fb      	ldr	r3, [r7, r3]
    3de8:	4798      	blx	r3
	while(!system_clock_source_is_ready(SYSTEM_CLOCK_SOURCE_XOSC32K));
    3dea:	4b37      	ldr	r3, [pc, #220]	; (3ec8 <system_clock_init+0x140>)
    3dec:	58fc      	ldr	r4, [r7, r3]
    3dee:	2005      	movs	r0, #5
    3df0:	47a0      	blx	r4
    3df2:	2800      	cmp	r0, #0
    3df4:	d0fb      	beq.n	3dee <system_clock_init+0x66>
	if (CONF_CLOCK_XOSC32K_ON_DEMAND) {
		SYSCTRL->XOSC32K.bit.ONDEMAND = 1;
    3df6:	4b2f      	ldr	r3, [pc, #188]	; (3eb4 <system_clock_init+0x12c>)
    3df8:	8a99      	ldrh	r1, [r3, #20]
    3dfa:	2280      	movs	r2, #128	; 0x80
    3dfc:	430a      	orrs	r2, r1
    3dfe:	829a      	strh	r2, [r3, #20]
		struct system_clock_source_osc8m_config *const config)
{
	Assert(config);

	config->prescaler       = SYSTEM_OSC8M_DIV_8;
	config->run_in_standby  = false;
    3e00:	2400      	movs	r4, #0
    3e02:	a80b      	add	r0, sp, #44	; 0x2c
    3e04:	7044      	strb	r4, [r0, #1]
	config->on_demand       = true;
    3e06:	2601      	movs	r6, #1
    3e08:	7086      	strb	r6, [r0, #2]

	/* OSC8M */
	struct system_clock_source_osc8m_config osc8m_conf;
	system_clock_source_osc8m_get_config_defaults(&osc8m_conf);

	osc8m_conf.prescaler       = CONF_CLOCK_OSC8M_PRESCALER;
    3e0a:	7004      	strb	r4, [r0, #0]
	osc8m_conf.on_demand       = CONF_CLOCK_OSC8M_ON_DEMAND;
	osc8m_conf.run_in_standby  = CONF_CLOCK_OSC8M_RUN_IN_STANDBY;

	system_clock_source_osc8m_set_config(&osc8m_conf);
    3e0c:	4b2f      	ldr	r3, [pc, #188]	; (3ecc <system_clock_init+0x144>)
    3e0e:	58fb      	ldr	r3, [r7, r3]
    3e10:	4798      	blx	r3
	system_clock_source_enable(SYSTEM_CLOCK_SOURCE_OSC8M);
    3e12:	2006      	movs	r0, #6
    3e14:	4b2b      	ldr	r3, [pc, #172]	; (3ec4 <system_clock_init+0x13c>)
    3e16:	58fd      	ldr	r5, [r7, r3]
    3e18:	47a8      	blx	r5


	/* GCLK */
#if CONF_CLOCK_CONFIGURE_GCLK == true
	system_gclk_init();
    3e1a:	4b2d      	ldr	r3, [pc, #180]	; (3ed0 <system_clock_init+0x148>)
    3e1c:	58fb      	ldr	r3, [r7, r3]
    3e1e:	4798      	blx	r3
{
	/* Sanity check arguments */
	Assert(config);

	/* Default configuration values */
	config->division_factor    = 1;
    3e20:	a902      	add	r1, sp, #8
    3e22:	604e      	str	r6, [r1, #4]
	config->high_when_disabled = false;
    3e24:	704c      	strb	r4, [r1, #1]
#elif (SAMC20) || (SAMC21)
	config->source_clock       = GCLK_SOURCE_OSC48M;
#else
	config->source_clock       = GCLK_SOURCE_OSC8M;
#endif
	config->run_in_standby     = false;
    3e26:	720c      	strb	r4, [r1, #8]
	config->output_enable      = false;
    3e28:	724c      	strb	r4, [r1, #9]

	/* Configure all GCLK generators except for the main generator, which
	 * is configured later after all other clock systems are set up */
	MREPEAT(GCLK_GEN_NUM, _CONF_CLOCK_GCLK_CONFIG_NONMAIN, ~);
    3e2a:	2305      	movs	r3, #5
    3e2c:	700b      	strb	r3, [r1, #0]
    3e2e:	2001      	movs	r0, #1
    3e30:	4b28      	ldr	r3, [pc, #160]	; (3ed4 <system_clock_init+0x14c>)
    3e32:	58fb      	ldr	r3, [r7, r3]
    3e34:	4798      	blx	r3
    3e36:	2001      	movs	r0, #1
    3e38:	4b27      	ldr	r3, [pc, #156]	; (3ed8 <system_clock_init+0x150>)
    3e3a:	58fb      	ldr	r3, [r7, r3]
    3e3c:	4798      	blx	r3
 */
static inline void system_clock_source_dpll_get_config_defaults(
		struct system_clock_source_dpll_config *const config)
{
	config->on_demand           = true;
	config->run_in_standby      = false;
    3e3e:	a805      	add	r0, sp, #20
    3e40:	7044      	strb	r4, [r0, #1]
	config->lock_bypass         = false;
    3e42:	7084      	strb	r4, [r0, #2]
	config->wake_up_fast        = false;
    3e44:	70c4      	strb	r4, [r0, #3]
	config->low_power_enable    = false;
    3e46:	7104      	strb	r4, [r0, #4]

	config->output_frequency    = 48000000;
    3e48:	4b24      	ldr	r3, [pc, #144]	; (3edc <system_clock_init+0x154>)
    3e4a:	6083      	str	r3, [r0, #8]
	config->reference_frequency = 32768;
    3e4c:	2380      	movs	r3, #128	; 0x80
    3e4e:	021b      	lsls	r3, r3, #8
    3e50:	60c3      	str	r3, [r0, #12]
	config->reference_divider   = 1;
    3e52:	8206      	strh	r6, [r0, #16]
	config->reference_clock     = SYSTEM_CLOCK_SOURCE_DPLL_REFERENCE_CLOCK_XOSC32K;
    3e54:	7504      	strb	r4, [r0, #20]

	config->lock_time           = SYSTEM_CLOCK_SOURCE_DPLL_LOCK_TIME_DEFAULT;
    3e56:	74c4      	strb	r4, [r0, #19]
	config->filter              = SYSTEM_CLOCK_SOURCE_DPLL_FILTER_DEFAULT;
    3e58:	7484      	strb	r4, [r0, #18]
	}

	struct system_clock_source_dpll_config dpll_config;
	system_clock_source_dpll_get_config_defaults(&dpll_config);

	dpll_config.on_demand        = false;
    3e5a:	7004      	strb	r4, [r0, #0]
	dpll_config.reference_clock     = CONF_CLOCK_DPLL_REFERENCE_CLOCK;
	dpll_config.reference_frequency = CONF_CLOCK_DPLL_REFERENCE_FREQUENCY;
	dpll_config.reference_divider   = CONF_CLOCK_DPLL_REFERENCE_DIVIDER;
	dpll_config.output_frequency    = CONF_CLOCK_DPLL_OUTPUT_FREQUENCY;

	system_clock_source_dpll_set_config(&dpll_config);
    3e5c:	4b20      	ldr	r3, [pc, #128]	; (3ee0 <system_clock_init+0x158>)
    3e5e:	58fb      	ldr	r3, [r7, r3]
    3e60:	4798      	blx	r3
	system_clock_source_enable(SYSTEM_CLOCK_SOURCE_DPLL);
    3e62:	2008      	movs	r0, #8
    3e64:	47a8      	blx	r5
	while(!system_clock_source_is_ready(SYSTEM_CLOCK_SOURCE_DPLL));
    3e66:	4b18      	ldr	r3, [pc, #96]	; (3ec8 <system_clock_init+0x140>)
    3e68:	58fc      	ldr	r4, [r7, r3]
    3e6a:	2008      	movs	r0, #8
    3e6c:	47a0      	blx	r4
    3e6e:	2800      	cmp	r0, #0
    3e70:	d0fb      	beq.n	3e6a <system_clock_init+0xe2>
	if (CONF_CLOCK_DPLL_ON_DEMAND) {
		SYSCTRL->DPLLCTRLA.bit.ONDEMAND = 1;
    3e72:	4a10      	ldr	r2, [pc, #64]	; (3eb4 <system_clock_init+0x12c>)
    3e74:	2344      	movs	r3, #68	; 0x44
    3e76:	5cd0      	ldrb	r0, [r2, r3]
    3e78:	2180      	movs	r1, #128	; 0x80
    3e7a:	4249      	negs	r1, r1
    3e7c:	4301      	orrs	r1, r0
    3e7e:	54d1      	strb	r1, [r2, r3]
 */
static inline void system_cpu_clock_set_divider(
		const enum system_main_clock_div divider)
{
	Assert(((uint32_t)divider & PM_CPUSEL_CPUDIV_Msk) == divider);
	PM->CPUSEL.reg = (uint32_t)divider;
    3e80:	4a18      	ldr	r2, [pc, #96]	; (3ee4 <system_clock_init+0x15c>)
    3e82:	2300      	movs	r3, #0
    3e84:	7213      	strb	r3, [r2, #8]
		const enum system_clock_apb_bus bus,
		const enum system_main_clock_div divider)
{
	switch (bus) {
		case SYSTEM_CLOCK_APB_APBA:
			PM->APBASEL.reg = (uint32_t)divider;
    3e86:	7253      	strb	r3, [r2, #9]
			break;
		case SYSTEM_CLOCK_APB_APBB:
			PM->APBBSEL.reg = (uint32_t)divider;
    3e88:	7293      	strb	r3, [r2, #10]
			break;
		case SYSTEM_CLOCK_APB_APBC:
			PM->APBCSEL.reg = (uint32_t)divider;
    3e8a:	72d3      	strb	r3, [r2, #11]
{
	/* Sanity check arguments */
	Assert(config);

	/* Default configuration values */
	config->division_factor    = 1;
    3e8c:	2201      	movs	r2, #1
    3e8e:	a902      	add	r1, sp, #8
    3e90:	604a      	str	r2, [r1, #4]
	config->high_when_disabled = false;
    3e92:	704b      	strb	r3, [r1, #1]
#elif (SAMC20) || (SAMC21)
	config->source_clock       = GCLK_SOURCE_OSC48M;
#else
	config->source_clock       = GCLK_SOURCE_OSC8M;
#endif
	config->run_in_standby     = false;
    3e94:	720b      	strb	r3, [r1, #8]
	config->output_enable      = false;
    3e96:	724b      	strb	r3, [r1, #9]
	system_apb_clock_set_divider(SYSTEM_CLOCK_APB_APBC, CONF_CLOCK_APBC_DIVIDER);

	/* GCLK 0 */
#if CONF_CLOCK_CONFIGURE_GCLK == true
	/* Configure the main GCLK last as it might depend on other generators */
	_CONF_CLOCK_GCLK_CONFIG(0, ~);
    3e98:	2308      	movs	r3, #8
    3e9a:	700b      	strb	r3, [r1, #0]
    3e9c:	2000      	movs	r0, #0
    3e9e:	4b0d      	ldr	r3, [pc, #52]	; (3ed4 <system_clock_init+0x14c>)
    3ea0:	58fb      	ldr	r3, [r7, r3]
    3ea2:	4798      	blx	r3
    3ea4:	2000      	movs	r0, #0
    3ea6:	4b0c      	ldr	r3, [pc, #48]	; (3ed8 <system_clock_init+0x150>)
    3ea8:	58fb      	ldr	r3, [r7, r3]
    3eaa:	4798      	blx	r3
#endif
}
    3eac:	b011      	add	sp, #68	; 0x44
    3eae:	bdf0      	pop	{r4, r5, r6, r7, pc}
    3eb0:	0000099a 	.word	0x0000099a
    3eb4:	40000800 	.word	0x40000800
    3eb8:	41004000 	.word	0x41004000
    3ebc:	00000070 	.word	0x00000070
    3ec0:	00000184 	.word	0x00000184
    3ec4:	000001bc 	.word	0x000001bc
    3ec8:	000001e8 	.word	0x000001e8
    3ecc:	000000bc 	.word	0x000000bc
    3ed0:	00000214 	.word	0x00000214
    3ed4:	0000009c 	.word	0x0000009c
    3ed8:	00000134 	.word	0x00000134
    3edc:	02dc6c00 	.word	0x02dc6c00
    3ee0:	00000000 	.word	0x00000000
    3ee4:	40000400 	.word	0x40000400

00003ee8 <system_gclk_init>:
		const enum system_clock_apb_bus bus,
		const uint32_t mask)
{
	switch (bus) {
		case SYSTEM_CLOCK_APB_APBA:
			PM->APBAMASK.reg |= mask;
    3ee8:	4b06      	ldr	r3, [pc, #24]	; (3f04 <system_gclk_init+0x1c>)
    3eea:	6999      	ldr	r1, [r3, #24]
    3eec:	2208      	movs	r2, #8
    3eee:	430a      	orrs	r2, r1
    3ef0:	619a      	str	r2, [r3, #24]
{
	/* Turn on the digital interface clock */
	system_apb_clock_set_mask(SYSTEM_CLOCK_APB_APBA, PM_APBAMASK_GCLK);

	/* Software reset the module to ensure it is re-initialized correctly */
	GCLK->CTRL.reg = GCLK_CTRL_SWRST;
    3ef2:	2201      	movs	r2, #1
    3ef4:	4b04      	ldr	r3, [pc, #16]	; (3f08 <system_gclk_init+0x20>)
    3ef6:	701a      	strb	r2, [r3, #0]
	while (GCLK->CTRL.reg & GCLK_CTRL_SWRST) {
    3ef8:	1c19      	adds	r1, r3, #0
    3efa:	780b      	ldrb	r3, [r1, #0]
    3efc:	4213      	tst	r3, r2
    3efe:	d1fc      	bne.n	3efa <system_gclk_init+0x12>
		/* Wait for reset to complete */
	}
}
    3f00:	4770      	bx	lr
    3f02:	46c0      	nop			; (mov r8, r8)
    3f04:	40000400 	.word	0x40000400
    3f08:	40000c00 	.word	0x40000c00

00003f0c <system_gclk_gen_set_config>:
 * \param[in] config     Configuration settings for the generator
 */
void system_gclk_gen_set_config(
		const uint8_t generator,
		struct system_gclk_gen_config *const config)
{
    3f0c:	b5f0      	push	{r4, r5, r6, r7, lr}
    3f0e:	4647      	mov	r7, r8
    3f10:	b480      	push	{r7}
    3f12:	b082      	sub	sp, #8
    3f14:	1c07      	adds	r7, r0, #0
    3f16:	4e2d      	ldr	r6, [pc, #180]	; (3fcc <system_gclk_gen_set_config+0xc0>)
    3f18:	447e      	add	r6, pc
	/* Sanity check arguments */
	Assert(config);

	/* Cache new register configurations to minimize sync requirements. */
	uint32_t new_genctrl_config = (generator << GCLK_GENCTRL_ID_Pos);
    3f1a:	4680      	mov	r8, r0
	uint32_t new_gendiv_config  = (generator << GCLK_GENDIV_ID_Pos);

	/* Select the requested source clock for the generator */
	new_genctrl_config |= config->source_clock << GCLK_GENCTRL_SRC_Pos;
    3f1c:	780d      	ldrb	r5, [r1, #0]
    3f1e:	022d      	lsls	r5, r5, #8
    3f20:	4305      	orrs	r5, r0

	/* Configure the clock to be either high or low when disabled */
	if (config->high_when_disabled) {
    3f22:	784b      	ldrb	r3, [r1, #1]
    3f24:	2b00      	cmp	r3, #0
    3f26:	d002      	beq.n	3f2e <system_gclk_gen_set_config+0x22>
		new_genctrl_config |= GCLK_GENCTRL_OOV;
    3f28:	2380      	movs	r3, #128	; 0x80
    3f2a:	02db      	lsls	r3, r3, #11
    3f2c:	431d      	orrs	r5, r3
	}

	/* Configure if the clock output to I/O pin should be enabled. */
	if (config->output_enable) {
    3f2e:	7a4b      	ldrb	r3, [r1, #9]
    3f30:	2b00      	cmp	r3, #0
    3f32:	d002      	beq.n	3f3a <system_gclk_gen_set_config+0x2e>
		new_genctrl_config |= GCLK_GENCTRL_OE;
    3f34:	2380      	movs	r3, #128	; 0x80
    3f36:	031b      	lsls	r3, r3, #12
    3f38:	431d      	orrs	r5, r3
	}

	/* Set division factor */
	if (config->division_factor > 1) {
    3f3a:	684c      	ldr	r4, [r1, #4]
    3f3c:	2c01      	cmp	r4, #1
    3f3e:	d919      	bls.n	3f74 <system_gclk_gen_set_config+0x68>
		/* Check if division is a power of two */
		if (((config->division_factor & (config->division_factor - 1)) == 0)) {
    3f40:	1e63      	subs	r3, r4, #1
    3f42:	421c      	tst	r4, r3
    3f44:	d110      	bne.n	3f68 <system_gclk_gen_set_config+0x5c>
			 * register */

			uint32_t div2_count = 0;

			uint32_t mask;
			for (mask = (1UL << 1); mask < config->division_factor;
    3f46:	2c02      	cmp	r4, #2
    3f48:	d906      	bls.n	3f58 <system_gclk_gen_set_config+0x4c>
    3f4a:	2302      	movs	r3, #2
    3f4c:	2200      	movs	r2, #0
						mask <<= 1) {
				div2_count++;
    3f4e:	3201      	adds	r2, #1

			uint32_t div2_count = 0;

			uint32_t mask;
			for (mask = (1UL << 1); mask < config->division_factor;
						mask <<= 1) {
    3f50:	005b      	lsls	r3, r3, #1
			 * register */

			uint32_t div2_count = 0;

			uint32_t mask;
			for (mask = (1UL << 1); mask < config->division_factor;
    3f52:	429c      	cmp	r4, r3
    3f54:	d8fb      	bhi.n	3f4e <system_gclk_gen_set_config+0x42>
    3f56:	e000      	b.n	3f5a <system_gclk_gen_set_config+0x4e>
    3f58:	2200      	movs	r2, #0
						mask <<= 1) {
				div2_count++;
			}

			/* Set binary divider power of 2 division factor */
			new_gendiv_config  |= div2_count << GCLK_GENDIV_DIV_Pos;
    3f5a:	0212      	lsls	r2, r2, #8
    3f5c:	433a      	orrs	r2, r7
    3f5e:	4690      	mov	r8, r2
			new_genctrl_config |= GCLK_GENCTRL_DIVSEL;
    3f60:	2380      	movs	r3, #128	; 0x80
    3f62:	035b      	lsls	r3, r3, #13
    3f64:	431d      	orrs	r5, r3
    3f66:	e005      	b.n	3f74 <system_gclk_gen_set_config+0x68>
		} else {
			/* Set integer division factor */

			new_gendiv_config  |=
					(config->division_factor) << GCLK_GENDIV_DIV_Pos;
    3f68:	0224      	lsls	r4, r4, #8
			new_gendiv_config  |= div2_count << GCLK_GENDIV_DIV_Pos;
			new_genctrl_config |= GCLK_GENCTRL_DIVSEL;
		} else {
			/* Set integer division factor */

			new_gendiv_config  |=
    3f6a:	433c      	orrs	r4, r7
    3f6c:	46a0      	mov	r8, r4
					(config->division_factor) << GCLK_GENDIV_DIV_Pos;

			/* Enable non-binary division with increased duty cycle accuracy */
			new_genctrl_config |= GCLK_GENCTRL_IDC;
    3f6e:	2380      	movs	r3, #128	; 0x80
    3f70:	029b      	lsls	r3, r3, #10
    3f72:	431d      	orrs	r5, r3
		}

	}

	/* Enable or disable the clock in standby mode */
	if (config->run_in_standby) {
    3f74:	7a0b      	ldrb	r3, [r1, #8]
    3f76:	2b00      	cmp	r3, #0
    3f78:	d002      	beq.n	3f80 <system_gclk_gen_set_config+0x74>
		new_genctrl_config |= GCLK_GENCTRL_RUNSTDBY;
    3f7a:	2380      	movs	r3, #128	; 0x80
    3f7c:	039b      	lsls	r3, r3, #14
    3f7e:	431d      	orrs	r5, r3
 * \retval false if the module has completed synchronization
 * \retval true if the module synchronization is ongoing
 */
static inline bool system_gclk_is_syncing(void)
{
	if (GCLK->STATUS.reg & GCLK_STATUS_SYNCBUSY){
    3f80:	4a13      	ldr	r2, [pc, #76]	; (3fd0 <system_gclk_gen_set_config+0xc4>)
    3f82:	7853      	ldrb	r3, [r2, #1]
	/* Enable or disable the clock in standby mode */
	if (config->run_in_standby) {
		new_genctrl_config |= GCLK_GENCTRL_RUNSTDBY;
	}

	while (system_gclk_is_syncing()) {
    3f84:	b25b      	sxtb	r3, r3
    3f86:	2b00      	cmp	r3, #0
    3f88:	dbfb      	blt.n	3f82 <system_gclk_gen_set_config+0x76>
 * are only re-enabled upon leaving the outermost nested critical section.
 *
 */
static inline void system_interrupt_enter_critical_section(void)
{
	cpu_irq_enter_critical();
    3f8a:	4b12      	ldr	r3, [pc, #72]	; (3fd4 <system_gclk_gen_set_config+0xc8>)
    3f8c:	58f3      	ldr	r3, [r6, r3]
    3f8e:	4798      	blx	r3
	};

	system_interrupt_enter_critical_section();

	/* Select the correct generator */
	*((uint8_t*)&GCLK->GENDIV.reg) = generator;
    3f90:	4b11      	ldr	r3, [pc, #68]	; (3fd8 <system_gclk_gen_set_config+0xcc>)
    3f92:	701f      	strb	r7, [r3, #0]
 * \retval false if the module has completed synchronization
 * \retval true if the module synchronization is ongoing
 */
static inline bool system_gclk_is_syncing(void)
{
	if (GCLK->STATUS.reg & GCLK_STATUS_SYNCBUSY){
    3f94:	4a0e      	ldr	r2, [pc, #56]	; (3fd0 <system_gclk_gen_set_config+0xc4>)
    3f96:	7853      	ldrb	r3, [r2, #1]

	/* Select the correct generator */
	*((uint8_t*)&GCLK->GENDIV.reg) = generator;

	/* Write the new generator configuration */
	while (system_gclk_is_syncing()) {
    3f98:	b25b      	sxtb	r3, r3
    3f9a:	2b00      	cmp	r3, #0
    3f9c:	dbfb      	blt.n	3f96 <system_gclk_gen_set_config+0x8a>
		/* Wait for synchronization */
	};
	GCLK->GENDIV.reg  = new_gendiv_config;
    3f9e:	4b0c      	ldr	r3, [pc, #48]	; (3fd0 <system_gclk_gen_set_config+0xc4>)
    3fa0:	4642      	mov	r2, r8
    3fa2:	609a      	str	r2, [r3, #8]
 * \retval false if the module has completed synchronization
 * \retval true if the module synchronization is ongoing
 */
static inline bool system_gclk_is_syncing(void)
{
	if (GCLK->STATUS.reg & GCLK_STATUS_SYNCBUSY){
    3fa4:	1c1a      	adds	r2, r3, #0
    3fa6:	7853      	ldrb	r3, [r2, #1]
	while (system_gclk_is_syncing()) {
		/* Wait for synchronization */
	};
	GCLK->GENDIV.reg  = new_gendiv_config;

	while (system_gclk_is_syncing()) {
    3fa8:	b25b      	sxtb	r3, r3
    3faa:	2b00      	cmp	r3, #0
    3fac:	dbfb      	blt.n	3fa6 <system_gclk_gen_set_config+0x9a>
		/* Wait for synchronization */
	};
	GCLK->GENCTRL.reg = new_genctrl_config | (GCLK->GENCTRL.reg & GCLK_GENCTRL_GENEN);
    3fae:	4b08      	ldr	r3, [pc, #32]	; (3fd0 <system_gclk_gen_set_config+0xc4>)
    3fb0:	6859      	ldr	r1, [r3, #4]
    3fb2:	2280      	movs	r2, #128	; 0x80
    3fb4:	0252      	lsls	r2, r2, #9
    3fb6:	400a      	ands	r2, r1
    3fb8:	4315      	orrs	r5, r2
    3fba:	605d      	str	r5, [r3, #4]
 * are only re-enabled upon leaving the outermost nested critical section.
 *
 */
static inline void system_interrupt_leave_critical_section(void)
{
	cpu_irq_leave_critical();
    3fbc:	4b07      	ldr	r3, [pc, #28]	; (3fdc <system_gclk_gen_set_config+0xd0>)
    3fbe:	58f3      	ldr	r3, [r6, r3]
    3fc0:	4798      	blx	r3

	system_interrupt_leave_critical_section();
}
    3fc2:	b002      	add	sp, #8
    3fc4:	bc04      	pop	{r2}
    3fc6:	4690      	mov	r8, r2
    3fc8:	bdf0      	pop	{r4, r5, r6, r7, pc}
    3fca:	46c0      	nop			; (mov r8, r8)
    3fcc:	00000810 	.word	0x00000810
    3fd0:	40000c00 	.word	0x40000c00
    3fd4:	00000084 	.word	0x00000084
    3fd8:	40000c08 	.word	0x40000c08
    3fdc:	00000004 	.word	0x00000004

00003fe0 <system_gclk_gen_enable>:
 *
 * \param[in] generator  Generic Clock Generator index to enable
 */
void system_gclk_gen_enable(
		const uint8_t generator)
{
    3fe0:	b530      	push	{r4, r5, lr}
    3fe2:	b083      	sub	sp, #12
    3fe4:	1c05      	adds	r5, r0, #0
    3fe6:	4c0e      	ldr	r4, [pc, #56]	; (4020 <system_gclk_gen_enable+0x40>)
    3fe8:	447c      	add	r4, pc
 * \retval false if the module has completed synchronization
 * \retval true if the module synchronization is ongoing
 */
static inline bool system_gclk_is_syncing(void)
{
	if (GCLK->STATUS.reg & GCLK_STATUS_SYNCBUSY){
    3fea:	4a0e      	ldr	r2, [pc, #56]	; (4024 <system_gclk_gen_enable+0x44>)
    3fec:	7853      	ldrb	r3, [r2, #1]
 * \param[in] generator  Generic Clock Generator index to enable
 */
void system_gclk_gen_enable(
		const uint8_t generator)
{
	while (system_gclk_is_syncing()) {
    3fee:	b25b      	sxtb	r3, r3
    3ff0:	2b00      	cmp	r3, #0
    3ff2:	dbfb      	blt.n	3fec <system_gclk_gen_enable+0xc>
 * are only re-enabled upon leaving the outermost nested critical section.
 *
 */
static inline void system_interrupt_enter_critical_section(void)
{
	cpu_irq_enter_critical();
    3ff4:	4b0c      	ldr	r3, [pc, #48]	; (4028 <system_gclk_gen_enable+0x48>)
    3ff6:	58e3      	ldr	r3, [r4, r3]
    3ff8:	4798      	blx	r3
	};

	system_interrupt_enter_critical_section();

	/* Select the requested generator */
	*((uint8_t*)&GCLK->GENCTRL.reg) = generator;
    3ffa:	4b0c      	ldr	r3, [pc, #48]	; (402c <system_gclk_gen_enable+0x4c>)
    3ffc:	701d      	strb	r5, [r3, #0]
 * \retval false if the module has completed synchronization
 * \retval true if the module synchronization is ongoing
 */
static inline bool system_gclk_is_syncing(void)
{
	if (GCLK->STATUS.reg & GCLK_STATUS_SYNCBUSY){
    3ffe:	4a09      	ldr	r2, [pc, #36]	; (4024 <system_gclk_gen_enable+0x44>)
    4000:	7853      	ldrb	r3, [r2, #1]

	system_interrupt_enter_critical_section();

	/* Select the requested generator */
	*((uint8_t*)&GCLK->GENCTRL.reg) = generator;
	while (system_gclk_is_syncing()) {
    4002:	b25b      	sxtb	r3, r3
    4004:	2b00      	cmp	r3, #0
    4006:	dbfb      	blt.n	4000 <system_gclk_gen_enable+0x20>
		/* Wait for synchronization */
	};

	/* Enable generator */
	GCLK->GENCTRL.reg |= GCLK_GENCTRL_GENEN;
    4008:	4b06      	ldr	r3, [pc, #24]	; (4024 <system_gclk_gen_enable+0x44>)
    400a:	6859      	ldr	r1, [r3, #4]
    400c:	2280      	movs	r2, #128	; 0x80
    400e:	0252      	lsls	r2, r2, #9
    4010:	430a      	orrs	r2, r1
    4012:	605a      	str	r2, [r3, #4]
 * are only re-enabled upon leaving the outermost nested critical section.
 *
 */
static inline void system_interrupt_leave_critical_section(void)
{
	cpu_irq_leave_critical();
    4014:	4b06      	ldr	r3, [pc, #24]	; (4030 <system_gclk_gen_enable+0x50>)
    4016:	58e3      	ldr	r3, [r4, r3]
    4018:	4798      	blx	r3

	system_interrupt_leave_critical_section();
}
    401a:	b003      	add	sp, #12
    401c:	bd30      	pop	{r4, r5, pc}
    401e:	46c0      	nop			; (mov r8, r8)
    4020:	00000740 	.word	0x00000740
    4024:	40000c00 	.word	0x40000c00
    4028:	00000084 	.word	0x00000084
    402c:	40000c04 	.word	0x40000c04
    4030:	00000004 	.word	0x00000004

00004034 <system_gclk_gen_get_hz>:
 *
 * \return The frequency of the generic clock generator, in Hz.
 */
uint32_t system_gclk_gen_get_hz(
		const uint8_t generator)
{
    4034:	b5f0      	push	{r4, r5, r6, r7, lr}
    4036:	b083      	sub	sp, #12
    4038:	1c05      	adds	r5, r0, #0
    403a:	4c1e      	ldr	r4, [pc, #120]	; (40b4 <system_gclk_gen_get_hz+0x80>)
    403c:	447c      	add	r4, pc
 * \retval false if the module has completed synchronization
 * \retval true if the module synchronization is ongoing
 */
static inline bool system_gclk_is_syncing(void)
{
	if (GCLK->STATUS.reg & GCLK_STATUS_SYNCBUSY){
    403e:	4a1e      	ldr	r2, [pc, #120]	; (40b8 <system_gclk_gen_get_hz+0x84>)
    4040:	7853      	ldrb	r3, [r2, #1]
 * \return The frequency of the generic clock generator, in Hz.
 */
uint32_t system_gclk_gen_get_hz(
		const uint8_t generator)
{
	while (system_gclk_is_syncing()) {
    4042:	b25b      	sxtb	r3, r3
    4044:	2b00      	cmp	r3, #0
    4046:	dbfb      	blt.n	4040 <system_gclk_gen_get_hz+0xc>
 * are only re-enabled upon leaving the outermost nested critical section.
 *
 */
static inline void system_interrupt_enter_critical_section(void)
{
	cpu_irq_enter_critical();
    4048:	4b1c      	ldr	r3, [pc, #112]	; (40bc <system_gclk_gen_get_hz+0x88>)
    404a:	58e3      	ldr	r3, [r4, r3]
    404c:	4798      	blx	r3
	};

	system_interrupt_enter_critical_section();

	/* Select the appropriate generator */
	*((uint8_t*)&GCLK->GENCTRL.reg) = generator;
    404e:	4b1c      	ldr	r3, [pc, #112]	; (40c0 <system_gclk_gen_get_hz+0x8c>)
    4050:	701d      	strb	r5, [r3, #0]
 * \retval false if the module has completed synchronization
 * \retval true if the module synchronization is ongoing
 */
static inline bool system_gclk_is_syncing(void)
{
	if (GCLK->STATUS.reg & GCLK_STATUS_SYNCBUSY){
    4052:	4a19      	ldr	r2, [pc, #100]	; (40b8 <system_gclk_gen_get_hz+0x84>)
    4054:	7853      	ldrb	r3, [r2, #1]

	system_interrupt_enter_critical_section();

	/* Select the appropriate generator */
	*((uint8_t*)&GCLK->GENCTRL.reg) = generator;
	while (system_gclk_is_syncing()) {
    4056:	b25b      	sxtb	r3, r3
    4058:	2b00      	cmp	r3, #0
    405a:	dbfb      	blt.n	4054 <system_gclk_gen_get_hz+0x20>
		/* Wait for synchronization */
	};

	/* Get the frequency of the source connected to the GCLK generator */
	uint32_t gen_input_hz = system_clock_source_get_hz(
			(enum system_clock_source)GCLK->GENCTRL.bit.SRC);
    405c:	4f16      	ldr	r7, [pc, #88]	; (40b8 <system_gclk_gen_get_hz+0x84>)
    405e:	6878      	ldr	r0, [r7, #4]
    4060:	04c0      	lsls	r0, r0, #19
    4062:	0ec0      	lsrs	r0, r0, #27
	while (system_gclk_is_syncing()) {
		/* Wait for synchronization */
	};

	/* Get the frequency of the source connected to the GCLK generator */
	uint32_t gen_input_hz = system_clock_source_get_hz(
    4064:	4b17      	ldr	r3, [pc, #92]	; (40c4 <system_gclk_gen_get_hz+0x90>)
    4066:	58e3      	ldr	r3, [r4, r3]
    4068:	4798      	blx	r3
    406a:	1c06      	adds	r6, r0, #0
			(enum system_clock_source)GCLK->GENCTRL.bit.SRC);

	*((uint8_t*)&GCLK->GENCTRL.reg) = generator;
    406c:	4b14      	ldr	r3, [pc, #80]	; (40c0 <system_gclk_gen_get_hz+0x8c>)
    406e:	701d      	strb	r5, [r3, #0]

	uint8_t divsel = GCLK->GENCTRL.bit.DIVSEL;
    4070:	687f      	ldr	r7, [r7, #4]
    4072:	02ff      	lsls	r7, r7, #11
    4074:	0fff      	lsrs	r7, r7, #31

	/* Select the appropriate generator division register */
	*((uint8_t*)&GCLK->GENDIV.reg) = generator;
    4076:	4b14      	ldr	r3, [pc, #80]	; (40c8 <system_gclk_gen_get_hz+0x94>)
    4078:	701d      	strb	r5, [r3, #0]
 * \retval false if the module has completed synchronization
 * \retval true if the module synchronization is ongoing
 */
static inline bool system_gclk_is_syncing(void)
{
	if (GCLK->STATUS.reg & GCLK_STATUS_SYNCBUSY){
    407a:	4a0f      	ldr	r2, [pc, #60]	; (40b8 <system_gclk_gen_get_hz+0x84>)
    407c:	7853      	ldrb	r3, [r2, #1]

	uint8_t divsel = GCLK->GENCTRL.bit.DIVSEL;

	/* Select the appropriate generator division register */
	*((uint8_t*)&GCLK->GENDIV.reg) = generator;
	while (system_gclk_is_syncing()) {
    407e:	b25b      	sxtb	r3, r3
    4080:	2b00      	cmp	r3, #0
    4082:	dbfb      	blt.n	407c <system_gclk_gen_get_hz+0x48>
		/* Wait for synchronization */
	};

	uint32_t divider = GCLK->GENDIV.bit.DIV;
    4084:	4b0c      	ldr	r3, [pc, #48]	; (40b8 <system_gclk_gen_get_hz+0x84>)
    4086:	689d      	ldr	r5, [r3, #8]
    4088:	0a2d      	lsrs	r5, r5, #8
    408a:	b2ad      	uxth	r5, r5
 * are only re-enabled upon leaving the outermost nested critical section.
 *
 */
static inline void system_interrupt_leave_critical_section(void)
{
	cpu_irq_leave_critical();
    408c:	4b0f      	ldr	r3, [pc, #60]	; (40cc <system_gclk_gen_get_hz+0x98>)
    408e:	58e3      	ldr	r3, [r4, r3]
    4090:	4798      	blx	r3

	system_interrupt_leave_critical_section();

	/* Check if the generator is using fractional or binary division */
	if (!divsel && divider > 1) {
    4092:	2f00      	cmp	r7, #0
    4094:	d108      	bne.n	40a8 <system_gclk_gen_get_hz+0x74>
    4096:	2d01      	cmp	r5, #1
    4098:	d908      	bls.n	40ac <system_gclk_gen_get_hz+0x78>
		gen_input_hz /= divider;
    409a:	4b0d      	ldr	r3, [pc, #52]	; (40d0 <system_gclk_gen_get_hz+0x9c>)
    409c:	58e3      	ldr	r3, [r4, r3]
    409e:	1c30      	adds	r0, r6, #0
    40a0:	1c29      	adds	r1, r5, #0
    40a2:	4798      	blx	r3
    40a4:	1c06      	adds	r6, r0, #0
    40a6:	e001      	b.n	40ac <system_gclk_gen_get_hz+0x78>
	} else if (divsel) {
		gen_input_hz >>= (divider+1);
    40a8:	3501      	adds	r5, #1
    40aa:	40ee      	lsrs	r6, r5
	}

	return gen_input_hz;
}
    40ac:	1c30      	adds	r0, r6, #0
    40ae:	b003      	add	sp, #12
    40b0:	bdf0      	pop	{r4, r5, r6, r7, pc}
    40b2:	46c0      	nop			; (mov r8, r8)
    40b4:	000006ec 	.word	0x000006ec
    40b8:	40000c00 	.word	0x40000c00
    40bc:	00000084 	.word	0x00000084
    40c0:	40000c04 	.word	0x40000c04
    40c4:	000001d4 	.word	0x000001d4
    40c8:	40000c08 	.word	0x40000c08
    40cc:	00000004 	.word	0x00000004
    40d0:	00000160 	.word	0x00000160

000040d4 <system_gclk_chan_enable>:
 *
 * \param[in] channel   Generic Clock channel to enable
 */
void system_gclk_chan_enable(
		const uint8_t channel)
{
    40d4:	b530      	push	{r4, r5, lr}
    40d6:	b083      	sub	sp, #12
    40d8:	1c05      	adds	r5, r0, #0
    40da:	4c09      	ldr	r4, [pc, #36]	; (4100 <system_gclk_chan_enable+0x2c>)
    40dc:	447c      	add	r4, pc
 * are only re-enabled upon leaving the outermost nested critical section.
 *
 */
static inline void system_interrupt_enter_critical_section(void)
{
	cpu_irq_enter_critical();
    40de:	4b09      	ldr	r3, [pc, #36]	; (4104 <system_gclk_chan_enable+0x30>)
    40e0:	58e3      	ldr	r3, [r4, r3]
    40e2:	4798      	blx	r3
	system_interrupt_enter_critical_section();

	/* Select the requested generator channel */
	*((uint8_t*)&GCLK->CLKCTRL.reg) = channel;
    40e4:	4b08      	ldr	r3, [pc, #32]	; (4108 <system_gclk_chan_enable+0x34>)
    40e6:	701d      	strb	r5, [r3, #0]

	/* Enable the generic clock */
	GCLK->CLKCTRL.reg |= GCLK_CLKCTRL_CLKEN;
    40e8:	4b08      	ldr	r3, [pc, #32]	; (410c <system_gclk_chan_enable+0x38>)
    40ea:	8859      	ldrh	r1, [r3, #2]
    40ec:	2280      	movs	r2, #128	; 0x80
    40ee:	01d2      	lsls	r2, r2, #7
    40f0:	430a      	orrs	r2, r1
    40f2:	805a      	strh	r2, [r3, #2]
 * are only re-enabled upon leaving the outermost nested critical section.
 *
 */
static inline void system_interrupt_leave_critical_section(void)
{
	cpu_irq_leave_critical();
    40f4:	4b06      	ldr	r3, [pc, #24]	; (4110 <system_gclk_chan_enable+0x3c>)
    40f6:	58e3      	ldr	r3, [r4, r3]
    40f8:	4798      	blx	r3

	system_interrupt_leave_critical_section();
}
    40fa:	b003      	add	sp, #12
    40fc:	bd30      	pop	{r4, r5, pc}
    40fe:	46c0      	nop			; (mov r8, r8)
    4100:	0000064c 	.word	0x0000064c
    4104:	00000084 	.word	0x00000084
    4108:	40000c02 	.word	0x40000c02
    410c:	40000c00 	.word	0x40000c00
    4110:	00000004 	.word	0x00000004

00004114 <system_gclk_chan_disable>:
 *
 * \param[in] channel  Generic Clock channel to disable
 */
void system_gclk_chan_disable(
		const uint8_t channel)
{
    4114:	b530      	push	{r4, r5, lr}
    4116:	b083      	sub	sp, #12
    4118:	1c05      	adds	r5, r0, #0
    411a:	4c12      	ldr	r4, [pc, #72]	; (4164 <system_gclk_chan_disable+0x50>)
    411c:	447c      	add	r4, pc
 * are only re-enabled upon leaving the outermost nested critical section.
 *
 */
static inline void system_interrupt_enter_critical_section(void)
{
	cpu_irq_enter_critical();
    411e:	4b12      	ldr	r3, [pc, #72]	; (4168 <system_gclk_chan_disable+0x54>)
    4120:	58e3      	ldr	r3, [r4, r3]
    4122:	4798      	blx	r3
	system_interrupt_enter_critical_section();

	/* Select the requested generator channel */
	*((uint8_t*)&GCLK->CLKCTRL.reg) = channel;
    4124:	4b11      	ldr	r3, [pc, #68]	; (416c <system_gclk_chan_disable+0x58>)
    4126:	701d      	strb	r5, [r3, #0]

	/* Sanity check WRTLOCK */
	Assert(!GCLK->CLKCTRL.bit.WRTLOCK);

	/* Switch to known-working source so that the channel can be disabled */
	uint32_t prev_gen_id = GCLK->CLKCTRL.bit.GEN;
    4128:	4b11      	ldr	r3, [pc, #68]	; (4170 <system_gclk_chan_disable+0x5c>)
    412a:	8858      	ldrh	r0, [r3, #2]
    412c:	0500      	lsls	r0, r0, #20
    412e:	0f00      	lsrs	r0, r0, #28
	GCLK->CLKCTRL.bit.GEN = 0;
    4130:	8859      	ldrh	r1, [r3, #2]
    4132:	4a10      	ldr	r2, [pc, #64]	; (4174 <system_gclk_chan_disable+0x60>)
    4134:	400a      	ands	r2, r1
    4136:	805a      	strh	r2, [r3, #2]

	/* Disable the generic clock */
	GCLK->CLKCTRL.reg &= ~GCLK_CLKCTRL_CLKEN;
    4138:	8859      	ldrh	r1, [r3, #2]
    413a:	4a0f      	ldr	r2, [pc, #60]	; (4178 <system_gclk_chan_disable+0x64>)
    413c:	400a      	ands	r2, r1
    413e:	805a      	strh	r2, [r3, #2]
	while (GCLK->CLKCTRL.reg & GCLK_CLKCTRL_CLKEN) {
    4140:	1c19      	adds	r1, r3, #0
    4142:	2280      	movs	r2, #128	; 0x80
    4144:	01d2      	lsls	r2, r2, #7
    4146:	884b      	ldrh	r3, [r1, #2]
    4148:	4213      	tst	r3, r2
    414a:	d1fc      	bne.n	4146 <system_gclk_chan_disable+0x32>
		/* Wait for clock to become disabled */
	}

	/* Restore previous configured clock generator */
	GCLK->CLKCTRL.bit.GEN = prev_gen_id;
    414c:	4b08      	ldr	r3, [pc, #32]	; (4170 <system_gclk_chan_disable+0x5c>)
    414e:	0201      	lsls	r1, r0, #8
    4150:	8858      	ldrh	r0, [r3, #2]
    4152:	4a08      	ldr	r2, [pc, #32]	; (4174 <system_gclk_chan_disable+0x60>)
    4154:	4002      	ands	r2, r0
    4156:	430a      	orrs	r2, r1
    4158:	805a      	strh	r2, [r3, #2]
 * are only re-enabled upon leaving the outermost nested critical section.
 *
 */
static inline void system_interrupt_leave_critical_section(void)
{
	cpu_irq_leave_critical();
    415a:	4b08      	ldr	r3, [pc, #32]	; (417c <system_gclk_chan_disable+0x68>)
    415c:	58e3      	ldr	r3, [r4, r3]
    415e:	4798      	blx	r3

	system_interrupt_leave_critical_section();
}
    4160:	b003      	add	sp, #12
    4162:	bd30      	pop	{r4, r5, pc}
    4164:	0000060c 	.word	0x0000060c
    4168:	00000084 	.word	0x00000084
    416c:	40000c02 	.word	0x40000c02
    4170:	40000c00 	.word	0x40000c00
    4174:	fffff0ff 	.word	0xfffff0ff
    4178:	ffffbfff 	.word	0xffffbfff
    417c:	00000004 	.word	0x00000004

00004180 <system_gclk_chan_set_config>:
 *
 */
void system_gclk_chan_set_config(
		const uint8_t channel,
		struct system_gclk_chan_config *const config)
{
    4180:	b510      	push	{r4, lr}
    4182:	b082      	sub	sp, #8
    4184:	4b06      	ldr	r3, [pc, #24]	; (41a0 <system_gclk_chan_set_config+0x20>)
    4186:	447b      	add	r3, pc

	/* Cache the new config to reduce sync requirements */
	uint32_t new_clkctrl_config = (channel << GCLK_CLKCTRL_ID_Pos);

	/* Select the desired generic clock generator */
	new_clkctrl_config |= config->source_generator << GCLK_CLKCTRL_GEN_Pos;
    4188:	780c      	ldrb	r4, [r1, #0]
    418a:	0224      	lsls	r4, r4, #8
    418c:	4304      	orrs	r4, r0

	/* Disable generic clock channel */
	system_gclk_chan_disable(channel);
    418e:	4a05      	ldr	r2, [pc, #20]	; (41a4 <system_gclk_chan_set_config+0x24>)
    4190:	589a      	ldr	r2, [r3, r2]
    4192:	9201      	str	r2, [sp, #4]
    4194:	4790      	blx	r2

	/* Write the new configuration */
	GCLK->CLKCTRL.reg = new_clkctrl_config;
    4196:	b2a4      	uxth	r4, r4
    4198:	4b03      	ldr	r3, [pc, #12]	; (41a8 <system_gclk_chan_set_config+0x28>)
    419a:	805c      	strh	r4, [r3, #2]
}
    419c:	b002      	add	sp, #8
    419e:	bd10      	pop	{r4, pc}
    41a0:	000005a2 	.word	0x000005a2
    41a4:	000001f0 	.word	0x000001f0
    41a8:	40000c00 	.word	0x40000c00

000041ac <system_gclk_chan_get_hz>:
 *
 * \return The frequency of the generic clock channel, in Hz.
 */
uint32_t system_gclk_chan_get_hz(
		const uint8_t channel)
{
    41ac:	b530      	push	{r4, r5, lr}
    41ae:	b083      	sub	sp, #12
    41b0:	1c05      	adds	r5, r0, #0
    41b2:	4c0a      	ldr	r4, [pc, #40]	; (41dc <system_gclk_chan_get_hz+0x30>)
    41b4:	447c      	add	r4, pc
 * are only re-enabled upon leaving the outermost nested critical section.
 *
 */
static inline void system_interrupt_enter_critical_section(void)
{
	cpu_irq_enter_critical();
    41b6:	4b0a      	ldr	r3, [pc, #40]	; (41e0 <system_gclk_chan_get_hz+0x34>)
    41b8:	58e3      	ldr	r3, [r4, r3]
    41ba:	4798      	blx	r3
	uint8_t gen_id;

	system_interrupt_enter_critical_section();

	/* Select the requested generic clock channel */
	*((uint8_t*)&GCLK->CLKCTRL.reg) = channel;
    41bc:	4b09      	ldr	r3, [pc, #36]	; (41e4 <system_gclk_chan_get_hz+0x38>)
    41be:	701d      	strb	r5, [r3, #0]
	gen_id = GCLK->CLKCTRL.bit.GEN;
    41c0:	4b09      	ldr	r3, [pc, #36]	; (41e8 <system_gclk_chan_get_hz+0x3c>)
    41c2:	885d      	ldrh	r5, [r3, #2]
    41c4:	052d      	lsls	r5, r5, #20
    41c6:	0f2d      	lsrs	r5, r5, #28
 * are only re-enabled upon leaving the outermost nested critical section.
 *
 */
static inline void system_interrupt_leave_critical_section(void)
{
	cpu_irq_leave_critical();
    41c8:	4b08      	ldr	r3, [pc, #32]	; (41ec <system_gclk_chan_get_hz+0x40>)
    41ca:	58e3      	ldr	r3, [r4, r3]
    41cc:	4798      	blx	r3

	system_interrupt_leave_critical_section();

	/* Return the clock speed of the associated GCLK generator */
	return system_gclk_gen_get_hz(gen_id);
    41ce:	1c28      	adds	r0, r5, #0
    41d0:	4b07      	ldr	r3, [pc, #28]	; (41f0 <system_gclk_chan_get_hz+0x44>)
    41d2:	58e3      	ldr	r3, [r4, r3]
    41d4:	4798      	blx	r3
}
    41d6:	b003      	add	sp, #12
    41d8:	bd30      	pop	{r4, r5, pc}
    41da:	46c0      	nop			; (mov r8, r8)
    41dc:	00000574 	.word	0x00000574
    41e0:	00000084 	.word	0x00000084
    41e4:	40000c02 	.word	0x40000c02
    41e8:	40000c00 	.word	0x40000c00
    41ec:	00000004 	.word	0x00000004
    41f0:	00000088 	.word	0x00000088

000041f4 <_system_dummy_init>:
 */
void _system_dummy_init(void);
void _system_dummy_init(void)
{
	return;
}
    41f4:	4770      	bx	lr
    41f6:	46c0      	nop			; (mov r8, r8)

000041f8 <system_init>:
 *  - Board hardware initialization (via the Board module)
 *  - Event system driver initialization (via the EVSYS module)
 *  - External Interrupt driver initialization (via the EXTINT module)
 */
void system_init(void)
{
    41f8:	b510      	push	{r4, lr}
    41fa:	b082      	sub	sp, #8
    41fc:	4c09      	ldr	r4, [pc, #36]	; (4224 <system_init+0x2c>)
    41fe:	447c      	add	r4, pc
	/* Configure GCLK and clock sources according to conf_clocks.h */
	system_clock_init();
    4200:	4b09      	ldr	r3, [pc, #36]	; (4228 <system_init+0x30>)
    4202:	58e3      	ldr	r3, [r4, r3]
    4204:	4798      	blx	r3

	/* Initialize board hardware */
	system_board_init();
    4206:	4b09      	ldr	r3, [pc, #36]	; (422c <system_init+0x34>)
    4208:	58e3      	ldr	r3, [r4, r3]
    420a:	4798      	blx	r3

	/* Initialize EVSYS hardware */
	_system_events_init();
    420c:	4b08      	ldr	r3, [pc, #32]	; (4230 <system_init+0x38>)
    420e:	58e3      	ldr	r3, [r4, r3]
    4210:	4798      	blx	r3

	/* Initialize External hardware */
	_system_extint_init();
    4212:	4b08      	ldr	r3, [pc, #32]	; (4234 <system_init+0x3c>)
    4214:	58e3      	ldr	r3, [r4, r3]
    4216:	4798      	blx	r3
	
	/* Initialize DIVAS hardware */
	_system_divas_init();
    4218:	4b07      	ldr	r3, [pc, #28]	; (4238 <system_init+0x40>)
    421a:	58e3      	ldr	r3, [r4, r3]
    421c:	4798      	blx	r3
}
    421e:	b002      	add	sp, #8
    4220:	bd10      	pop	{r4, pc}
    4222:	46c0      	nop			; (mov r8, r8)
    4224:	0000052a 	.word	0x0000052a
    4228:	000001b4 	.word	0x000001b4
    422c:	00000130 	.word	0x00000130
    4230:	000001b0 	.word	0x000001b0
    4234:	000000f0 	.word	0x000000f0
    4238:	00000080 	.word	0x00000080

0000423c <cpu_irq_enter_critical>:
 */
volatile bool g_interrupt_enabled = true;
#endif

void cpu_irq_enter_critical(void)
{
    423c:	b082      	sub	sp, #8
    423e:	4b11      	ldr	r3, [pc, #68]	; (4284 <cpu_irq_enter_critical+0x48>)
    4240:	447b      	add	r3, pc
	if (cpu_irq_critical_section_counter == 0) {
    4242:	4a11      	ldr	r2, [pc, #68]	; (4288 <cpu_irq_enter_critical+0x4c>)
    4244:	447a      	add	r2, pc
    4246:	6812      	ldr	r2, [r2, #0]
    4248:	2a00      	cmp	r2, #0
    424a:	d113      	bne.n	4274 <cpu_irq_enter_critical+0x38>
 */
__attribute__( ( always_inline ) ) __STATIC_INLINE uint32_t __get_PRIMASK(void)
{
  uint32_t result;

  __ASM volatile ("MRS %0, primask" : "=r" (result) );
    424c:	f3ef 8210 	mrs	r2, PRIMASK
		if (cpu_irq_is_enabled()) {
    4250:	2a00      	cmp	r2, #0
    4252:	d10b      	bne.n	426c <cpu_irq_enter_critical+0x30>
  This function disables IRQ interrupts by setting the I-bit in the CPSR.
  Can only be executed in Privileged modes.
 */
__attribute__( ( always_inline ) ) __STATIC_INLINE void __disable_irq(void)
{
  __ASM volatile ("cpsid i" : : : "memory");
    4254:	b672      	cpsid	i
    4256:	f3bf 8f5f 	dmb	sy
			cpu_irq_disable();
    425a:	4a0c      	ldr	r2, [pc, #48]	; (428c <cpu_irq_enter_critical+0x50>)
    425c:	589a      	ldr	r2, [r3, r2]
    425e:	2300      	movs	r3, #0
    4260:	7013      	strb	r3, [r2, #0]
			cpu_irq_prev_interrupt_state = true;
    4262:	2201      	movs	r2, #1
    4264:	4b0a      	ldr	r3, [pc, #40]	; (4290 <cpu_irq_enter_critical+0x54>)
    4266:	447b      	add	r3, pc
    4268:	711a      	strb	r2, [r3, #4]
    426a:	e003      	b.n	4274 <cpu_irq_enter_critical+0x38>
		} else {
			/* Make sure the to save the prev state as false */
			cpu_irq_prev_interrupt_state = false;
    426c:	2200      	movs	r2, #0
    426e:	4b09      	ldr	r3, [pc, #36]	; (4294 <cpu_irq_enter_critical+0x58>)
    4270:	447b      	add	r3, pc
    4272:	711a      	strb	r2, [r3, #4]
		}

	}

	cpu_irq_critical_section_counter++;
    4274:	4b08      	ldr	r3, [pc, #32]	; (4298 <cpu_irq_enter_critical+0x5c>)
    4276:	447b      	add	r3, pc
    4278:	681a      	ldr	r2, [r3, #0]
    427a:	3201      	adds	r2, #1
    427c:	601a      	str	r2, [r3, #0]
}
    427e:	b002      	add	sp, #8
    4280:	4770      	bx	lr
    4282:	46c0      	nop			; (mov r8, r8)
    4284:	000004e8 	.word	0x000004e8
    4288:	1fffdb10 	.word	0x1fffdb10
    428c:	00000094 	.word	0x00000094
    4290:	1fffdaee 	.word	0x1fffdaee
    4294:	1fffdae4 	.word	0x1fffdae4
    4298:	1fffdade 	.word	0x1fffdade

0000429c <cpu_irq_leave_critical>:

void cpu_irq_leave_critical(void)
{
    429c:	b082      	sub	sp, #8
    429e:	4a0d      	ldr	r2, [pc, #52]	; (42d4 <cpu_irq_leave_critical+0x38>)
    42a0:	447a      	add	r2, pc
	/* Check if the user is trying to leave a critical section when not in a critical section */
	Assert(cpu_irq_critical_section_counter > 0);

	cpu_irq_critical_section_counter--;
    42a2:	4b0d      	ldr	r3, [pc, #52]	; (42d8 <cpu_irq_leave_critical+0x3c>)
    42a4:	447b      	add	r3, pc
    42a6:	6819      	ldr	r1, [r3, #0]
    42a8:	3901      	subs	r1, #1
    42aa:	6019      	str	r1, [r3, #0]

	/* Only enable global interrupts when the counter reaches 0 and the state of the global interrupt flag
	   was enabled when entering critical state */
	if ((cpu_irq_critical_section_counter == 0) && (cpu_irq_prev_interrupt_state)) {
    42ac:	681b      	ldr	r3, [r3, #0]
    42ae:	2b00      	cmp	r3, #0
    42b0:	d10d      	bne.n	42ce <cpu_irq_leave_critical+0x32>
    42b2:	4b0a      	ldr	r3, [pc, #40]	; (42dc <cpu_irq_leave_critical+0x40>)
    42b4:	447b      	add	r3, pc
    42b6:	791b      	ldrb	r3, [r3, #4]
    42b8:	2b00      	cmp	r3, #0
    42ba:	d008      	beq.n	42ce <cpu_irq_leave_critical+0x32>
		cpu_irq_enable();
    42bc:	4b08      	ldr	r3, [pc, #32]	; (42e0 <cpu_irq_leave_critical+0x44>)
    42be:	58d3      	ldr	r3, [r2, r3]
    42c0:	9301      	str	r3, [sp, #4]
    42c2:	2301      	movs	r3, #1
    42c4:	9a01      	ldr	r2, [sp, #4]
    42c6:	7013      	strb	r3, [r2, #0]
    42c8:	f3bf 8f5f 	dmb	sy
  This function enables IRQ interrupts by clearing the I-bit in the CPSR.
  Can only be executed in Privileged modes.
 */
__attribute__( ( always_inline ) ) __STATIC_INLINE void __enable_irq(void)
{
  __ASM volatile ("cpsie i" : : : "memory");
    42cc:	b662      	cpsie	i
	}
}
    42ce:	b002      	add	sp, #8
    42d0:	4770      	bx	lr
    42d2:	46c0      	nop			; (mov r8, r8)
    42d4:	00000488 	.word	0x00000488
    42d8:	1fffdab0 	.word	0x1fffdab0
    42dc:	1fffdaa0 	.word	0x1fffdaa0
    42e0:	00000094 	.word	0x00000094

000042e4 <port_pin_set_config>:
 *  \param[in] config    Configuration settings for the pin
 */
void port_pin_set_config(
		const uint8_t gpio_pin,
		const struct port_config *const config)
{
    42e4:	b510      	push	{r4, lr}
    42e6:	b084      	sub	sp, #16
    42e8:	4a08      	ldr	r2, [pc, #32]	; (430c <port_pin_set_config+0x28>)
    42ea:	447a      	add	r2, pc
{
	/* Sanity check arguments */
	Assert(config);

	/* Default configuration values */
	config->mux_position = SYSTEM_PINMUX_GPIO;
    42ec:	2480      	movs	r4, #128	; 0x80
    42ee:	ab03      	add	r3, sp, #12
    42f0:	701c      	strb	r4, [r3, #0]

	struct system_pinmux_config pinmux_config;
	system_pinmux_get_config_defaults(&pinmux_config);

	pinmux_config.mux_position = SYSTEM_PINMUX_GPIO;
	pinmux_config.direction    = (enum system_pinmux_pin_dir)config->direction;
    42f2:	780c      	ldrb	r4, [r1, #0]
    42f4:	705c      	strb	r4, [r3, #1]
	pinmux_config.input_pull   = (enum system_pinmux_pin_pull)config->input_pull;
    42f6:	784c      	ldrb	r4, [r1, #1]
    42f8:	709c      	strb	r4, [r3, #2]
	pinmux_config.powersave    = config->powersave;
    42fa:	7889      	ldrb	r1, [r1, #2]
    42fc:	70d9      	strb	r1, [r3, #3]

	system_pinmux_pin_set_config(gpio_pin, &pinmux_config);
    42fe:	1c19      	adds	r1, r3, #0
    4300:	4b03      	ldr	r3, [pc, #12]	; (4310 <port_pin_set_config+0x2c>)
    4302:	58d3      	ldr	r3, [r2, r3]
    4304:	4798      	blx	r3
}
    4306:	b004      	add	sp, #16
    4308:	bd10      	pop	{r4, pc}
    430a:	46c0      	nop			; (mov r8, r8)
    430c:	0000043e 	.word	0x0000043e
    4310:	0000020c 	.word	0x0000020c

00004314 <_system_pinmux_config>:
 */
static void _system_pinmux_config(
		PortGroup *const port,
		const uint32_t pin_mask,
		const struct system_pinmux_config *const config)
{
    4314:	b530      	push	{r4, r5, lr}

	/* Track the configuration bits into a temporary variable before writing */
	uint32_t pin_cfg = 0;

	/* Enabled powersave mode, don't create configuration */
	if (!config->powersave) {
    4316:	78d3      	ldrb	r3, [r2, #3]
    4318:	2b00      	cmp	r3, #0
    431a:	d11e      	bne.n	435a <_system_pinmux_config+0x46>
		/* Enable the pin peripheral MUX flag if non-GPIO selected (pinmux will
		 * be written later) and store the new MUX mask */
		if (config->mux_position != SYSTEM_PINMUX_GPIO) {
    431c:	7813      	ldrb	r3, [r2, #0]
    431e:	2b80      	cmp	r3, #128	; 0x80
    4320:	d004      	beq.n	432c <_system_pinmux_config+0x18>
			pin_cfg |= PORT_WRCONFIG_PMUXEN;
			pin_cfg |= (config->mux_position << PORT_WRCONFIG_PMUX_Pos);
    4322:	061b      	lsls	r3, r3, #24
    4324:	2480      	movs	r4, #128	; 0x80
    4326:	0264      	lsls	r4, r4, #9
    4328:	4323      	orrs	r3, r4
    432a:	e000      	b.n	432e <_system_pinmux_config+0x1a>
{
	Assert(port);
	Assert(config);

	/* Track the configuration bits into a temporary variable before writing */
	uint32_t pin_cfg = 0;
    432c:	2300      	movs	r3, #0
			pin_cfg |= PORT_WRCONFIG_PMUXEN;
			pin_cfg |= (config->mux_position << PORT_WRCONFIG_PMUX_Pos);
		}

		/* Check if the user has requested that the input buffer be enabled */
		if ((config->direction == SYSTEM_PINMUX_PIN_DIR_INPUT) ||
    432e:	7854      	ldrb	r4, [r2, #1]
    4330:	2502      	movs	r5, #2
    4332:	43ac      	bics	r4, r5
    4334:	d10a      	bne.n	434c <_system_pinmux_config+0x38>
				(config->direction == SYSTEM_PINMUX_PIN_DIR_OUTPUT_WITH_READBACK)) {
			/* Enable input buffer flag */
			pin_cfg |= PORT_WRCONFIG_INEN;

			/* Enable pull-up/pull-down control flag if requested */
			if (config->input_pull != SYSTEM_PINMUX_PIN_PULL_NONE) {
    4336:	7894      	ldrb	r4, [r2, #2]
    4338:	2c00      	cmp	r4, #0
    433a:	d103      	bne.n	4344 <_system_pinmux_config+0x30>

		/* Check if the user has requested that the input buffer be enabled */
		if ((config->direction == SYSTEM_PINMUX_PIN_DIR_INPUT) ||
				(config->direction == SYSTEM_PINMUX_PIN_DIR_OUTPUT_WITH_READBACK)) {
			/* Enable input buffer flag */
			pin_cfg |= PORT_WRCONFIG_INEN;
    433c:	2480      	movs	r4, #128	; 0x80
    433e:	02a4      	lsls	r4, r4, #10
    4340:	4323      	orrs	r3, r4
    4342:	e002      	b.n	434a <_system_pinmux_config+0x36>

			/* Enable pull-up/pull-down control flag if requested */
			if (config->input_pull != SYSTEM_PINMUX_PIN_PULL_NONE) {
				pin_cfg |= PORT_WRCONFIG_PULLEN;
    4344:	24c0      	movs	r4, #192	; 0xc0
    4346:	02e4      	lsls	r4, r4, #11
    4348:	4323      	orrs	r3, r4
			}

			/* Clear the port DIR bits to disable the output buffer */
			port->DIRCLR.reg = pin_mask;
    434a:	6041      	str	r1, [r0, #4]
		}

		/* Check if the user has requested that the output buffer be enabled */
		if ((config->direction == SYSTEM_PINMUX_PIN_DIR_OUTPUT) ||
    434c:	7854      	ldrb	r4, [r2, #1]
    434e:	3c01      	subs	r4, #1
    4350:	2c01      	cmp	r4, #1
    4352:	d804      	bhi.n	435e <_system_pinmux_config+0x4a>
				(config->direction == SYSTEM_PINMUX_PIN_DIR_OUTPUT_WITH_READBACK)) {
			/* Cannot use a pull-up if the output driver is enabled,
			 * if requested the input buffer can only sample the current
			 * output state */
			pin_cfg &= ~PORT_WRCONFIG_PULLEN;
    4354:	4c11      	ldr	r4, [pc, #68]	; (439c <_system_pinmux_config+0x88>)
    4356:	4023      	ands	r3, r4
    4358:	e001      	b.n	435e <_system_pinmux_config+0x4a>
		}
	} else {
		port->DIRCLR.reg = pin_mask;
    435a:	6041      	str	r1, [r0, #4]
{
	Assert(port);
	Assert(config);

	/* Track the configuration bits into a temporary variable before writing */
	uint32_t pin_cfg = 0;
    435c:	2300      	movs	r3, #0
		port->DIRCLR.reg = pin_mask;
	}

	/* The Write Configuration register (WRCONFIG) requires the
	 * pins to to grouped into two 16-bit half-words - split them out here */
	uint32_t lower_pin_mask = (pin_mask & 0xFFFF);
    435e:	040d      	lsls	r5, r1, #16
    4360:	0c2d      	lsrs	r5, r5, #16
	uint32_t upper_pin_mask = (pin_mask >> 16);

	/* Configure the lower 16-bits of the port to the desired configuration,
	 * including the pin peripheral multiplexer just in case it is enabled */
	port->WRCONFIG.reg
		= (lower_pin_mask << PORT_WRCONFIG_PINMASK_Pos) |
    4362:	24a0      	movs	r4, #160	; 0xa0
    4364:	05e4      	lsls	r4, r4, #23
    4366:	432c      	orrs	r4, r5
			pin_cfg | PORT_WRCONFIG_WRPMUX | PORT_WRCONFIG_WRPINCFG;
    4368:	431c      	orrs	r4, r3
	uint32_t upper_pin_mask = (pin_mask >> 16);

	/* Configure the lower 16-bits of the port to the desired configuration,
	 * including the pin peripheral multiplexer just in case it is enabled */
	port->WRCONFIG.reg
		= (lower_pin_mask << PORT_WRCONFIG_PINMASK_Pos) |
    436a:	6284      	str	r4, [r0, #40]	; 0x28
	}

	/* The Write Configuration register (WRCONFIG) requires the
	 * pins to to grouped into two 16-bit half-words - split them out here */
	uint32_t lower_pin_mask = (pin_mask & 0xFFFF);
	uint32_t upper_pin_mask = (pin_mask >> 16);
    436c:	0c0d      	lsrs	r5, r1, #16
			pin_cfg | PORT_WRCONFIG_WRPMUX | PORT_WRCONFIG_WRPINCFG;

	/* Configure the upper 16-bits of the port to the desired configuration,
	 * including the pin peripheral multiplexer just in case it is enabled */
	port->WRCONFIG.reg
		= (upper_pin_mask << PORT_WRCONFIG_PINMASK_Pos) |
    436e:	24d0      	movs	r4, #208	; 0xd0
    4370:	0624      	lsls	r4, r4, #24
    4372:	432c      	orrs	r4, r5
			pin_cfg | PORT_WRCONFIG_WRPMUX | PORT_WRCONFIG_WRPINCFG |
    4374:	431c      	orrs	r4, r3
			pin_cfg | PORT_WRCONFIG_WRPMUX | PORT_WRCONFIG_WRPINCFG;

	/* Configure the upper 16-bits of the port to the desired configuration,
	 * including the pin peripheral multiplexer just in case it is enabled */
	port->WRCONFIG.reg
		= (upper_pin_mask << PORT_WRCONFIG_PINMASK_Pos) |
    4376:	6284      	str	r4, [r0, #40]	; 0x28
			pin_cfg | PORT_WRCONFIG_WRPMUX | PORT_WRCONFIG_WRPINCFG |
			PORT_WRCONFIG_HWSEL;

	if(!config->powersave) {
    4378:	78d4      	ldrb	r4, [r2, #3]
    437a:	2c00      	cmp	r4, #0
    437c:	d10c      	bne.n	4398 <_system_pinmux_config+0x84>
		/* Set the pull-up state once the port pins are configured if one was
		 * requested and it does not violate the valid set of port
		 * configurations */
		if (pin_cfg & PORT_WRCONFIG_PULLEN) {
    437e:	035c      	lsls	r4, r3, #13
    4380:	d505      	bpl.n	438e <_system_pinmux_config+0x7a>
			/* Set the OUT register bits to enable the pull-up if requested,
			 * clear to enable pull-down */
			if (config->input_pull == SYSTEM_PINMUX_PIN_PULL_UP) {
    4382:	7893      	ldrb	r3, [r2, #2]
    4384:	2b01      	cmp	r3, #1
    4386:	d101      	bne.n	438c <_system_pinmux_config+0x78>
				port->OUTSET.reg = pin_mask;
    4388:	6181      	str	r1, [r0, #24]
    438a:	e000      	b.n	438e <_system_pinmux_config+0x7a>
			} else {
				port->OUTCLR.reg = pin_mask;
    438c:	6141      	str	r1, [r0, #20]
			}
		}

		/* Check if the user has requested that the output buffer be enabled */
		if ((config->direction == SYSTEM_PINMUX_PIN_DIR_OUTPUT) ||
    438e:	7853      	ldrb	r3, [r2, #1]
    4390:	3b01      	subs	r3, #1
    4392:	2b01      	cmp	r3, #1
    4394:	d800      	bhi.n	4398 <_system_pinmux_config+0x84>
				(config->direction == SYSTEM_PINMUX_PIN_DIR_OUTPUT_WITH_READBACK)) {
			/* Set the port DIR bits to enable the output buffer */
			port->DIRSET.reg = pin_mask;
    4396:	6081      	str	r1, [r0, #8]
		}
	}
}
    4398:	bd30      	pop	{r4, r5, pc}
    439a:	46c0      	nop			; (mov r8, r8)
    439c:	fffbffff 	.word	0xfffbffff

000043a0 <system_pinmux_pin_set_config>:
 * \param[in] config    Configuration settings for the pin
 */
void system_pinmux_pin_set_config(
		const uint8_t gpio_pin,
		const struct system_pinmux_config *const config)
{
    43a0:	b508      	push	{r3, lr}
    43a2:	1c03      	adds	r3, r0, #0
    43a4:	1c0a      	adds	r2, r1, #0
	uint8_t group_index = (gpio_pin / 32);

	/* Array of available ports */
	Port *const ports[PORT_INST_NUM] = PORT_INSTS;

	if (port_index < PORT_INST_NUM) {
    43a6:	09c1      	lsrs	r1, r0, #7
		return &(ports[port_index]->Group[group_index]);
	} else {
		Assert(false);
		return NULL;
    43a8:	2000      	movs	r0, #0
	uint8_t group_index = (gpio_pin / 32);

	/* Array of available ports */
	Port *const ports[PORT_INST_NUM] = PORT_INSTS;

	if (port_index < PORT_INST_NUM) {
    43aa:	2900      	cmp	r1, #0
    43ac:	d103      	bne.n	43b6 <system_pinmux_pin_set_config+0x16>
		return &(ports[port_index]->Group[group_index]);
    43ae:	0958      	lsrs	r0, r3, #5
    43b0:	01c0      	lsls	r0, r0, #7
    43b2:	4905      	ldr	r1, [pc, #20]	; (43c8 <system_pinmux_pin_set_config+0x28>)
    43b4:	1840      	adds	r0, r0, r1
	PortGroup *const port = system_pinmux_get_group_from_gpio_pin(gpio_pin);
	uint32_t pin_mask = (1UL << (gpio_pin % 32));
    43b6:	211f      	movs	r1, #31
    43b8:	400b      	ands	r3, r1
    43ba:	2101      	movs	r1, #1
    43bc:	4099      	lsls	r1, r3

	_system_pinmux_config(port, pin_mask, config);
    43be:	4b03      	ldr	r3, [pc, #12]	; (43cc <system_pinmux_pin_set_config+0x2c>)
    43c0:	447b      	add	r3, pc
    43c2:	4798      	blx	r3
}
    43c4:	bd08      	pop	{r3, pc}
    43c6:	46c0      	nop			; (mov r8, r8)
    43c8:	41004400 	.word	0x41004400
    43cc:	ffffff51 	.word	0xffffff51

000043d0 <__gnu_thumb1_case_uqi>:
    43d0:	b402      	push	{r1}
    43d2:	4671      	mov	r1, lr
    43d4:	0849      	lsrs	r1, r1, #1
    43d6:	0049      	lsls	r1, r1, #1
    43d8:	5c09      	ldrb	r1, [r1, r0]
    43da:	0049      	lsls	r1, r1, #1
    43dc:	448e      	add	lr, r1
    43de:	bc02      	pop	{r1}
    43e0:	4770      	bx	lr
    43e2:	46c0      	nop			; (mov r8, r8)

000043e4 <__udivsi3>:
    43e4:	2900      	cmp	r1, #0
    43e6:	d034      	beq.n	4452 <.udivsi3_skip_div0_test+0x6a>

000043e8 <.udivsi3_skip_div0_test>:
    43e8:	2301      	movs	r3, #1
    43ea:	2200      	movs	r2, #0
    43ec:	b410      	push	{r4}
    43ee:	4288      	cmp	r0, r1
    43f0:	d32c      	bcc.n	444c <.udivsi3_skip_div0_test+0x64>
    43f2:	2401      	movs	r4, #1
    43f4:	0724      	lsls	r4, r4, #28
    43f6:	42a1      	cmp	r1, r4
    43f8:	d204      	bcs.n	4404 <.udivsi3_skip_div0_test+0x1c>
    43fa:	4281      	cmp	r1, r0
    43fc:	d202      	bcs.n	4404 <.udivsi3_skip_div0_test+0x1c>
    43fe:	0109      	lsls	r1, r1, #4
    4400:	011b      	lsls	r3, r3, #4
    4402:	e7f8      	b.n	43f6 <.udivsi3_skip_div0_test+0xe>
    4404:	00e4      	lsls	r4, r4, #3
    4406:	42a1      	cmp	r1, r4
    4408:	d204      	bcs.n	4414 <.udivsi3_skip_div0_test+0x2c>
    440a:	4281      	cmp	r1, r0
    440c:	d202      	bcs.n	4414 <.udivsi3_skip_div0_test+0x2c>
    440e:	0049      	lsls	r1, r1, #1
    4410:	005b      	lsls	r3, r3, #1
    4412:	e7f8      	b.n	4406 <.udivsi3_skip_div0_test+0x1e>
    4414:	4288      	cmp	r0, r1
    4416:	d301      	bcc.n	441c <.udivsi3_skip_div0_test+0x34>
    4418:	1a40      	subs	r0, r0, r1
    441a:	431a      	orrs	r2, r3
    441c:	084c      	lsrs	r4, r1, #1
    441e:	42a0      	cmp	r0, r4
    4420:	d302      	bcc.n	4428 <.udivsi3_skip_div0_test+0x40>
    4422:	1b00      	subs	r0, r0, r4
    4424:	085c      	lsrs	r4, r3, #1
    4426:	4322      	orrs	r2, r4
    4428:	088c      	lsrs	r4, r1, #2
    442a:	42a0      	cmp	r0, r4
    442c:	d302      	bcc.n	4434 <.udivsi3_skip_div0_test+0x4c>
    442e:	1b00      	subs	r0, r0, r4
    4430:	089c      	lsrs	r4, r3, #2
    4432:	4322      	orrs	r2, r4
    4434:	08cc      	lsrs	r4, r1, #3
    4436:	42a0      	cmp	r0, r4
    4438:	d302      	bcc.n	4440 <.udivsi3_skip_div0_test+0x58>
    443a:	1b00      	subs	r0, r0, r4
    443c:	08dc      	lsrs	r4, r3, #3
    443e:	4322      	orrs	r2, r4
    4440:	2800      	cmp	r0, #0
    4442:	d003      	beq.n	444c <.udivsi3_skip_div0_test+0x64>
    4444:	091b      	lsrs	r3, r3, #4
    4446:	d001      	beq.n	444c <.udivsi3_skip_div0_test+0x64>
    4448:	0909      	lsrs	r1, r1, #4
    444a:	e7e3      	b.n	4414 <.udivsi3_skip_div0_test+0x2c>
    444c:	1c10      	adds	r0, r2, #0
    444e:	bc10      	pop	{r4}
    4450:	4770      	bx	lr
    4452:	2800      	cmp	r0, #0
    4454:	d001      	beq.n	445a <.udivsi3_skip_div0_test+0x72>
    4456:	2000      	movs	r0, #0
    4458:	43c0      	mvns	r0, r0
    445a:	b407      	push	{r0, r1, r2}
    445c:	4802      	ldr	r0, [pc, #8]	; (4468 <.udivsi3_skip_div0_test+0x80>)
    445e:	a102      	add	r1, pc, #8	; (adr r1, 4468 <.udivsi3_skip_div0_test+0x80>)
    4460:	1840      	adds	r0, r0, r1
    4462:	9002      	str	r0, [sp, #8]
    4464:	bd03      	pop	{r0, r1, pc}
    4466:	46c0      	nop			; (mov r8, r8)
    4468:	00000019 	.word	0x00000019

0000446c <__aeabi_uidivmod>:
    446c:	2900      	cmp	r1, #0
    446e:	d0f0      	beq.n	4452 <.udivsi3_skip_div0_test+0x6a>
    4470:	b503      	push	{r0, r1, lr}
    4472:	f7ff ffb9 	bl	43e8 <.udivsi3_skip_div0_test>
    4476:	bc0e      	pop	{r1, r2, r3}
    4478:	4342      	muls	r2, r0
    447a:	1a89      	subs	r1, r1, r2
    447c:	4718      	bx	r3
    447e:	46c0      	nop			; (mov r8, r8)

00004480 <__aeabi_idiv0>:
    4480:	4770      	bx	lr
    4482:	46c0      	nop			; (mov r8, r8)

00004484 <__muldi3>:
    4484:	469c      	mov	ip, r3
    4486:	0403      	lsls	r3, r0, #16
    4488:	b5f0      	push	{r4, r5, r6, r7, lr}
    448a:	0c1b      	lsrs	r3, r3, #16
    448c:	0417      	lsls	r7, r2, #16
    448e:	0c3f      	lsrs	r7, r7, #16
    4490:	0c15      	lsrs	r5, r2, #16
    4492:	1c1e      	adds	r6, r3, #0
    4494:	1c04      	adds	r4, r0, #0
    4496:	0c00      	lsrs	r0, r0, #16
    4498:	437e      	muls	r6, r7
    449a:	436b      	muls	r3, r5
    449c:	4347      	muls	r7, r0
    449e:	4345      	muls	r5, r0
    44a0:	18fb      	adds	r3, r7, r3
    44a2:	0c30      	lsrs	r0, r6, #16
    44a4:	1818      	adds	r0, r3, r0
    44a6:	4287      	cmp	r7, r0
    44a8:	d902      	bls.n	44b0 <__muldi3+0x2c>
    44aa:	2380      	movs	r3, #128	; 0x80
    44ac:	025b      	lsls	r3, r3, #9
    44ae:	18ed      	adds	r5, r5, r3
    44b0:	0c03      	lsrs	r3, r0, #16
    44b2:	18ed      	adds	r5, r5, r3
    44b4:	4663      	mov	r3, ip
    44b6:	435c      	muls	r4, r3
    44b8:	434a      	muls	r2, r1
    44ba:	0436      	lsls	r6, r6, #16
    44bc:	0c36      	lsrs	r6, r6, #16
    44be:	18a1      	adds	r1, r4, r2
    44c0:	0400      	lsls	r0, r0, #16
    44c2:	1980      	adds	r0, r0, r6
    44c4:	1949      	adds	r1, r1, r5
    44c6:	bdf0      	pop	{r4, r5, r6, r7, pc}

000044c8 <__libc_init_array>:
    44c8:	b570      	push	{r4, r5, r6, lr}
    44ca:	4e0d      	ldr	r6, [pc, #52]	; (4500 <__libc_init_array+0x38>)
    44cc:	4d0d      	ldr	r5, [pc, #52]	; (4504 <__libc_init_array+0x3c>)
    44ce:	2400      	movs	r4, #0
    44d0:	1bad      	subs	r5, r5, r6
    44d2:	10ad      	asrs	r5, r5, #2
    44d4:	d005      	beq.n	44e2 <__libc_init_array+0x1a>
    44d6:	00a3      	lsls	r3, r4, #2
    44d8:	58f3      	ldr	r3, [r6, r3]
    44da:	3401      	adds	r4, #1
    44dc:	4798      	blx	r3
    44de:	42a5      	cmp	r5, r4
    44e0:	d1f9      	bne.n	44d6 <__libc_init_array+0xe>
    44e2:	f000 f911 	bl	4708 <_init>
    44e6:	4e08      	ldr	r6, [pc, #32]	; (4508 <__libc_init_array+0x40>)
    44e8:	4d08      	ldr	r5, [pc, #32]	; (450c <__libc_init_array+0x44>)
    44ea:	2400      	movs	r4, #0
    44ec:	1bad      	subs	r5, r5, r6
    44ee:	10ad      	asrs	r5, r5, #2
    44f0:	d005      	beq.n	44fe <__libc_init_array+0x36>
    44f2:	00a3      	lsls	r3, r4, #2
    44f4:	58f3      	ldr	r3, [r6, r3]
    44f6:	3401      	adds	r4, #1
    44f8:	4798      	blx	r3
    44fa:	42a5      	cmp	r5, r4
    44fc:	d1f9      	bne.n	44f2 <__libc_init_array+0x2a>
    44fe:	bd70      	pop	{r4, r5, r6, pc}
    4500:	00004714 	.word	0x00004714
    4504:	00004714 	.word	0x00004714
    4508:	00004714 	.word	0x00004714
    450c:	0000471c 	.word	0x0000471c

00004510 <memcpy>:
    4510:	b5f0      	push	{r4, r5, r6, r7, lr}
    4512:	2a0f      	cmp	r2, #15
    4514:	d935      	bls.n	4582 <memcpy+0x72>
    4516:	1c03      	adds	r3, r0, #0
    4518:	430b      	orrs	r3, r1
    451a:	079c      	lsls	r4, r3, #30
    451c:	d135      	bne.n	458a <memcpy+0x7a>
    451e:	1c16      	adds	r6, r2, #0
    4520:	3e10      	subs	r6, #16
    4522:	0936      	lsrs	r6, r6, #4
    4524:	0135      	lsls	r5, r6, #4
    4526:	1945      	adds	r5, r0, r5
    4528:	3510      	adds	r5, #16
    452a:	1c0c      	adds	r4, r1, #0
    452c:	1c03      	adds	r3, r0, #0
    452e:	6827      	ldr	r7, [r4, #0]
    4530:	601f      	str	r7, [r3, #0]
    4532:	6867      	ldr	r7, [r4, #4]
    4534:	605f      	str	r7, [r3, #4]
    4536:	68a7      	ldr	r7, [r4, #8]
    4538:	609f      	str	r7, [r3, #8]
    453a:	68e7      	ldr	r7, [r4, #12]
    453c:	3410      	adds	r4, #16
    453e:	60df      	str	r7, [r3, #12]
    4540:	3310      	adds	r3, #16
    4542:	42ab      	cmp	r3, r5
    4544:	d1f3      	bne.n	452e <memcpy+0x1e>
    4546:	1c73      	adds	r3, r6, #1
    4548:	011b      	lsls	r3, r3, #4
    454a:	18c5      	adds	r5, r0, r3
    454c:	18c9      	adds	r1, r1, r3
    454e:	230f      	movs	r3, #15
    4550:	4013      	ands	r3, r2
    4552:	2b03      	cmp	r3, #3
    4554:	d91b      	bls.n	458e <memcpy+0x7e>
    4556:	1f1c      	subs	r4, r3, #4
    4558:	08a4      	lsrs	r4, r4, #2
    455a:	3401      	adds	r4, #1
    455c:	00a4      	lsls	r4, r4, #2
    455e:	2300      	movs	r3, #0
    4560:	58ce      	ldr	r6, [r1, r3]
    4562:	50ee      	str	r6, [r5, r3]
    4564:	3304      	adds	r3, #4
    4566:	42a3      	cmp	r3, r4
    4568:	d1fa      	bne.n	4560 <memcpy+0x50>
    456a:	18ed      	adds	r5, r5, r3
    456c:	18c9      	adds	r1, r1, r3
    456e:	2303      	movs	r3, #3
    4570:	401a      	ands	r2, r3
    4572:	d005      	beq.n	4580 <memcpy+0x70>
    4574:	2300      	movs	r3, #0
    4576:	5ccc      	ldrb	r4, [r1, r3]
    4578:	54ec      	strb	r4, [r5, r3]
    457a:	3301      	adds	r3, #1
    457c:	4293      	cmp	r3, r2
    457e:	d1fa      	bne.n	4576 <memcpy+0x66>
    4580:	bdf0      	pop	{r4, r5, r6, r7, pc}
    4582:	1c05      	adds	r5, r0, #0
    4584:	2a00      	cmp	r2, #0
    4586:	d1f5      	bne.n	4574 <memcpy+0x64>
    4588:	e7fa      	b.n	4580 <memcpy+0x70>
    458a:	1c05      	adds	r5, r0, #0
    458c:	e7f2      	b.n	4574 <memcpy+0x64>
    458e:	1c1a      	adds	r2, r3, #0
    4590:	e7f8      	b.n	4584 <memcpy+0x74>
    4592:	46c0      	nop			; (mov r8, r8)

00004594 <register_fini>:
    4594:	b508      	push	{r3, lr}
    4596:	4b03      	ldr	r3, [pc, #12]	; (45a4 <register_fini+0x10>)
    4598:	2b00      	cmp	r3, #0
    459a:	d002      	beq.n	45a2 <register_fini+0xe>
    459c:	4802      	ldr	r0, [pc, #8]	; (45a8 <register_fini+0x14>)
    459e:	f000 f805 	bl	45ac <atexit>
    45a2:	bd08      	pop	{r3, pc}
    45a4:	00000000 	.word	0x00000000
    45a8:	000045bd 	.word	0x000045bd

000045ac <atexit>:
    45ac:	b508      	push	{r3, lr}
    45ae:	1c01      	adds	r1, r0, #0
    45b0:	2200      	movs	r2, #0
    45b2:	2000      	movs	r0, #0
    45b4:	2300      	movs	r3, #0
    45b6:	f000 f819 	bl	45ec <__register_exitproc>
    45ba:	bd08      	pop	{r3, pc}

000045bc <__libc_fini_array>:
    45bc:	b538      	push	{r3, r4, r5, lr}
    45be:	4b09      	ldr	r3, [pc, #36]	; (45e4 <__libc_fini_array+0x28>)
    45c0:	4d09      	ldr	r5, [pc, #36]	; (45e8 <__libc_fini_array+0x2c>)
    45c2:	1aed      	subs	r5, r5, r3
    45c4:	10ad      	asrs	r5, r5, #2
    45c6:	d009      	beq.n	45dc <__libc_fini_array+0x20>
    45c8:	3d01      	subs	r5, #1
    45ca:	00ac      	lsls	r4, r5, #2
    45cc:	18e4      	adds	r4, r4, r3
    45ce:	e000      	b.n	45d2 <__libc_fini_array+0x16>
    45d0:	3d01      	subs	r5, #1
    45d2:	6823      	ldr	r3, [r4, #0]
    45d4:	4798      	blx	r3
    45d6:	3c04      	subs	r4, #4
    45d8:	2d00      	cmp	r5, #0
    45da:	d1f9      	bne.n	45d0 <__libc_fini_array+0x14>
    45dc:	f000 f89e 	bl	471c <_fini>
    45e0:	bd38      	pop	{r3, r4, r5, pc}
    45e2:	46c0      	nop			; (mov r8, r8)
    45e4:	00004728 	.word	0x00004728
    45e8:	0000472c 	.word	0x0000472c

000045ec <__register_exitproc>:
    45ec:	b5f0      	push	{r4, r5, r6, r7, lr}
    45ee:	464f      	mov	r7, r9
    45f0:	4646      	mov	r6, r8
    45f2:	b4c0      	push	{r6, r7}
    45f4:	4698      	mov	r8, r3
    45f6:	4b2b      	ldr	r3, [pc, #172]	; (46a4 <__register_exitproc+0xb8>)
    45f8:	25a4      	movs	r5, #164	; 0xa4
    45fa:	681b      	ldr	r3, [r3, #0]
    45fc:	006d      	lsls	r5, r5, #1
    45fe:	595c      	ldr	r4, [r3, r5]
    4600:	b083      	sub	sp, #12
    4602:	1c06      	adds	r6, r0, #0
    4604:	1c0f      	adds	r7, r1, #0
    4606:	4691      	mov	r9, r2
    4608:	9301      	str	r3, [sp, #4]
    460a:	2c00      	cmp	r4, #0
    460c:	d044      	beq.n	4698 <__register_exitproc+0xac>
    460e:	6865      	ldr	r5, [r4, #4]
    4610:	2d1f      	cmp	r5, #31
    4612:	dd1a      	ble.n	464a <__register_exitproc+0x5e>
    4614:	4b24      	ldr	r3, [pc, #144]	; (46a8 <__register_exitproc+0xbc>)
    4616:	2b00      	cmp	r3, #0
    4618:	d102      	bne.n	4620 <__register_exitproc+0x34>
    461a:	2001      	movs	r0, #1
    461c:	4240      	negs	r0, r0
    461e:	e01c      	b.n	465a <__register_exitproc+0x6e>
    4620:	20c8      	movs	r0, #200	; 0xc8
    4622:	0040      	lsls	r0, r0, #1
    4624:	e000      	b.n	4628 <__register_exitproc+0x3c>
    4626:	bf00      	nop
    4628:	1e04      	subs	r4, r0, #0
    462a:	d0f6      	beq.n	461a <__register_exitproc+0x2e>
    462c:	2500      	movs	r5, #0
    462e:	6045      	str	r5, [r0, #4]
    4630:	23a4      	movs	r3, #164	; 0xa4
    4632:	9801      	ldr	r0, [sp, #4]
    4634:	005b      	lsls	r3, r3, #1
    4636:	58c0      	ldr	r0, [r0, r3]
    4638:	9901      	ldr	r1, [sp, #4]
    463a:	6020      	str	r0, [r4, #0]
    463c:	50cc      	str	r4, [r1, r3]
    463e:	23c4      	movs	r3, #196	; 0xc4
    4640:	005b      	lsls	r3, r3, #1
    4642:	50e5      	str	r5, [r4, r3]
    4644:	23c6      	movs	r3, #198	; 0xc6
    4646:	005b      	lsls	r3, r3, #1
    4648:	50e5      	str	r5, [r4, r3]
    464a:	2e00      	cmp	r6, #0
    464c:	d10a      	bne.n	4664 <__register_exitproc+0x78>
    464e:	1c6b      	adds	r3, r5, #1
    4650:	3502      	adds	r5, #2
    4652:	00ad      	lsls	r5, r5, #2
    4654:	6063      	str	r3, [r4, #4]
    4656:	2000      	movs	r0, #0
    4658:	512f      	str	r7, [r5, r4]
    465a:	b003      	add	sp, #12
    465c:	bc0c      	pop	{r2, r3}
    465e:	4690      	mov	r8, r2
    4660:	4699      	mov	r9, r3
    4662:	bdf0      	pop	{r4, r5, r6, r7, pc}
    4664:	00ab      	lsls	r3, r5, #2
    4666:	18e3      	adds	r3, r4, r3
    4668:	2288      	movs	r2, #136	; 0x88
    466a:	4648      	mov	r0, r9
    466c:	5098      	str	r0, [r3, r2]
    466e:	20c4      	movs	r0, #196	; 0xc4
    4670:	0040      	lsls	r0, r0, #1
    4672:	1822      	adds	r2, r4, r0
    4674:	6810      	ldr	r0, [r2, #0]
    4676:	2101      	movs	r1, #1
    4678:	40a9      	lsls	r1, r5
    467a:	4308      	orrs	r0, r1
    467c:	6010      	str	r0, [r2, #0]
    467e:	2284      	movs	r2, #132	; 0x84
    4680:	0052      	lsls	r2, r2, #1
    4682:	4640      	mov	r0, r8
    4684:	5098      	str	r0, [r3, r2]
    4686:	2e02      	cmp	r6, #2
    4688:	d1e1      	bne.n	464e <__register_exitproc+0x62>
    468a:	22c6      	movs	r2, #198	; 0xc6
    468c:	0052      	lsls	r2, r2, #1
    468e:	18a3      	adds	r3, r4, r2
    4690:	6818      	ldr	r0, [r3, #0]
    4692:	4301      	orrs	r1, r0
    4694:	6019      	str	r1, [r3, #0]
    4696:	e7da      	b.n	464e <__register_exitproc+0x62>
    4698:	1c1c      	adds	r4, r3, #0
    469a:	344d      	adds	r4, #77	; 0x4d
    469c:	34ff      	adds	r4, #255	; 0xff
    469e:	515c      	str	r4, [r3, r5]
    46a0:	e7b5      	b.n	460e <__register_exitproc+0x22>
    46a2:	46c0      	nop			; (mov r8, r8)
    46a4:	00004704 	.word	0x00004704
    46a8:	00000000 	.word	0x00000000
    46ac:	41447249 	.word	0x41447249
    46b0:	00000000 	.word	0x00000000
    46b4:	676e6950 	.word	0x676e6950
    46b8:	00000000 	.word	0x00000000
    46bc:	636e7953 	.word	0x636e7953
    46c0:	00000000 	.word	0x00000000
    46c4:	42000800 	.word	0x42000800
    46c8:	42000c00 	.word	0x42000c00
    46cc:	42001000 	.word	0x42001000
    46d0:	42001400 	.word	0x42001400
    46d4:	78545f43 	.word	0x78545f43
    46d8:	00000000 	.word	0x00000000
    46dc:	78525f43 	.word	0x78525f43
    46e0:	00000000 	.word	0x00000000
    46e4:	00787243 	.word	0x00787243
    46e8:	00787443 	.word	0x00787443
    46ec:	0c0b0a09 	.word	0x0c0b0a09
    46f0:	454c4449 	.word	0x454c4449
    46f4:	00000000 	.word	0x00000000
    46f8:	20726d54 	.word	0x20726d54
    46fc:	00637653 	.word	0x00637653
    4700:	00000043 	.word	0x00000043

00004704 <_global_impure_ptr>:
    4704:	20000010                                ... 

00004708 <_init>:
    4708:	b5f8      	push	{r3, r4, r5, r6, r7, lr}
    470a:	46c0      	nop			; (mov r8, r8)
    470c:	bcf8      	pop	{r3, r4, r5, r6, r7}
    470e:	bc08      	pop	{r3}
    4710:	469e      	mov	lr, r3
    4712:	4770      	bx	lr

00004714 <__init_array_start>:
    4714:	00004595 	.word	0x00004595

00004718 <__frame_dummy_init_array_entry>:
    4718:	000000d9                                ....

0000471c <_fini>:
    471c:	b5f8      	push	{r3, r4, r5, r6, r7, lr}
    471e:	46c0      	nop			; (mov r8, r8)
    4720:	bcf8      	pop	{r3, r4, r5, r6, r7}
    4722:	bc08      	pop	{r3}
    4724:	469e      	mov	lr, r3
    4726:	4770      	bx	lr

00004728 <__fini_array_start>:
    4728:	000000b1 	.word	0x000000b1
